 IocpServer64d

 Timestamp is 57c7e0c8 (Thu Sep 01 16:03:20 2016)

 Preferred load address is 0000000180000000

 Start         Length     Name                   Class
 0001:00000000 00009daeH .text$di                CODE
 0001:00009db0 00053594H .text$mn                CODE
 0001:0005d350 00007c21H .text$x                 CODE
 0001:00064f80 00001bc0H .text$yd                CODE
 0002:00000000 00000109H .CRT$XCA                DATA
 0002:00000110 00000113H .CRT$XCL                DATA
 0002:00000228 00000493H .CRT$XCU                DATA
 0002:000006c0 00000109H .CRT$XCZ                DATA
 0002:000007d0 00000109H .CRT$XIA                DATA
 0002:000008e0 00000109H .CRT$XIAA               DATA
 0002:000009f0 00000109H .CRT$XIC                DATA
 0002:00000b00 00000109H .CRT$XIZ                DATA
 0002:00000c10 00024a38H .rdata                  DATA
 0002:00025648 00000178H .rdata$debug            DATA
 0002:000257c0 00000b9fH .rdata$r                DATA
 0002:00026360 00000109H .rtc$IAA                DATA
 0002:00026470 00000222H .rtc$IMZ                DATA
 0002:00026698 00000109H .rtc$IZZ                DATA
 0002:000267a8 00000109H .rtc$TAA                DATA
 0002:000268b8 00000222H .rtc$TMZ                DATA
 0002:00026ae0 00000109H .rtc$TZZ                DATA
 0002:00026bf0 0000cc32H .xdata                  DATA
 0002:00033828 00000109H ATL$__a                 DATA
 0002:00033938 00000109H ATL$__z                 DATA
 0002:00033a50 0000057dH .edata                  DATA
 0003:00000000 000001c3H .data                   DATA
 0003:000001c8 00000517H .data$r                 DATA
 0003:000006e0 00003338H .bss                    DATA
 0004:00000000 00007848H .pdata                  DATA
 0005:00000000 00000c20H .idata$5                DATA
 0005:00000c20 000000dcH .idata$2                DATA
 0005:00000cfc 00000014H .idata$3                DATA
 0005:00000d10 00000c20H .idata$4                DATA
 0005:00001930 00000e2eH .idata$6                DATA
 0006:00000000 000001c0H .rsrc$01                DATA
 0006:000001c0 00000773H .rsrc$02                DATA

  Address         Publics by Value              Rva+Base               Lib:Object

 0000:00000000       __guard_fids_count         0000000000000000     <absolute>
 0000:00000000       __guard_fids_table         0000000000000000     <absolute>
 0000:00000000       ___safe_se_handler_count   0000000000000000     <absolute>
 0000:00000000       ___safe_se_handler_table   0000000000000000     <absolute>
 0000:00000000       __guard_flags              0000000000000000     <absolute>
 0000:00000000       __ImageBase                0000000180000000     <linker-defined>
 0001:00009db0       ?_AfxInitManaged@@YAHXZ    000000018000adb0 f i Adapter.obj
 0001:00009e00       ?InitCompatibleEvent@CAdapter@@SA_NAEAVCCompatibleEvent@@_N@Z 000000018000ae00 f   Adapter.obj
 0001:00009e50       ?UnInitCompatibleEvent@CAdapter@@SAXAEAVCCompatibleEvent@@@Z 000000018000ae50 f   Adapter.obj
 0001:00009e90       ?WaitForCompatibleEvent@CAdapter@@SAHAEAVCCompatibleEvent@@K@Z 000000018000ae90 f   Adapter.obj
 0001:00009ee0       ?WaitForMultipleCompatibleEvent@CAdapter@@SAKKPEAPEAVCCompatibleEvent@@HK@Z 000000018000aee0 f   Adapter.obj
 0001:0000a000       ?SetCompatibleEvent@CAdapter@@SAXAEAVCCompatibleEvent@@@Z 000000018000b000 f   Adapter.obj
 0001:0000a040       ?ResetCompatibleEvent@CAdapter@@SAXAEAVCCompatibleEvent@@@Z 000000018000b040 f   Adapter.obj
 0001:0000a080       ?CreateCompatibleThread@CAdapter@@SA_NP6AIPEAX@Z0@Z 000000018000b080 f   Adapter.obj
 0001:0000a0e0       ?CreateCompatibleThread@CAdapter@@SA_NP6AIPEAX@Z0I@Z 000000018000b0e0 f   Adapter.obj
 0001:0000a150       ?EndCompatibleThread@CAdapter@@SAXXZ 000000018000b150 f   Adapter.obj
 0001:0000a160       ?GetCurrentThreadId@CAdapter@@SAKXZ 000000018000b160 f   Adapter.obj
 0001:0000a190       ?LoadLibraryA@CAdapter@@SAPEAUHINSTANCE__@@PEBDH@Z 000000018000b190 f   Adapter.obj
 0001:0000a1d0       ?GetProcAddress@CAdapter@@SAP6A_JXZPEAUHINSTANCE__@@PEBD@Z 000000018000b1d0 f   Adapter.obj
 0001:0000a210       ?FreeLibrary@CAdapter@@SAHPEAUHINSTANCE__@@@Z 000000018000b210 f   Adapter.obj
 0001:0000a250       ?MultiByteToWideChar@CAdapter@@SAHIKPEBDHPEA_WH@Z 000000018000b250 f   Adapter.obj
 0001:0000a2c0       ?WideCharToMultiByte@CAdapter@@SAHIKPEB_WHPEADHPEBDPEAH@Z 000000018000b2c0 f   Adapter.obj
 0001:0000a350       ?itoa@CAdapter@@SAPEADHPEADH@Z 000000018000b350 f   Adapter.obj
 0001:0000a3a0       ?ltoa@CAdapter@@SAPEADHPEADH@Z 000000018000b3a0 f   Adapter.obj
 0001:0000a3f0       ?_i64toa@CAdapter@@SAPEAD_JPEADH@Z 000000018000b3f0 f   Adapter.obj
 0001:0000a440       ?_ui64toa@CAdapter@@SAPEAD_KPEADH@Z 000000018000b440 f   Adapter.obj
 0001:0000a490       ?US2ToAscii@CAdapter@@SAHPEBDHPEADPEAH@Z 000000018000b490 f   Adapter.obj
 0001:0000a6d0       ?AsciiToUS2@CAdapter@@SAHPEBDPEAEPEAI@Z 000000018000b6d0 f   Adapter.obj
 0001:0000a900       ?Sleep@CAdapter@@SAXK@Z    000000018000b900 f   Adapter.obj
 0001:0000a940       ?GetTickCount@CAdapter@@SAKXZ 000000018000b940 f   Adapter.obj
 0001:0000a970       ?get_current_time@CAdapter@@SANXZ 000000018000b970 f   Adapter.obj
 0001:0000aa10       ?Beep@CAdapter@@SAXKK@Z    000000018000ba10 f   Adapter.obj
 0001:0000aa50       ?GetLocalTime@CAdapter@@SAXPEAUSYSTEMTIME_EX@@@Z 000000018000ba50 f   Adapter.obj
 0001:0000ab20       ?GetLocalTimeEx@CAdapter@@SAXPEAUSYSTEMTIME_EX@@I@Z 000000018000bb20 f   Adapter.obj
 0001:0000ac80       ?GetLocalTimeExEx@CAdapter@@SAXPEAUSYSTEMTIME_EX@@I@Z 000000018000bc80 f   Adapter.obj
 0001:0000ade0       ?PathFileExistsA@CAdapter@@SAHPEBD@Z 000000018000bde0 f   Adapter.obj
 0001:0000ae20       ?GetCurrentPath@CAdapter@@SAXPEADH@Z 000000018000be20 f   Adapter.obj
 0001:0000af70       ?CreateDirectoryA@CAdapter@@SAHPEBDPEAU_SECURITY_ATTRIBUTES@@@Z 000000018000bf70 f   Adapter.obj
 0001:0000afb0       ?EnumDir@CAdapter@@SAXPEBDAEAV?$vector@V?$basic_string@DU?$char_traits@D@std@@V?$allocator@D@2@@std@@V?$allocator@V?$basic_string@DU?$char_traits@D@std@@V?$allocator@D@2@@std@@@2@@std@@@Z 000000018000bfb0 f   Adapter.obj
 0001:0000b180       ?EnumFile@CAdapter@@SAXPEBD0AEAV?$vector@V?$basic_string@DU?$char_traits@D@std@@V?$allocator@D@2@@std@@V?$allocator@V?$basic_string@DU?$char_traits@D@std@@V?$allocator@D@2@@std@@@2@@std@@@Z 000000018000c180 f   Adapter.obj
 0001:0000b380       ?EnumFile@CAdapter@@SAXPEBD0HAEAV?$vector@V?$basic_string@DU?$char_traits@D@std@@V?$allocator@D@2@@std@@V?$allocator@V?$basic_string@DU?$char_traits@D@std@@V?$allocator@D@2@@std@@@2@@std@@@Z 000000018000c380 f   Adapter.obj
 0001:0000b610       ?EnumDirEx@CAdapter@@SAXPEBDHAEAV?$vector@V?$basic_string@DU?$char_traits@D@std@@V?$allocator@D@2@@std@@V?$allocator@V?$basic_string@DU?$char_traits@D@std@@V?$allocator@D@2@@std@@@2@@std@@@Z 000000018000c610 f   Adapter.obj
 0001:0000b840       ?ShellDeleteFiles@CAdapter@@SAHPEBD@Z 000000018000c840 f   Adapter.obj
 0001:0000b9e0       ?StrStrIA@CAdapter@@SAPEADPEBD0@Z 000000018000c9e0 f   Adapter.obj
 0001:0000ba20       ?_InterlockedIncrement@CAdapter@@SAJPEAJ@Z 000000018000ca20 f   Adapter.obj
 0001:0000ba40       ?_InterlockedDecrement@CAdapter@@SAJPEAJ@Z 000000018000ca40 f   Adapter.obj
 0001:0000ba60       ?_InterlockedExchangeAdd@CAdapter@@SAJPEAJJ@Z 000000018000ca60 f   Adapter.obj
 0001:0000ba80       ?InterlockedCompareExchangeEx@CAdapter@@SAJPEAJJJ@Z 000000018000ca80 f   Adapter.obj
 0001:0000baa0       ?_InterlockedExchange@CAdapter@@SAJPEAJJ@Z 000000018000caa0 f   Adapter.obj
 0001:0000bac0       ?WritePrivateProfileStringA@CAdapter@@SAHPEBD000@Z 000000018000cac0 f   Adapter.obj
 0001:0000bb20       ?GetPrivateProfileIntA@CAdapter@@SAIPEBD0H0@Z 000000018000cb20 f   Adapter.obj
 0001:0000bb80       ?GetPrivateProfileStringA@CAdapter@@SAKPEBD00PEADK0@Z 000000018000cb80 f   Adapter.obj
 0001:0000bc00       ?InitSocket@CAdapter@@SAHXZ 000000018000cc00 f   Adapter.obj
 0001:0000bcd0       ?UninitSocket@CAdapter@@SAHXZ 000000018000ccd0 f   Adapter.obj
 0001:0000bd10       ?CloseSocket@CAdapter@@SAHAEA_K@Z 000000018000cd10 f   Adapter.obj
 0001:0000bd50       ?closesocket@CAdapter@@SAH_K@Z 000000018000cd50 f   Adapter.obj
 0001:0000bd90       ?WSAStartup@CAdapter@@SAHGPEAUWSAData@@@Z 000000018000cd90 f   Adapter.obj
 0001:0000bde0       ?WSACleanup@CAdapter@@SAHXZ 000000018000cde0 f   Adapter.obj
 0001:0000be20       ?strupr@CAdapter@@SAPEADPEAD@Z 000000018000ce20 f   Adapter.obj
 0001:0000bee0       ?strlow@CAdapter@@SAPEADPEAD@Z 000000018000cee0 f   Adapter.obj
 0001:0000bfa0       ?TrimRight@CAdapter@@SAXPEAD@Z 000000018000cfa0 f   Adapter.obj
 0001:0000c020       ?TrimLeft@CAdapter@@SAXPEAD@Z 000000018000d020 f   Adapter.obj
 0001:0000c080       ?ReadString@CAdapter@@SAPEADPEADHPEAU_iobuf@@@Z 000000018000d080 f   Adapter.obj
 0001:0000c1d0       ?GlobalMemoryStatus@CAdapter@@SAXPEAU_MEMORYSTATUSEX@@@Z 000000018000d1d0 f   Adapter.obj
 0001:0000c210       ?RemoveChar@CAdapter@@KAXPEADD@Z 000000018000d210 f   Adapter.obj
 0001:0000c300       ?RemoveSpace@CAdapter@@KAXPEAD@Z 000000018000d300 f   Adapter.obj
 0001:0000c540       ?ltoa_linux@CAdapter@@KAPEADJPEADH@Z 000000018000d540 f   Adapter.obj
 0001:0000c650       ?itoa_linux@CAdapter@@KAPEADHPEADH@Z 000000018000d650 f   Adapter.obj
 0001:0000c760       ?i64toa_linux@CAdapter@@KAPEAD_JPEADH@Z 000000018000d760 f   Adapter.obj
 0001:0000c850       ?ui64toa_linux@CAdapter@@KAPEAD_KPEADH@Z 000000018000d850 f   Adapter.obj
 0001:0000c940       ?strstri@@YAPEADPEBD0@Z    000000018000d940 f   Adapter.obj
 0001:0000d5f0       ??$AtlAdd@H@ATL@@YAJPEAHHH@Z 000000018000e5f0 f i Adapter.obj
 0001:0000d670       ??$AtlAdd@K@ATL@@YAJPEAKKK@Z 000000018000e670 f i Adapter.obj
 0001:0000d6f0       ??$AtlAdd@_K@ATL@@YAJPEA_K_K1@Z 000000018000e6f0 f i Adapter.obj
 0001:0000d770       ??$AtlAlignUp@H@ATL@@YAHHK@Z 000000018000e770 f i Adapter.obj
 0001:0000d7a0       ??$AtlMultiply@K@ATL@@YAJPEAKKK@Z 000000018000e7a0 f i Adapter.obj
 0001:0000d820       ??$AtlMultiply@_K@ATL@@YAJPEA_K_K1@Z 000000018000e820 f i Adapter.obj
 0001:0000d8c0       ??$_Allocate@D@std@@YAPEAD_KPEAD@Z 000000018000e8c0 f i Adapter.obj
 0001:0000d940       ??$_Allocate@U_Container_proxy@std@@@std@@YAPEAU_Container_proxy@0@_KPEAU10@@Z 000000018000e940 f i Adapter.obj
 0001:0000d9d0       ??$_Allocate@V?$basic_string@DU?$char_traits@D@std@@V?$allocator@D@2@@std@@@std@@YAPEAV?$basic_string@DU?$char_traits@D@std@@V?$allocator@D@2@@0@_KPEAV10@@Z 000000018000e9d0 f i Adapter.obj
 0001:0000da60       ??$_Debug_pointer@D@std@@YAXPEBDPEB_WI@Z 000000018000ea60 f i Adapter.obj
 0001:0000dac0       ??$_Debug_pointer@V?$basic_string@DU?$char_traits@D@std@@V?$allocator@D@2@@std@@@std@@YAXPEAV?$basic_string@DU?$char_traits@D@std@@V?$allocator@D@2@@0@PEB_WI@Z 000000018000eac0 f i Adapter.obj
 0001:0000db20       ??$_Debug_range2@PEAV?$basic_string@DU?$char_traits@D@std@@V?$allocator@D@2@@std@@@std@@YAXPEAV?$basic_string@DU?$char_traits@D@std@@V?$allocator@D@2@@0@0PEB_WIUrandom_access_iterator_tag@0@@Z 000000018000eb20 f i Adapter.obj
 0001:0000dbd0       ??$_Debug_range@PEAV?$basic_string@DU?$char_traits@D@std@@V?$allocator@D@2@@std@@@std@@YAXPEAV?$basic_string@DU?$char_traits@D@std@@V?$allocator@D@2@@0@0PEB_WI@Z 000000018000ebd0 f i Adapter.obj
 0001:0000dc50       ??$_Destroy_range@U?$_Wrap_alloc@V?$allocator@V?$basic_string@DU?$char_traits@D@std@@V?$allocator@D@2@@std@@@std@@@std@@@std@@YAXPEAV?$basic_string@DU?$char_traits@D@std@@V?$allocator@D@2@@0@0AEAU?$_Wrap_alloc@V?$allocator@V?$basic_string@DU?$char_traits@D@std@@V?$allocator@D@2@@std@@@std@@@0@@Z 000000018000ec50 f i Adapter.obj
 0001:0000dcd0       ??$_Destroy_range@U?$_Wrap_alloc@V?$allocator@V?$basic_string@DU?$char_traits@D@std@@V?$allocator@D@2@@std@@@std@@@std@@@std@@YAXPEAV?$basic_string@DU?$char_traits@D@std@@V?$allocator@D@2@@0@0AEAU?$_Wrap_alloc@V?$allocator@V?$basic_string@DU?$char_traits@D@std@@V?$allocator@D@2@@std@@@std@@@0@U_Nonscalar_ptr_iterator_tag@0@@Z 000000018000ecd0 f i Adapter.obj
 0001:0000dd50       ??$_Iter_cat@PEAV?$basic_string@DU?$char_traits@D@std@@V?$allocator@D@2@@std@@@std@@YA?AUrandom_access_iterator_tag@0@AEBQEAV?$basic_string@DU?$char_traits@D@std@@V?$allocator@D@2@@0@@Z 000000018000ed50 f i Adapter.obj
 0001:0000ddc0       ??$_Ptr_cat@V?$basic_string@DU?$char_traits@D@std@@V?$allocator@D@2@@std@@V12@@std@@YA?AU_Nonscalar_ptr_iterator_tag@0@PEAV?$basic_string@DU?$char_traits@D@std@@V?$allocator@D@2@@0@0@Z 000000018000edc0 f i Adapter.obj
 0001:0000de20       ??$_Rechecked@PEAV?$basic_string@DU?$char_traits@D@std@@V?$allocator@D@2@@std@@PEAV12@@std@@YAAEAPEAV?$basic_string@DU?$char_traits@D@std@@V?$allocator@D@2@@0@AEAPEAV10@PEAV10@@Z 000000018000ee20 f i Adapter.obj
 0001:0000de50       ??$_Umove@PEAV?$basic_string@DU?$char_traits@D@std@@V?$allocator@D@2@@std@@@?$vector@V?$basic_string@DU?$char_traits@D@std@@V?$allocator@D@2@@std@@V?$allocator@V?$basic_string@DU?$char_traits@D@std@@V?$allocator@D@2@@std@@@2@@std@@IEAAPEAV?$basic_string@DU?$char_traits@D@std@@V?$allocator@D@2@@1@PEAV21@00@Z 000000018000ee50 f i Adapter.obj
 0001:0000dee0       ??$_Unchecked@PEAV?$basic_string@DU?$char_traits@D@std@@V?$allocator@D@2@@std@@@std@@YAPEAV?$basic_string@DU?$char_traits@D@std@@V?$allocator@D@2@@0@PEAV10@@Z 000000018000eee0 f i Adapter.obj
 0001:0000def0       ??$_Uninit_move@PEAV?$basic_string@DU?$char_traits@D@std@@V?$allocator@D@2@@std@@PEAV12@U?$_Wrap_alloc@V?$allocator@V?$basic_string@DU?$char_traits@D@std@@V?$allocator@D@2@@std@@@std@@@2@@std@@YAPEAV?$basic_string@DU?$char_traits@D@std@@V?$allocator@D@2@@0@PEAV10@00AEAU?$_Wrap_alloc@V?$allocator@V?$basic_string@DU?$char_traits@D@std@@V?$allocator@D@2@@std@@@std@@@0@@Z 000000018000eef0 f i Adapter.obj
 0001:0000df90       ??$_Uninit_move@PEAV?$basic_string@DU?$char_traits@D@std@@V?$allocator@D@2@@std@@PEAV12@V?$allocator@V?$basic_string@DU?$char_traits@D@std@@V?$allocator@D@2@@std@@@2@V12@@std@@YAPEAV?$basic_string@DU?$char_traits@D@std@@V?$allocator@D@2@@0@PEAV10@00AEAU?$_Wrap_alloc@V?$allocator@V?$basic_string@DU?$char_traits@D@std@@V?$allocator@D@2@@std@@@std@@@0@0U_Nonscalar_ptr_iterator_tag@0@@Z 000000018000ef90 f i Adapter.obj
 0001:0000e080       ??$_Uninitialized_move@PEAV?$basic_string@DU?$char_traits@D@std@@V?$allocator@D@2@@std@@PEAV12@U?$_Wrap_alloc@V?$allocator@V?$basic_string@DU?$char_traits@D@std@@V?$allocator@D@2@@std@@@std@@@2@@std@@YAPEAV?$basic_string@DU?$char_traits@D@std@@V?$allocator@D@2@@0@PEAV10@00AEAU?$_Wrap_alloc@V?$allocator@V?$basic_string@DU?$char_traits@D@std@@V?$allocator@D@2@@std@@@std@@@0@@Z 000000018000f080 f i Adapter.obj
 0001:0000e130       ??$_Val_type@PEAV?$basic_string@DU?$char_traits@D@std@@V?$allocator@D@2@@std@@@std@@YAPEAV?$basic_string@DU?$char_traits@D@std@@V?$allocator@D@2@@0@PEAV10@@Z 000000018000f130 f i Adapter.obj
 0001:0000e140       ??$addressof@D@std@@YAPEADAEAD@Z 000000018000f140 f i Adapter.obj
 0001:0000e150       ??$addressof@V?$basic_string@DU?$char_traits@D@std@@V?$allocator@D@2@@std@@@std@@YAPEAV?$basic_string@DU?$char_traits@D@std@@V?$allocator@D@2@@0@AEAV10@@Z 000000018000f150 f i Adapter.obj
 0001:0000e160       ??$construct@PEADAEAPEAD@?$_Wrap_alloc@V?$allocator@D@std@@@std@@QEAAXPEAPEADAEAPEAD@Z 000000018000f160 f i Adapter.obj
 0001:0000e1c0       ??$construct@PEADAEAPEAD@?$allocator@D@std@@QEAAXPEAPEADAEAPEAD@Z 000000018000f1c0 f i Adapter.obj
 0001:0000e270       ??$construct@PEADAEAPEAD@?$allocator_traits@V?$allocator@D@std@@@std@@SAXAEAV?$allocator@D@1@PEAPEADAEAPEAD@Z 000000018000f270 f i Adapter.obj
 0001:0000e2d0       ??$construct@U_Container_proxy@std@@U12@@?$allocator@U_Container_proxy@std@@@std@@QEAAXPEAU_Container_proxy@1@$$QEAU21@@Z 000000018000f2d0 f i Adapter.obj
 0001:0000e380       ??$construct@V?$basic_string@DU?$char_traits@D@std@@V?$allocator@D@2@@std@@V12@@?$_Wrap_alloc@V?$allocator@V?$basic_string@DU?$char_traits@D@std@@V?$allocator@D@2@@std@@@std@@@std@@QEAAXPEAV?$basic_string@DU?$char_traits@D@std@@V?$allocator@D@2@@1@$$QEAV21@@Z 000000018000f380 f i Adapter.obj
 0001:0000e3e0       ??$construct@V?$basic_string@DU?$char_traits@D@std@@V?$allocator@D@2@@std@@V12@@?$allocator@V?$basic_string@DU?$char_traits@D@std@@V?$allocator@D@2@@std@@@std@@QEAAXPEAV?$basic_string@DU?$char_traits@D@std@@V?$allocator@D@2@@1@$$QEAV21@@Z 000000018000f3e0 f i Adapter.obj
 0001:0000e490       ??$construct@V?$basic_string@DU?$char_traits@D@std@@V?$allocator@D@2@@std@@V12@@?$allocator_traits@V?$allocator@V?$basic_string@DU?$char_traits@D@std@@V?$allocator@D@2@@std@@@std@@@std@@SAXAEAV?$allocator@V?$basic_string@DU?$char_traits@D@std@@V?$allocator@D@2@@std@@@1@PEAV?$basic_string@DU?$char_traits@D@std@@V?$allocator@D@2@@1@$$QEAV31@@Z 000000018000f490 f i Adapter.obj
 0001:0000e4f0       ??$destroy@PEAD@?$_Wrap_alloc@V?$allocator@D@std@@@std@@QEAAXPEAPEAD@Z 000000018000f4f0 f i Adapter.obj
 0001:0000e540       ??$destroy@PEAD@?$allocator@D@std@@QEAAXPEAPEAD@Z 000000018000f540 f i Adapter.obj
 0001:0000e550       ??$destroy@PEAD@?$allocator_traits@V?$allocator@D@std@@@std@@SAXAEAV?$allocator@D@1@PEAPEAD@Z 000000018000f550 f i Adapter.obj
 0001:0000e5a0       ??$destroy@U_Container_proxy@std@@@?$allocator@U_Container_proxy@std@@@std@@QEAAXPEAU_Container_proxy@1@@Z 000000018000f5a0 f i Adapter.obj
 0001:0000e5b0       ??$destroy@V?$basic_string@DU?$char_traits@D@std@@V?$allocator@D@2@@std@@@?$_Wrap_alloc@V?$allocator@V?$basic_string@DU?$char_traits@D@std@@V?$allocator@D@2@@std@@@std@@@std@@QEAAXPEAV?$basic_string@DU?$char_traits@D@std@@V?$allocator@D@2@@1@@Z 000000018000f5b0 f i Adapter.obj
 0001:0000e600       ??$destroy@V?$basic_string@DU?$char_traits@D@std@@V?$allocator@D@2@@std@@@?$allocator@V?$basic_string@DU?$char_traits@D@std@@V?$allocator@D@2@@std@@@std@@QEAAXPEAV?$basic_string@DU?$char_traits@D@std@@V?$allocator@D@2@@1@@Z 000000018000f600 f i Adapter.obj
 0001:0000e650       ??$destroy@V?$basic_string@DU?$char_traits@D@std@@V?$allocator@D@2@@std@@@?$allocator_traits@V?$allocator@V?$basic_string@DU?$char_traits@D@std@@V?$allocator@D@2@@std@@@std@@@std@@SAXAEAV?$allocator@V?$basic_string@DU?$char_traits@D@std@@V?$allocator@D@2@@std@@@1@PEAV?$basic_string@DU?$char_traits@D@std@@V?$allocator@D@2@@1@@Z 000000018000f650 f i Adapter.obj
 0001:0000e6a0       ??$forward@AEAPEAD@std@@YAAEAPEADAEAPEAD@Z 000000018000f6a0 f i Adapter.obj
 0001:0000e6b0       ??$forward@U_Container_proxy@std@@@std@@YA$$QEAU_Container_proxy@0@AEAU10@@Z 000000018000f6b0 f i Adapter.obj
 0001:0000e6c0       ??$forward@V?$basic_string@DU?$char_traits@D@std@@V?$allocator@D@2@@std@@@std@@YA$$QEAV?$basic_string@DU?$char_traits@D@std@@V?$allocator@D@2@@0@AEAV10@@Z 000000018000f6c0 f i Adapter.obj
 0001:0000e6d0       ??0?$CSimpleArray@GV?$CSimpleArrayEqualHelper@G@ATL@@@ATL@@QEAA@XZ 000000018000f6d0 f i Adapter.obj
 0001:0000e710       ??0?$CTraceCategoryEx@$00$0A@@ATL@@QEAA@PEBD@Z 000000018000f710 f i Adapter.obj
 0001:0000e760       ??0?$CTraceCategoryEx@$01$0A@@ATL@@QEAA@PEBD@Z 000000018000f760 f i Adapter.obj
 0001:0000e7b0       ??0?$CTraceCategoryEx@$03$0A@@ATL@@QEAA@PEBD@Z 000000018000f7b0 f i Adapter.obj
 0001:0000e800       ??0?$CTraceCategoryEx@$07$0A@@ATL@@QEAA@PEBD@Z 000000018000f800 f i Adapter.obj
 0001:0000e850       ??0?$CTraceCategoryEx@$0BA@$0A@@ATL@@QEAA@PEBD@Z 000000018000f850 f i Adapter.obj
 0001:0000e8a0       ??0?$CTraceCategoryEx@$0BAA@$0A@@ATL@@QEAA@PEBD@Z 000000018000f8a0 f i Adapter.obj
 0001:0000e8f0       ??0?$CTraceCategoryEx@$0BAAA@$0A@@ATL@@QEAA@PEBD@Z 000000018000f8f0 f i Adapter.obj
 0001:0000e940       ??0?$CTraceCategoryEx@$0BAAAA@$0A@@ATL@@QEAA@PEBD@Z 000000018000f940 f i Adapter.obj
 0001:0000e990       ??0?$CTraceCategoryEx@$0BAAAAA@$0A@@ATL@@QEAA@PEBD@Z 000000018000f990 f i Adapter.obj
 0001:0000e9e0       ??0?$CTraceCategoryEx@$0CA@$0A@@ATL@@QEAA@PEBD@Z 000000018000f9e0 f i Adapter.obj
 0001:0000ea30       ??0?$CTraceCategoryEx@$0CAA@$0A@@ATL@@QEAA@PEBD@Z 000000018000fa30 f i Adapter.obj
 0001:0000ea80       ??0?$CTraceCategoryEx@$0CAAA@$0A@@ATL@@QEAA@PEBD@Z 000000018000fa80 f i Adapter.obj
 0001:0000ead0       ??0?$CTraceCategoryEx@$0CAAAA@$0A@@ATL@@QEAA@PEBD@Z 000000018000fad0 f i Adapter.obj
 0001:0000eb20       ??0?$CTraceCategoryEx@$0CAAAAA@$0A@@ATL@@QEAA@PEBD@Z 000000018000fb20 f i Adapter.obj
 0001:0000eb70       ??0?$CTraceCategoryEx@$0EA@$0A@@ATL@@QEAA@PEBD@Z 000000018000fb70 f i Adapter.obj
 0001:0000ebc0       ??0?$CTraceCategoryEx@$0EAA@$0A@@ATL@@QEAA@PEBD@Z 000000018000fbc0 f i Adapter.obj
 0001:0000ec10       ??0?$CTraceCategoryEx@$0EAAA@$0A@@ATL@@QEAA@PEBD@Z 000000018000fc10 f i Adapter.obj
 0001:0000ec60       ??0?$CTraceCategoryEx@$0EAAAA@$0A@@ATL@@QEAA@PEBD@Z 000000018000fc60 f i Adapter.obj
 0001:0000ecb0       ??0?$CTraceCategoryEx@$0EAAAAA@$0A@@ATL@@QEAA@PEBD@Z 000000018000fcb0 f i Adapter.obj
 0001:0000ed00       ??0?$CTraceCategoryEx@$0IA@$0A@@ATL@@QEAA@PEBD@Z 000000018000fd00 f i Adapter.obj
 0001:0000ed50       ??0?$CTraceCategoryEx@$0IAA@$0A@@ATL@@QEAA@PEBD@Z 000000018000fd50 f i Adapter.obj
 0001:0000eda0       ??0?$CTraceCategoryEx@$0IAAA@$0A@@ATL@@QEAA@PEBD@Z 000000018000fda0 f i Adapter.obj
 0001:0000edf0       ??0?$CTraceCategoryEx@$0IAAAA@$0A@@ATL@@QEAA@PEBD@Z 000000018000fdf0 f i Adapter.obj
 0001:0000ee40       ??0?$_String_alloc@$0A@U?$_String_base_types@DV?$allocator@D@std@@@std@@@std@@QEAA@AEBV?$allocator@D@1@@Z 000000018000fe40 f i Adapter.obj
 0001:0000eea0       ??0?$_String_val@U?$_Simple_types@D@std@@@std@@QEAA@XZ 000000018000fea0 f i Adapter.obj
 0001:0000ef10       ??0?$_Wrap_alloc@V?$allocator@D@std@@@std@@QEAA@XZ 000000018000ff10 f i Adapter.obj
 0001:0000ef50       ??0?$_Wrap_alloc@V?$allocator@V?$basic_string@DU?$char_traits@D@std@@V?$allocator@D@2@@std@@@std@@@std@@QEAA@XZ 000000018000ff50 f i Adapter.obj
 0001:0000ef90       ??0?$allocator@D@std@@QEAA@XZ 000000018000ff90 f i Adapter.obj
 0001:0000efa0       ??0?$allocator@U_Container_proxy@std@@@std@@QEAA@XZ 000000018000ffa0 f i Adapter.obj
 0001:0000efb0       ??0?$allocator@V?$basic_string@DU?$char_traits@D@std@@V?$allocator@D@2@@std@@@std@@QEAA@XZ 000000018000ffb0 f i Adapter.obj
 0001:0000efc0       ??0?$basic_string@DU?$char_traits@D@std@@V?$allocator@D@2@@std@@QEAA@$$QEAV01@@Z 000000018000ffc0 f i Adapter.obj
 0001:0000f050       ??0?$basic_string@DU?$char_traits@D@std@@V?$allocator@D@2@@std@@QEAA@PEBD@Z 0000000180010050 f i Adapter.obj
 0001:0000f0e0       ??0CAtlComModule@ATL@@QEAA@XZ 00000001800100e0 f i Adapter.obj
 0001:0000f250       ??0CAtlStringMgr@ATL@@QEAA@PEAUIAtlMemMgr@1@@Z 0000000180010250 f i Adapter.obj
 0001:0000f2e0       ??0CAtlWinModule@ATL@@QEAA@XZ 00000001800102e0 f i Adapter.obj
 0001:0000f3b0       ??0CComCriticalSection@ATL@@QEAA@XZ 00000001800103b0 f i Adapter.obj
 0001:0000f400       ??0CNilStringData@ATL@@QEAA@XZ 0000000180010400 f i Adapter.obj
 0001:0000f480       ??0COleDateTime@ATL@@QEAA@XZ 0000000180010480 f i Adapter.obj
 0001:0000f4b0       ??0CTime@ATL@@QEAA@XZ      00000001800104b0 f i Adapter.obj
 0001:0000f4d0       ??0CTime@ATL@@QEAA@_J@Z    00000001800104d0 f i Adapter.obj
 0001:0000f500       ??0CTimeSpan@ATL@@QEAA@XZ  0000000180010500 f i Adapter.obj
 0001:0000f520       ??0CTimeSpan@ATL@@QEAA@_J@Z 0000000180010520 f i Adapter.obj
 0001:0000f550       ??0CTraceFileAndLineInfo@ATL@@QEAA@PEBDH@Z 0000000180010550 f i Adapter.obj
 0001:0000f590       ??0CWin32Heap@ATL@@QEAA@PEAX@Z 0000000180010590 f i Adapter.obj
 0001:0000f650       ??0_ATL_COM_MODULE70@ATL@@QEAA@XZ 0000000180010650 f i Adapter.obj
 0001:0000f6a0       ??0_ATL_WIN_MODULE70@ATL@@QEAA@XZ 00000001800106a0 f i Adapter.obj
 0001:0000f710       ??0_Container_proxy@std@@QEAA@XZ 0000000180010710 f i Adapter.obj
 0001:0000f740       ??0_Generic_error_category@std@@QEAA@XZ 0000000180010740 f i Adapter.obj
 0001:0000f7a0       ??0_Iostream_error_category@std@@QEAA@XZ 00000001800107a0 f i Adapter.obj
 0001:0000f800       ??0_System_error_category@std@@QEAA@XZ 0000000180010800 f i Adapter.obj
 0001:0000f860       ??0error_category@std@@QEAA@XZ 0000000180010860 f i Adapter.obj
 0001:0000f890       ??0error_condition@std@@QEAA@HAEBVerror_category@1@@Z 0000000180010890 f i Adapter.obj
 0001:0000f8d0       ??1?$CSimpleArray@GV?$CSimpleArrayEqualHelper@G@ATL@@@ATL@@QEAA@XZ 00000001800108d0 f i Adapter.obj
 0001:0000f910       ??1?$_String_alloc@$0A@U?$_String_base_types@DV?$allocator@D@std@@@std@@@std@@QEAA@XZ 0000000180010910 f i Adapter.obj
 0001:0000f960       ??1?$_String_val@U?$_Simple_types@D@std@@@std@@QEAA@XZ 0000000180010960 f i Adapter.obj
 0001:0000f9a0       ??1?$basic_string@DU?$char_traits@D@std@@V?$allocator@D@2@@std@@QEAA@XZ 00000001800109a0 f i Adapter.obj
 0001:0000f9f0       ??1CAtlComModule@ATL@@QEAA@XZ 00000001800109f0 f i Adapter.obj
 0001:0000fa50       ??1CAtlStringMgr@ATL@@UEAA@XZ 0000000180010a50 f i Adapter.obj
 0001:0000fa80       ??1CAtlWinModule@ATL@@QEAA@XZ 0000000180010a80 f i Adapter.obj
 0001:0000fae0       ??1CComCriticalSection@ATL@@QEAA@XZ 0000000180010ae0 f i Adapter.obj
 0001:0000faf0       ??1CWin32Heap@ATL@@UEAA@XZ 0000000180010af0 f i Adapter.obj
 0001:0000fbc0       ??1_ATL_COM_MODULE70@ATL@@QEAA@XZ 0000000180010bc0 f i Adapter.obj
 0001:0000fc10       ??1_ATL_WIN_MODULE70@ATL@@QEAA@XZ 0000000180010c10 f i Adapter.obj
 0001:0000fc80       ??1_Generic_error_category@std@@UEAA@XZ 0000000180010c80 f i Adapter.obj
 0001:0000fcc0       ??1_Iostream_error_category@std@@UEAA@XZ 0000000180010cc0 f i Adapter.obj
 0001:0000fd00       ??1_System_error_category@std@@UEAA@XZ 0000000180010d00 f i Adapter.obj
 0001:0000fd40       ??1error_category@std@@UEAA@XZ 0000000180010d40 f i Adapter.obj
 0001:0000fd60       ??2@YAPEAX_KPEAX@Z         0000000180010d60 f i Adapter.obj
 0001:0000fd80       ??3@YAXPEAX0@Z             0000000180010d80 f i Adapter.obj
 0001:0000fd90       ??8error_category@std@@QEBA_NAEBV01@@Z 0000000180010d90 f i Adapter.obj
 0001:0000fdf0       ??8error_condition@std@@QEBA_NAEBV01@@Z 0000000180010df0 f i Adapter.obj
 0001:0000feb0       ??A?$CSimpleArray@GV?$CSimpleArrayEqualHelper@G@ATL@@@ATL@@QEAAAEAGH@Z 0000000180010eb0 f i Adapter.obj
 0001:0000ff90       ??B?$CTraceCategoryEx@$01$0A@@ATL@@QEAAIXZ 0000000180010f90 f i Adapter.obj
 0001:0000ffa0       ??B?$CTraceCategoryEx@$0CA@$0A@@ATL@@QEAAIXZ 0000000180010fa0 f i Adapter.obj
 0001:0000ffb0       ??B?$CTraceCategoryEx@$0CAAA@$0A@@ATL@@QEAAIXZ 0000000180010fb0 f i Adapter.obj
 0001:0000ffc0       ??GCTime@ATL@@QEBA?AVCTimeSpan@1@V01@@Z 0000000180010fc0 f i Adapter.obj
 0001:00010030       ??RCTraceFileAndLineInfo@ATL@@QEBAXHIPEBDZZ 0000000180011030 f i Adapter.obj
 0001:000100e0       ??_G?$basic_string@DU?$char_traits@D@std@@V?$allocator@D@2@@std@@QEAAPEAXI@Z 00000001800110e0 f i Adapter.obj
 0001:00010140       ??_ECAtlStringMgr@ATL@@UEAAPEAXI@Z 0000000180011140 f i Adapter.obj
 0001:00010140       ??_GCAtlStringMgr@ATL@@UEAAPEAXI@Z 0000000180011140 f i Adapter.obj
 0001:000101a0       ??_ECWin32Heap@ATL@@UEAAPEAXI@Z 00000001800111a0 f i Adapter.obj
 0001:000101a0       ??_GCWin32Heap@ATL@@UEAAPEAXI@Z 00000001800111a0 f i Adapter.obj
 0001:00010200       ??_E_Generic_error_category@std@@UEAAPEAXI@Z 0000000180011200 f i Adapter.obj
 0001:00010200       ??_G_Generic_error_category@std@@UEAAPEAXI@Z 0000000180011200 f i Adapter.obj
 0001:00010260       ??_G_Iostream_error_category@std@@UEAAPEAXI@Z 0000000180011260 f i Adapter.obj
 0001:00010260       ??_E_Iostream_error_category@std@@UEAAPEAXI@Z 0000000180011260 f i Adapter.obj
 0001:000102c0       ??_E_System_error_category@std@@UEAAPEAXI@Z 00000001800112c0 f i Adapter.obj
 0001:000102c0       ??_G_System_error_category@std@@UEAAPEAXI@Z 00000001800112c0 f i Adapter.obj
 0001:00010320       ??_Gerror_category@std@@UEAAPEAXI@Z 0000000180011320 f i Adapter.obj
 0001:00010320       ??_Eerror_category@std@@UEAAPEAXI@Z 0000000180011320 f i Adapter.obj
 0001:00010380       ?AddRef@CStringData@ATL@@QEAAXXZ 0000000180011380 f i Adapter.obj
 0001:00010420       ?Allocate@CAtlStringMgr@ATL@@UEAAPEAUCStringData@2@HH@Z 0000000180011420 f i Adapter.obj
 0001:000106f0       ?Allocate@CWin32Heap@ATL@@UEAAPEAX_K@Z 00000001800116f0 f i Adapter.obj
 0001:00010740       ?AtlConvertSystemTimeToVariantTime@ATL@@YAHAEBU_SYSTEMTIME@@PEAN@Z 0000000180011740 f i Adapter.obj
 0001:000109c0       ?AtlThrowImpl@ATL@@YAXJ@Z  00000001800119c0 f i Adapter.obj
 0001:00010a70       ?AtlWinModuleInit@ATL@@YAJPEAU_ATL_WIN_MODULE70@1@@Z 0000000180011a70 f i Adapter.obj
 0001:00010bb0       ?AtlWinModuleTerm@ATL@@YAJPEAU_ATL_WIN_MODULE70@1@PEAUHINSTANCE__@@@Z 0000000180011bb0 f i Adapter.obj
 0001:00010cd0       ?Clone@CAtlStringMgr@ATL@@UEAAPEAUIAtlStringMgr@2@XZ 0000000180011cd0 f i Adapter.obj
 0001:00010ce0       ?ConvertSystemTimeToVariantTime@COleDateTime@ATL@@IEAAHAEBU_SYSTEMTIME@@@Z 0000000180011ce0 f i Adapter.obj
 0001:00010d30       ?Free@CAtlStringMgr@ATL@@UEAAXPEAUCStringData@2@@Z 0000000180011d30 f i Adapter.obj
 0001:00010e40       ?Free@CWin32Heap@ATL@@UEAAXPEAX@Z 0000000180011e40 f i Adapter.obj
 0001:00010ef0       ?GetCategoryName@CTrace@ATL@@CAPEA_WI@Z 0000000180011ef0 f i Adapter.obj
 0001:00010f90       ?GetDays@CTimeSpan@ATL@@QEBA_JXZ 0000000180011f90 f i Adapter.obj
 0001:00010fb0       ?GetInstance@CAtlStringMgr@ATL@@SAPEAUIAtlStringMgr@2@XZ 0000000180011fb0 f i Adapter.obj
 0001:00011070       ?GetModuleInstance@CAtlBaseModule@ATL@@QEAAPEAUHINSTANCE__@@XZ 0000000180012070 f i Adapter.obj
 0001:00011090       ?GetNilString@CAtlStringMgr@ATL@@UEAAPEAUCStringData@2@XZ 0000000180012090 f i Adapter.obj
 0001:000110e0       ?GetSize@?$CSimpleArray@GV?$CSimpleArrayEqualHelper@G@ATL@@@ATL@@QEBAHXZ 00000001800120e0 f i Adapter.obj
 0001:00011100       ?GetSize@CWin32Heap@ATL@@UEAA_KPEAX@Z 0000000180012100 f i Adapter.obj
 0001:00011150       ?GetTickCount@CTime@ATL@@SA?AV12@XZ 0000000180012150 f i Adapter.obj
 0001:000111a0       ?Init@CComCriticalSection@ATL@@QEAAJXZ 00000001800121a0 f i Adapter.obj
 0001:00011210       ?Reallocate@CAtlStringMgr@ATL@@UEAAPEAUCStringData@2@PEAU32@HH@Z 0000000180012210 f i Adapter.obj
 0001:00011540       ?Reallocate@CWin32Heap@ATL@@UEAAPEAXPEAX_K@Z 0000000180012540 f i Adapter.obj
 0001:000115f0       ?RegisterCategory@CTrace@ATL@@SAXPEBDI@Z 00000001800125f0 f i Adapter.obj
 0001:000117a0       ?RemoveAll@?$CSimpleArray@GV?$CSimpleArrayEqualHelper@G@ATL@@@ATL@@QEAAXXZ 00000001800127a0 f i Adapter.obj
 0001:00011850       ?SetDateTime@COleDateTime@ATL@@QEAAHHHHHHH@Z 0000000180012850 f i Adapter.obj
 0001:00011990       ?SetManager@CNilStringData@ATL@@QEAAXPEAUIAtlStringMgr@2@@Z 0000000180012990 f i Adapter.obj
 0001:00011a30       ?SetTime@COleDateTime@ATL@@QEAAHHHH@Z 0000000180012a30 f i Adapter.obj
 0001:00011ab0       ?StaticInitialize@CAtlStringMgr@ATL@@CA_NXZ 0000000180012ab0 f i Adapter.obj
 0001:00011ae0       ?Term@CAtlComModule@ATL@@QEAAXXZ 0000000180012ae0 f i Adapter.obj
 0001:00011bf0       ?Term@CAtlWinModule@ATL@@QEAAXXZ 0000000180012bf0 f i Adapter.obj
 0001:00011c40       ?Term@CComCriticalSection@ATL@@QEAAJXZ 0000000180012c40 f i Adapter.obj
 0001:00011c90       ?TraceV@CTrace@ATL@@CAXPEBDHIIPEB_W@Z 0000000180012c90 f i Adapter.obj
 0001:00011f20       ?TraceV@CTrace@ATL@@SAXPEBDHII0PEAD@Z 0000000180012f20 f i Adapter.obj
 0001:000120a0       ?_Alloc_proxy@?$_String_alloc@$0A@U?$_String_base_types@DV?$allocator@D@std@@@std@@@std@@QEAAXXZ 00000001800130a0 f i Adapter.obj
 0001:00012150       ?_Assign_rv@?$basic_string@DU?$char_traits@D@std@@V?$allocator@D@2@@std@@QEAAX$$QEAV12@@Z 0000000180013150 f i Adapter.obj
 0001:00012280       ?_AtlInitializeCriticalSectionEx@ATL@@YAHPEAU_RTL_CRITICAL_SECTION@@KK@Z 0000000180013280 f i Adapter.obj
 0001:000122d0       ?_AtlRaiseException@ATL@@YAXKK@Z 00000001800132d0 f i Adapter.obj
 0001:00012320       ?_Clrcont@_Iterator_base12@std@@QEAAXXZ 0000000180013320 f i Adapter.obj
 0001:00012340       ?_Copy@?$basic_string@DU?$char_traits@D@std@@V?$allocator@D@2@@std@@QEAAX_K0@Z 0000000180013340 f i Adapter.obj
 0001:000125e0       ?_Destroy@?$vector@V?$basic_string@DU?$char_traits@D@std@@V?$allocator@D@2@@std@@V?$allocator@V?$basic_string@DU?$char_traits@D@std@@V?$allocator@D@2@@std@@@2@@std@@IEAAXPEAV?$basic_string@DU?$char_traits@D@std@@V?$allocator@D@2@@2@0@Z 00000001800135e0 f i Adapter.obj
 0001:00012660       ?_Eos@?$basic_string@DU?$char_traits@D@std@@V?$allocator@D@2@@std@@QEAAX_K@Z 0000000180013660 f i Adapter.obj
 0001:000126d0       ?_Free_proxy@?$_String_alloc@$0A@U?$_String_base_types@DV?$allocator@D@std@@@std@@@std@@QEAAXXZ 00000001800136d0 f i Adapter.obj
 0001:00012770       ?_Getal@?$_String_alloc@$0A@U?$_String_base_types@DV?$allocator@D@std@@@std@@@std@@QEBA?AU?$_Wrap_alloc@V?$allocator@D@std@@@2@XZ 0000000180013770 f i Adapter.obj
 0001:000127c0       ?_Getal@?$_Vector_alloc@$0A@U?$_Vec_base_types@V?$basic_string@DU?$char_traits@D@std@@V?$allocator@D@2@@std@@V?$allocator@V?$basic_string@DU?$char_traits@D@std@@V?$allocator@D@2@@std@@@2@@std@@@std@@QEBA?AU?$_Wrap_alloc@V?$allocator@V?$basic_string@DU?$char_traits@D@std@@V?$allocator@D@2@@std@@@std@@@2@XZ 00000001800137c0 f i Adapter.obj
 0001:00012810       ?_Getpnext@_Iterator_base12@std@@QEAAPEAPEAU12@XZ 0000000180013810 f i Adapter.obj
 0001:00012830       ?_Grow@?$basic_string@DU?$char_traits@D@std@@V?$allocator@D@2@@std@@QEAA_N_K_N@Z 0000000180013830 f i Adapter.obj
 0001:00012970       ?_Grow_to@?$vector@V?$basic_string@DU?$char_traits@D@std@@V?$allocator@D@2@@std@@V?$allocator@V?$basic_string@DU?$char_traits@D@std@@V?$allocator@D@2@@std@@@2@@std@@IEBA_K_K@Z 0000000180013970 f i Adapter.obj
 0001:00012a60       ?_Inside@?$basic_string@DU?$char_traits@D@std@@V?$allocator@D@2@@std@@QEAA_NPEBD@Z 0000000180013a60 f i Adapter.obj
 0001:00012ae0       ?_Inside@?$vector@V?$basic_string@DU?$char_traits@D@std@@V?$allocator@D@2@@std@@V?$allocator@V?$basic_string@DU?$char_traits@D@std@@V?$allocator@D@2@@std@@@2@@std@@IEBA_NPEBV?$basic_string@DU?$char_traits@D@std@@V?$allocator@D@2@@2@@Z 0000000180013ae0 f i Adapter.obj
 0001:00012b60       ?_Myptr@?$_String_val@U?$_Simple_types@D@std@@@std@@QEAAPEADXZ 0000000180013b60 f i Adapter.obj
 0001:00012bd0       ?_Myptr@?$_String_val@U?$_Simple_types@D@std@@@std@@QEBAPEBDXZ 0000000180013bd0 f i Adapter.obj
 0001:00012c40       ?_Orphan_range@?$vector@V?$basic_string@DU?$char_traits@D@std@@V?$allocator@D@2@@std@@V?$allocator@V?$basic_string@DU?$char_traits@D@std@@V?$allocator@D@2@@std@@@2@@std@@IEBAXPEAV?$basic_string@DU?$char_traits@D@std@@V?$allocator@D@2@@2@0@Z 0000000180013c40 f i Adapter.obj
 0001:00012d60       ?_Reallocate@?$vector@V?$basic_string@DU?$char_traits@D@std@@V?$allocator@D@2@@std@@V?$allocator@V?$basic_string@DU?$char_traits@D@std@@V?$allocator@D@2@@std@@@2@@std@@IEAAX_K@Z 0000000180013d60 f i Adapter.obj
 0001:00012f00       ?_Reserve@?$vector@V?$basic_string@DU?$char_traits@D@std@@V?$allocator@D@2@@std@@V?$allocator@V?$basic_string@DU?$char_traits@D@std@@V?$allocator@D@2@@std@@@2@@std@@IEAAX_K@Z 0000000180013f00 f i Adapter.obj
 0001:00012fc0       ?_Tidy@?$basic_string@DU?$char_traits@D@std@@V?$allocator@D@2@@std@@QEAAX_N_K@Z 0000000180013fc0 f i Adapter.obj
 0001:00013100       ?_Unused_capacity@?$vector@V?$basic_string@DU?$char_traits@D@std@@V?$allocator@D@2@@std@@V?$allocator@V?$basic_string@DU?$char_traits@D@std@@V?$allocator@D@2@@std@@@2@@std@@QEBA_KXZ 0000000180014100 f i Adapter.obj
 0001:00013130       ?_Xlen@?$basic_string@DU?$char_traits@D@std@@V?$allocator@D@2@@std@@QEBAXXZ 0000000180014130 f i Adapter.obj
 0001:00013170       ?_Xlen@?$vector@V?$basic_string@DU?$char_traits@D@std@@V?$allocator@D@2@@std@@V?$allocator@V?$basic_string@DU?$char_traits@D@std@@V?$allocator@D@2@@std@@@2@@std@@IEBAXXZ 0000000180014170 f i Adapter.obj
 0001:000131b0       ?_Xran@?$basic_string@DU?$char_traits@D@std@@V?$allocator@D@2@@std@@QEBAXXZ 00000001800141b0 f i Adapter.obj
 0001:000131f0       ?allocate@?$_Wrap_alloc@V?$allocator@D@std@@@std@@QEAAPEAD_K@Z 00000001800141f0 f i Adapter.obj
 0001:00013240       ?allocate@?$_Wrap_alloc@V?$allocator@V?$basic_string@DU?$char_traits@D@std@@V?$allocator@D@2@@std@@@std@@@std@@QEAAPEAV?$basic_string@DU?$char_traits@D@std@@V?$allocator@D@2@@2@_K@Z 0000000180014240 f i Adapter.obj
 0001:00013290       ?allocate@?$allocator@D@std@@QEAAPEAD_K@Z 0000000180014290 f i Adapter.obj
 0001:000132e0       ?allocate@?$allocator@U_Container_proxy@std@@@std@@QEAAPEAU_Container_proxy@2@_K@Z 00000001800142e0 f i Adapter.obj
 0001:00013330       ?allocate@?$allocator@V?$basic_string@DU?$char_traits@D@std@@V?$allocator@D@2@@std@@@std@@QEAAPEAV?$basic_string@DU?$char_traits@D@std@@V?$allocator@D@2@@2@_K@Z 0000000180014330 f i Adapter.obj
 0001:00013380       ?assign@?$basic_string@DU?$char_traits@D@std@@V?$allocator@D@2@@std@@QEAAAEAV12@AEBV12@_K1@Z 0000000180014380 f i Adapter.obj
 0001:000134e0       ?assign@?$basic_string@DU?$char_traits@D@std@@V?$allocator@D@2@@std@@QEAAAEAV12@PEBD@Z 00000001800144e0 f i Adapter.obj
 0001:00013560       ?assign@?$basic_string@DU?$char_traits@D@std@@V?$allocator@D@2@@std@@QEAAAEAV12@PEBD_K@Z 0000000180014560 f i Adapter.obj
 0001:00013670       ?assign@?$char_traits@D@std@@SAXAEADAEBD@Z 0000000180014670 f i Adapter.obj
 0001:000136a0       ?capacity@?$vector@V?$basic_string@DU?$char_traits@D@std@@V?$allocator@D@2@@std@@V?$allocator@V?$basic_string@DU?$char_traits@D@std@@V?$allocator@D@2@@std@@@2@@std@@QEBA_KXZ 00000001800146a0 f i Adapter.obj
 0001:000136d0       ?category@error_code@std@@QEBAAEBVerror_category@2@XZ 00000001800146d0 f i Adapter.obj
 0001:000136f0       ?category@error_condition@std@@QEBAAEBVerror_category@2@XZ 00000001800146f0 f i Adapter.obj
 0001:00013710       ?copy@?$char_traits@D@std@@SAPEADPEADPEBD_K@Z 0000000180014710 f i Adapter.obj
 0001:00013790       ?deallocate@?$_Wrap_alloc@V?$allocator@D@std@@@std@@QEAAXPEAD_K@Z 0000000180014790 f i Adapter.obj
 0001:000137f0       ?deallocate@?$_Wrap_alloc@V?$allocator@V?$basic_string@DU?$char_traits@D@std@@V?$allocator@D@2@@std@@@std@@@std@@QEAAXPEAV?$basic_string@DU?$char_traits@D@std@@V?$allocator@D@2@@2@_K@Z 00000001800147f0 f i Adapter.obj
 0001:00013850       ?deallocate@?$allocator@D@std@@QEAAXPEAD_K@Z 0000000180014850 f i Adapter.obj
 0001:000138a0       ?deallocate@?$allocator@U_Container_proxy@std@@@std@@QEAAXPEAU_Container_proxy@2@_K@Z 00000001800148a0 f i Adapter.obj
 0001:000138f0       ?deallocate@?$allocator@V?$basic_string@DU?$char_traits@D@std@@V?$allocator@D@2@@std@@@std@@QEAAXPEAV?$basic_string@DU?$char_traits@D@std@@V?$allocator@D@2@@2@_K@Z 00000001800148f0 f i Adapter.obj
 0001:00013940       ?default_error_condition@_System_error_category@std@@UEBA?AVerror_condition@2@H@Z 0000000180014940 f i Adapter.obj
 0001:000139e0       ?default_error_condition@error_category@std@@UEBA?AVerror_condition@2@H@Z 00000001800149e0 f i Adapter.obj
 0001:00013a40       ?equivalent@error_category@std@@UEBA_NAEBVerror_code@2@H@Z 0000000180014a40 f i Adapter.obj
 0001:00013ad0       ?equivalent@error_category@std@@UEBA_NHAEBVerror_condition@2@@Z 0000000180014ad0 f i Adapter.obj
 0001:00013b40       ?erase@?$basic_string@DU?$char_traits@D@std@@V?$allocator@D@2@@std@@QEAAAEAV12@_K0@Z 0000000180014b40 f i Adapter.obj
 0001:00013c60       ?erase@?$basic_string@DU?$char_traits@D@std@@V?$allocator@D@2@@std@@QEAAAEAV12@_K@Z 0000000180014c60 f i Adapter.obj
 0001:00013cd0       ?find@?$char_traits@D@std@@SAPEBDPEBD_KAEBD@Z 0000000180014cd0 f i Adapter.obj
 0001:00013d50       ?find_last_of@?$basic_string@DU?$char_traits@D@std@@V?$allocator@D@2@@std@@QEBA_KPEBD_K1@Z 0000000180014d50 f i Adapter.obj
 0001:00013ea0       ?find_last_of@?$basic_string@DU?$char_traits@D@std@@V?$allocator@D@2@@std@@QEBA_KPEBD_K@Z 0000000180014ea0 f i Adapter.obj
 0001:00013f20       ?generic_category@std@@YAAEBVerror_category@1@XZ 0000000180014f20 f i Adapter.obj
 0001:00013f30       ?length@?$char_traits@D@std@@SA_KPEBD@Z 0000000180014f30 f i Adapter.obj
 0001:00013fa0       ?max_size@?$_Wrap_alloc@V?$allocator@D@std@@@std@@QEBA_KXZ 0000000180014fa0 f i Adapter.obj
 0001:00013fe0       ?max_size@?$_Wrap_alloc@V?$allocator@V?$basic_string@DU?$char_traits@D@std@@V?$allocator@D@2@@std@@@std@@@std@@QEBA_KXZ 0000000180014fe0 f i Adapter.obj
 0001:00014020       ?max_size@?$allocator@D@std@@QEBA_KXZ 0000000180015020 f i Adapter.obj
 0001:00014040       ?max_size@?$allocator@V?$basic_string@DU?$char_traits@D@std@@V?$allocator@D@2@@std@@@std@@QEBA_KXZ 0000000180015040 f i Adapter.obj
 0001:00014060       ?max_size@?$allocator_traits@V?$allocator@D@std@@@std@@SA_KAEBV?$allocator@D@2@@Z 0000000180015060 f i Adapter.obj
 0001:000140a0       ?max_size@?$allocator_traits@V?$allocator@V?$basic_string@DU?$char_traits@D@std@@V?$allocator@D@2@@std@@@std@@@std@@SA_KAEBV?$allocator@V?$basic_string@DU?$char_traits@D@std@@V?$allocator@D@2@@std@@@2@@Z 00000001800150a0 f i Adapter.obj
 0001:000140e0       ?max_size@?$basic_string@DU?$char_traits@D@std@@V?$allocator@D@2@@std@@QEBA_KXZ 00000001800150e0 f i Adapter.obj
 0001:00014160       ?max_size@?$vector@V?$basic_string@DU?$char_traits@D@std@@V?$allocator@D@2@@std@@V?$allocator@V?$basic_string@DU?$char_traits@D@std@@V?$allocator@D@2@@std@@@2@@std@@QEBA_KXZ 0000000180015160 f i Adapter.obj
 0001:000141b0       ?message@_Generic_error_category@std@@UEBA?AV?$basic_string@DU?$char_traits@D@std@@V?$allocator@D@2@@2@H@Z 00000001800151b0 f i Adapter.obj
 0001:00014260       ?message@_Iostream_error_category@std@@UEBA?AV?$basic_string@DU?$char_traits@D@std@@V?$allocator@D@2@@2@H@Z 0000000180015260 f i Adapter.obj
 0001:00014310       ?message@_System_error_category@std@@UEBA?AV?$basic_string@DU?$char_traits@D@std@@V?$allocator@D@2@@2@H@Z 0000000180015310 f i Adapter.obj
 0001:000143c0       ?move@?$char_traits@D@std@@SAPEADPEADPEBD_K@Z 00000001800153c0 f i Adapter.obj
 0001:00014440       ?name@_Generic_error_category@std@@UEBAPEBDXZ 0000000180015440 f i Adapter.obj
 0001:00014460       ?name@_Iostream_error_category@std@@UEBAPEBDXZ 0000000180015460 f i Adapter.obj
 0001:00014480       ?name@_System_error_category@std@@UEBAPEBDXZ 0000000180015480 f i Adapter.obj
 0001:000144a0       ?push_back@?$vector@V?$basic_string@DU?$char_traits@D@std@@V?$allocator@D@2@@std@@V?$allocator@V?$basic_string@DU?$char_traits@D@std@@V?$allocator@D@2@@std@@@2@@std@@QEAAX$$QEAV?$basic_string@DU?$char_traits@D@std@@V?$allocator@D@2@@2@@Z 00000001800154a0 f i Adapter.obj
 0001:000146a0       ?size@?$basic_string@DU?$char_traits@D@std@@V?$allocator@D@2@@std@@QEBA_KXZ 00000001800156a0 f i Adapter.obj
 0001:000146c0       ?size@?$vector@V?$basic_string@DU?$char_traits@D@std@@V?$allocator@D@2@@std@@V?$allocator@V?$basic_string@DU?$char_traits@D@std@@V?$allocator@D@2@@std@@@2@@std@@QEBA_KXZ 00000001800156c0 f i Adapter.obj
 0001:000146f0       ?system_category@std@@YAAEBVerror_category@1@XZ 00000001800156f0 f i Adapter.obj
 0001:00014700       ?value@error_code@std@@QEBAHXZ 0000000180015700 f i Adapter.obj
 0001:00014720       ?value@error_condition@std@@QEBAHXZ 0000000180015720 f i Adapter.obj
 0001:00014740       HRESULT_FROM_WIN32         0000000180015740 f i Adapter.obj
 0001:000147a0       hypot                      00000001800157a0 f i Adapter.obj
 0001:000147f0       ??0CCompatibleEvent@@QEAA@XZ 00000001800157f0 f   CompatibleEvent.obj
 0001:00014820       ??1CCompatibleEvent@@QEAA@XZ 0000000180015820 f   CompatibleEvent.obj
 0001:00014860       ??4CCompatibleEvent@@QEAAAEAV0@AEAV0@@Z 0000000180015860 f   CompatibleEvent.obj
 0001:000148d0       ?UnInit@CCompatibleEvent@@AEAAXXZ 00000001800158d0 f   CompatibleEvent.obj
 0001:00014920       ?Init@CCompatibleEvent@@AEAA_N_N@Z 0000000180015920 f   CompatibleEvent.obj
 0001:000149b0       ?SetCompatibleEvent@CCompatibleEvent@@AEAAXXZ 00000001800159b0 f   CompatibleEvent.obj
 0001:00014a00       ?IsSignaled@CCompatibleEvent@@AEAA_NXZ 0000000180015a00 f   CompatibleEvent.obj
 0001:00014a10       ?GetEvent@CCompatibleEvent@@AEAAAEAPEAXXZ 0000000180015a10 f   CompatibleEvent.obj
 0001:00014a30       ?ResetSignalCnt@CCompatibleEvent@@AEAAXXZ 0000000180015a30 f   CompatibleEvent.obj
 0001:00014a80       ?IsManualReset@CCompatibleEvent@@AEBA_NXZ 0000000180015a80 f   CompatibleEvent.obj
 0001:00014aa0       ?SetMEvent@CCompatibleEvent@@AEAAXPEAV1@I@Z 0000000180015aa0 f   CompatibleEvent.obj
 0001:00014ac0       ?GetMEvent@CCompatibleEvent@@AEAAPEAUMEvent@@XZ 0000000180015ac0 f   CompatibleEvent.obj
 0001:00014b80       ??0CCompatibleThread@@QEAA@XZ 0000000180015b80 f   CompatibleThread.obj
 0001:00014ba0       ??1CCompatibleThread@@QEAA@XZ 0000000180015ba0 f   CompatibleThread.obj
 0001:00014bb0       ?CreateThread@CCompatibleThread@@CAHP6AIPEAX@Z0@Z 0000000180015bb0 f   CompatibleThread.obj
 0001:00014c50       ?CreateThread@CCompatibleThread@@CAHP6AIPEAX@Z0I@Z 0000000180015c50 f   CompatibleThread.obj
 0001:00014d40       ??0DerivedLock@@QEAA@XZ    0000000180015d40 f   DerivedLock.obj
 0001:00014da0       ??1DerivedLock@@UEAA@XZ    0000000180015da0 f   DerivedLock.obj
 0001:00014e00       ?Lock@DerivedLock@@UEAAXXZ 0000000180015e00 f   DerivedLock.obj
 0001:00014e40       ?UnLock@DerivedLock@@UEAAXXZ 0000000180015e40 f   DerivedLock.obj
 0001:00014e80       ?Destroy@DerivedLock@@UEAAXXZ 0000000180015e80 f   DerivedLock.obj
 0001:00014f20       ??_EDerivedLock@@UEAAPEAXI@Z 0000000180015f20 f i DerivedLock.obj
 0001:00014f20       ??_GDerivedLock@@UEAAPEAXI@Z 0000000180015f20 f i DerivedLock.obj
 0001:00014f80       ?GetGlobalKey@@YAHXZ       0000000180015f80 f   DoubleListEx.obj
 0001:00015040       ??0_Ignore@std@@QEAA@XZ    0000000180016040 f i DoubleListEx.obj
 0001:00015110       ?MIN2@@YAHHH@Z             0000000180016110 f   Global.obj
 0001:00015160       ?FORMATI64D@@YA?AV?$basic_string@DU?$char_traits@D@std@@V?$allocator@D@2@@std@@PEBD@Z 0000000180016160 f   Global.obj
 0001:00015240       ??0CSpeedLimit@@QEAA@XZ    0000000180016240 f   Global.obj
 0001:000152b0       ??1CSpeedLimit@@UEAA@XZ    00000001800162b0 f   Global.obj
 0001:000152d0       ?LimitSpeed@CSpeedLimit@@QEAAHH@Z 00000001800162d0 f   Global.obj
 0001:000154b0       ?SetMaxSpeed@CSpeedLimit@@QEAAXH@Z 00000001800164b0 f   Global.obj
 0001:000154f0       ?GetMaxSpeed@CSpeedLimit@@QEAAHXZ 00000001800164f0 f   Global.obj
 0001:00015510       ??0CGlobal@@QEAA@XZ        0000000180016510 f   Global.obj
 0001:00015530       ?GetSubStr@CGlobal@@SA?AV?$basic_string@DU?$char_traits@D@std@@V?$allocator@D@2@@std@@PEBDH@Z 0000000180016530 f   Global.obj
 0001:00015870       ?GetSubStrFirst@CGlobal@@SA?AV?$basic_string@DU?$char_traits@D@std@@V?$allocator@D@2@@std@@PEBD@Z 0000000180016870 f   Global.obj
 0001:00015a10       ?CharToASCII@CGlobal@@SAHPEBDHPEADH@Z 0000000180016a10 f   Global.obj
 0001:00015b60       ?CharToASCIIEx@CGlobal@@SAHPEBDHPEAD@Z 0000000180016b60 f   Global.obj
 0001:00015c40       ?US2ToAscii@CGlobal@@SAHPEBDHPEADPEAH@Z 0000000180016c40 f   Global.obj
 0001:00015e40       ?AsciiToUS2@CGlobal@@SAHPEBDPEAEPEAI@Z 0000000180016e40 f   Global.obj
 0001:00016050       ?TranHttpSpace@CGlobal@@SAHPEAD@Z 0000000180017050 f   Global.obj
 0001:000163f0       ?CalcMsgNum@CGlobal@@SAHHHHHPEBD_N@Z 00000001800173f0 f   Global.obj
 0001:00016510       ?SplitMsgEx@CGlobal@@SAHPEBEPEADHHHHHH_NH@Z 0000000180017510 f   Global.obj
 0001:00016740       ?SplitMsg@CGlobal@@SAHPEBDHPEAD1@Z 0000000180017740 f   Global.obj
 0001:00016a10       ?GeneranteSeqID@CGlobal@@SAHXZ 0000000180017a10 f   Global.obj
 0001:00016a40       ?TranMsgIdI64ToChar@CGlobal@@SAXPEAE_J@Z 0000000180017a40 f   Global.obj
 0001:00016b70       ?MakeMsgId@CGlobal@@SAXPEAEPEAD@Z 0000000180017b70 f   Global.obj
 0001:00016fe0       ?MakeMsgId@CGlobal@@SAXPEAEII@Z 0000000180017fe0 f   Global.obj
 0001:00017330       ?MakeSgipMsgId@CGlobal@@SAXPEAEIII@Z 0000000180018330 f   Global.obj
 0001:000176a0       ?UnMakeSgipMsgId@CGlobal@@SAXPEBEPEAI11@Z 00000001800186a0 f   Global.obj
 0001:00017930       ?TranMsgId@CGlobal@@SAHPEAEPEAD@Z 0000000180018930 f   Global.obj
 0001:00017bb0       ?GetTimeInMsgId@CGlobal@@SAXPEADPEBE@Z 0000000180018bb0 f   Global.obj
 0001:00017d40       ?GetTimeInMsgId@CGlobal@@SA_JPEBE@Z 0000000180018d40 f   Global.obj
 0001:00017fa0       ?GetTimeInMsgId@CGlobal@@SA_J_J@Z 0000000180018fa0 f   Global.obj
 0001:00018030       ?GetTimeInMsgId@CGlobal@@SA_JPEBE_J@Z 0000000180019030 f   Global.obj
 0001:00018170       ?GetRptDayFromMsgId@CGlobal@@SAHPEBE@Z 0000000180019170 f   Global.obj
 0001:000184b0       ?IsMsgIdInToday@CGlobal@@SA_NPEBE@Z 00000001800194b0 f   Global.obj
 0001:000185c0       ?IsTodayMtRpt@CGlobal@@SA_NPEBE_J@Z 00000001800195c0 f   Global.obj
 0001:000186c0       ?IsSuccessRpt@CGlobal@@SA_NPEBD@Z 00000001800196c0 f   Global.obj
 0001:00018740       ?IsInnerErrRpt@CGlobal@@SA_NPEBD@Z 0000000180019740 f   Global.obj
 0001:00018800       ?IsTimeOutRpt@CGlobal@@SA_NPEBEE@Z 0000000180019800 f   Global.obj
 0001:00018890       ?UnMakeMsgId@CGlobal@@QEAAXPEADPEBE@Z 0000000180019890 f   Global.obj
 0001:00018b50       ?TranMsgIdCharToI64@CGlobal@@SA_JPEBE@Z 0000000180019b50 f   Global.obj
 0001:00018c80       ?GetI64MsgIdAt@CGlobal@@SA_J_JH@Z 0000000180019c80 f   Global.obj
 0001:00018cd0       ?Base64Encode@CGlobal@@SAHPEAEK0@Z 0000000180019cd0 f   Global.obj
 0001:00018eb0       ?Base64Decode@CGlobal@@SAHPEAEK0@Z 0000000180019eb0 f   Global.obj
 0001:000190a0       ?DateToTimeStr@CGlobal@@SA?AV?$basic_string@DU?$char_traits@D@std@@V?$allocator@D@2@@std@@N@Z 000000018001a0a0 f   Global.obj
 0001:000191d0       ?GetCmdValue@CGlobal@@SAHPEAD0H0_N@Z 000000018001a1d0 f   Global.obj
 0001:00019610       ?GetCmdValueEx@CGlobal@@SAHPEAD0H0_N@Z 000000018001a610 f   Global.obj
 0001:00019970       ?ParaseJavaEncode@CGlobal@@SAXPEAD0AEAH@Z 000000018001a970 f   Global.obj
 0001:00019d00       ?DecodeHtmlStr@CGlobal@@SAXPEAD0AEAH@Z 000000018001ad00 f   Global.obj
 0001:00019f20       ?SplitStr@CGlobal@@SAHPEBDAEAV?$vector@V?$basic_string@DU?$char_traits@D@std@@V?$allocator@D@2@@std@@V?$allocator@V?$basic_string@DU?$char_traits@D@std@@V?$allocator@D@2@@std@@@2@@std@@H@Z 000000018001af20 f   Global.obj
 0001:0001a310       ?CheckMsgValidity@CGlobal@@SAHHHAEAGPEAD_N2@Z 000000018001b310 f   Global.obj
 0001:0001a940       ?TrimGarbledCharacter@CGlobal@@SAHPEADHH@Z 000000018001b940 f   Global.obj
 0001:0001aa70       ?TrimRight@CGlobal@@SAIPEADID@Z 000000018001ba70 f   Global.obj
 0001:0001aae0       ?TrimRight@CGlobal@@SAIPEADI@Z 000000018001bae0 f   Global.obj
 0001:0001ab60       ?CalcMsgLen@CGlobal@@SAHHHPEBD@Z 000000018001bb60 f   Global.obj
 0001:0001ad10       ?GetIpFromUrl@CGlobal@@SAHPEBDPEAD11AEAH@Z 000000018001bd10 f   Global.obj
 0001:0001aff0       ?InitSocket@CGlobal@@SAHXZ 000000018001bff0 f   Global.obj
 0001:0001b0c0       ?UnInitSocket@CGlobal@@SAHXZ 000000018001c0c0 f   Global.obj
 0001:0001b0f0       ?HexchartoInt@CGlobal@@SAHD@Z 000000018001c0f0 f   Global.obj
 0001:0001b1e0       ?TransMsg@CGlobal@@SAHPEADPEBDHHH@Z 000000018001c1e0 f   Global.obj
 0001:0001b310       ?StrTimeToLong@CGlobal@@SAJPEBD@Z 000000018001c310 f   Global.obj
 0001:0001b3c0       ?MemBytesToHexStr@CGlobal@@SAHPEBEHPEAD@Z 000000018001c3c0 f   Global.obj
 0001:0001b4a0       ?HexStrToMemBytes@CGlobal@@SAHPEAEPEBDHH@Z 000000018001c4a0 f   Global.obj
 0001:0001b5a0       ?ReplaceChar@CGlobal@@SAXPEAEDDI@Z 000000018001c5a0 f   Global.obj
 0001:0001b630       ?ReplaceChar@CGlobal@@SAXPEAEDPEADI@Z 000000018001c630 f   Global.obj
 0001:0001b770       ?GetUserPrivilege@CGlobal@@SAHHH@Z 000000018001c770 f   Global.obj
 0001:0001b7e0       ?SetBitValue@CGlobal@@SAXAEAHH_N@Z 000000018001c7e0 f   Global.obj
 0001:0001b840       ?SetBit@CGlobal@@SAXAEAHH@Z 000000018001c840 f   Global.obj
 0001:0001b8a0       ?SetInt64Bit@CGlobal@@SAXAEA_JH@Z 000000018001c8a0 f   Global.obj
 0001:0001b900       ?GetInt64Bit@CGlobal@@SA_N_JH@Z 000000018001c900 f   Global.obj
 0001:0001b930       ?ClrBit@CGlobal@@SAXAEAHH@Z 000000018001c930 f   Global.obj
 0001:0001b990       ?GetBit@CGlobal@@SA_NHH@Z  000000018001c990 f   Global.obj
 0001:0001b9c0       ?IsZHCN@CGlobal@@SA_NPEBD@Z 000000018001c9c0 f   Global.obj
 0001:0001ba20       ?BeepEx@CGlobal@@SAXKK@Z   000000018001ca20 f   Global.obj
 0001:0001bb60       ?MakeSysTmValid@CGlobal@@SAXPEBDPEAD@Z 000000018001cb60 f   Global.obj
 0001:0001bdc0       ?MakeMsgValid@CGlobal@@SAXPEBDPEADHHH_N2@Z 000000018001cdc0 f   Global.obj
 0001:0001c080       ?PhoneListToDestId@CGlobal@@SAXPEADPEBDII@Z 000000018001d080 f   Global.obj
 0001:0001c160       ?IsAllDigital@CGlobal@@SA_NPEBD@Z 000000018001d160 f   Global.obj
 0001:0001c1e0       ?IsAllAlpNum@CGlobal@@SA_NPEBD@Z 000000018001d1e0 f   Global.obj
 0001:0001c270       ?IsUnKnownCode@CGlobal@@SA_NH@Z 000000018001d270 f   Global.obj
 0001:0001c2d0       ?GenMtExParam@CGlobal@@SAHPEBD00PEAD@Z 000000018001d2d0 f   Global.obj
 0001:0001c490       ?CheckMtExParam@CGlobal@@SA_NPEBD00H@Z 000000018001d490 f   Global.obj
 0001:0001c680       ?GetValidTime@CGlobal@@SAHPEBD0PEAD@Z 000000018001d680 f   Global.obj
 0001:0001cc30       ?IsInSpan@CGlobal@@SA_NNNN@Z 000000018001dc30 f   Global.obj
 0001:0001cd00       ?Delay@CGlobal@@SAXH@Z     000000018001dd00 f   Global.obj
 0001:0001cd70       ?GenernateMsgIDEx@CGlobal@@AEAAXPEAEH@Z 000000018001dd70 f   Global.obj
 0001:0001d9f0       ?BinStr2Num@CGlobal@@AEAAHPEAD@Z 000000018001e9f0 f   Global.obj
 0001:0001da70       ?GetMsgId@CGlobal@@CAHH@Z  000000018001ea70 f   Global.obj
 0001:0001db30       ?GetMsgId@CGlobal@@CAHHAEA_N@Z 000000018001eb30 f   Global.obj
 0001:0001fee0       ??0?$_Iterator012@Urandom_access_iterator_tag@std@@D_JPEBDAEBDU_Iterator_base12@2@@std@@QEAA@AEBU01@@Z 0000000180020ee0 f i Global.obj
 0001:0001ff30       ??0?$_Iterator012@Urandom_access_iterator_tag@std@@D_JPEBDAEBDU_Iterator_base12@2@@std@@QEAA@XZ 0000000180020f30 f i Global.obj
 0001:0001ff70       ??0?$_String_const_iterator@V?$_String_val@U?$_Simple_types@D@std@@@std@@@std@@QEAA@AEBV01@@Z 0000000180020f70 f i Global.obj
 0001:0001ffe0       ??0?$_String_const_iterator@V?$_String_val@U?$_Simple_types@D@std@@@std@@@std@@QEAA@PEBDPEBU_Container_base12@1@@Z 0000000180020fe0 f i Global.obj
 0001:00020060       ??0?$_String_iterator@V?$_String_val@U?$_Simple_types@D@std@@@std@@@std@@QEAA@AEBV01@@Z 0000000180021060 f i Global.obj
 0001:000200b0       ??0?$_String_iterator@V?$_String_val@U?$_Simple_types@D@std@@@std@@@std@@QEAA@PEADPEBU_Container_base12@1@@Z 00000001800210b0 f i Global.obj
 0001:00020110       ??0?$basic_string@DU?$char_traits@D@std@@V?$allocator@D@2@@std@@QEAA@XZ 0000000180021110 f i Global.obj
 0001:00020180       ??0COleDateTime@ATL@@QEAA@N@Z 0000000180021180 f i Global.obj
 0001:000201c0       ??0SYSTEMTIME_EX@@QEAA@XZ  00000001800211c0 f i Global.obj
 0001:00020210       ??0Systime_Bigint@@QEAA@XZ 0000000180021210 f i Global.obj
 0001:000202d0       ??0Systime_Bigint@@QEAA@_J@Z 00000001800212d0 f i Global.obj
 0001:000203c0       ??0_Iterator_base12@std@@QEAA@AEBU01@@Z 00000001800213c0 f i Global.obj
 0001:00020430       ??0_Iterator_base12@std@@QEAA@XZ 0000000180021430 f i Global.obj
 0001:00020460       ??1?$_Iterator012@Urandom_access_iterator_tag@std@@D_JPEBDAEBDU_Iterator_base12@2@@std@@QEAA@XZ 0000000180021460 f i Global.obj
 0001:000204a0       ??1?$_String_const_iterator@V?$_String_val@U?$_Simple_types@D@std@@@std@@@std@@QEAA@XZ 00000001800214a0 f i Global.obj
 0001:000204e0       ??1?$_String_iterator@V?$_String_val@U?$_Simple_types@D@std@@@std@@@std@@QEAA@XZ 00000001800214e0 f i Global.obj
 0001:00020520       ??1_Iterator_base12@std@@QEAA@XZ 0000000180021520 f i Global.obj
 0001:00020590       ??4?$basic_string@DU?$char_traits@D@std@@V?$allocator@D@2@@std@@QEAAAEAV01@PEBD@Z 0000000180021590 f i Global.obj
 0001:000205e0       ??4_Iterator_base12@std@@QEAAAEAU01@AEBU01@@Z 00000001800215e0 f i Global.obj
 0001:000206c0       ??G?$_String_const_iterator@V?$_String_val@U?$_Simple_types@D@std@@@std@@@std@@QEBA_JAEBV01@@Z 00000001800216c0 f i Global.obj
 0001:00020720       ??H?$_String_iterator@V?$_String_val@U?$_Simple_types@D@std@@@std@@@std@@QEBA?AV01@_J@Z 0000000180021720 f i Global.obj
 0001:000207e0       ??Y?$_String_const_iterator@V?$_String_val@U?$_Simple_types@D@std@@@std@@@std@@QEAAAEAV01@_J@Z 00000001800217e0 f i Global.obj
 0001:000209a0       ??Y?$_String_iterator@V?$_String_val@U?$_Simple_types@D@std@@@std@@@std@@QEAAAEAV01@_J@Z 00000001800219a0 f i Global.obj
 0001:000209f0       ??_GCSpeedLimit@@UEAAPEAXI@Z 00000001800219f0 f i Global.obj
 0001:000209f0       ??_ECSpeedLimit@@UEAAPEAXI@Z 00000001800219f0 f i Global.obj
 0001:00020a50       ?FormatBigintToSystime@Systime_Bigint@@QEAAXPEAUSYSTEMTIME_EX@@@Z 0000000180021a50 f i Global.obj
 0001:00020aa0       ?FormatBigintToSystime@Systime_Bigint@@QEAAX_JPEAUSYSTEMTIME_EX@@@Z 0000000180021aa0 f i Global.obj
 0001:00020cb0       ?FormatSystimeToBigint@Systime_Bigint@@QEAA_JUSYSTEMTIME_EX@@@Z 0000000180021cb0 f i Global.obj
 0001:00020e70       ?GetAsSystemTime@COleDateTime@ATL@@QEBA_NAEAU_SYSTEMTIME@@@Z 0000000180021e70 f i Global.obj
 0001:00020ef0       ?GetHour@COleDateTime@ATL@@QEBAHXZ 0000000180021ef0 f i Global.obj
 0001:00020fb0       ?GetMinute@COleDateTime@ATL@@QEBAHXZ 0000000180021fb0 f i Global.obj
 0001:00021070       ?GetSecond@COleDateTime@ATL@@QEBAHXZ 0000000180022070 f i Global.obj
 0001:00021130       ?GetStatus@COleDateTime@ATL@@QEBA?AW4DateTimeStatus@12@XZ 0000000180022130 f i Global.obj
 0001:00021150       ?MakeTimeValid@Systime_Bigint@@QEAAXPEAUSYSTEMTIME_EX@@@Z 0000000180022150 f i Global.obj
 0001:000212b0       ?_Adopt@_Iterator_base12@std@@QEAAXPEBU_Container_base12@2@@Z 00000001800222b0 f i Global.obj
 0001:000213d0       ?_Chassign@?$basic_string@DU?$char_traits@D@std@@V?$allocator@D@2@@std@@QEAAX_K0D@Z 00000001800223d0 f i Global.obj
 0001:00021470       ?_Compat@?$_String_const_iterator@V?$_String_val@U?$_Simple_types@D@std@@@std@@@std@@QEBAXAEBV12@@Z 0000000180022470 f i Global.obj
 0001:000215a0       ?_Getcont@_Iterator_base12@std@@QEBAPEBU_Container_base12@2@XZ 00000001800225a0 f i Global.obj
 0001:00021600       ?_Orphan_me@_Iterator_base12@std@@QEAAXXZ 0000000180022600 f i Global.obj
 0001:000216e0       ?_Pdif@?$basic_string@DU?$char_traits@D@std@@V?$allocator@D@2@@std@@SA_KV?$_String_const_iterator@V?$_String_val@U?$_Simple_types@D@std@@@std@@@2@0@Z 00000001800226e0 f i Global.obj
 0001:00021790       ?assign@?$char_traits@D@std@@SAPEADPEAD_KD@Z 0000000180022790 f i Global.obj
 0001:000217f0       ?begin@?$basic_string@DU?$char_traits@D@std@@V?$allocator@D@2@@std@@QEAA?AV?$_String_iterator@V?$_String_val@U?$_Simple_types@D@std@@@std@@@2@XZ 00000001800227f0 f i Global.obj
 0001:00021850       ?c_str@?$basic_string@DU?$char_traits@D@std@@V?$allocator@D@2@@std@@QEBAPEBDXZ 0000000180022850 f i Global.obj
 0001:00021890       ?compare@?$char_traits@D@std@@SAHPEBD0_K@Z 0000000180022890 f i Global.obj
 0001:00021910       ?find@?$basic_string@DU?$char_traits@D@std@@V?$allocator@D@2@@std@@QEBA_KPEBD_K1@Z 0000000180022910 f i Global.obj
 0001:00021ae0       ?find@?$basic_string@DU?$char_traits@D@std@@V?$allocator@D@2@@std@@QEBA_KPEBD_K@Z 0000000180022ae0 f i Global.obj
 0001:00021b60       ?insert@?$basic_string@DU?$char_traits@D@std@@V?$allocator@D@2@@std@@QEAA?AV?$_String_iterator@V?$_String_val@U?$_Simple_types@D@std@@@std@@@2@V?$_String_const_iterator@V?$_String_val@U?$_Simple_types@D@std@@@std@@@2@D@Z 0000000180022b60 f i Global.obj
 0001:00021d60       ?insert@?$basic_string@DU?$char_traits@D@std@@V?$allocator@D@2@@std@@QEAAAEAV12@_K0D@Z 0000000180022d60 f i Global.obj
 0001:00021ee0       ?replace@?$basic_string@DU?$char_traits@D@std@@V?$allocator@D@2@@std@@QEAAAEAV12@_K0AEBV12@00@Z 0000000180022ee0 f i Global.obj
 0001:00022630       ?replace@?$basic_string@DU?$char_traits@D@std@@V?$allocator@D@2@@std@@QEAAAEAV12@_K0PEBD0@Z 0000000180023630 f i Global.obj
 0001:00022950       ?replace@?$basic_string@DU?$char_traits@D@std@@V?$allocator@D@2@@std@@QEAAAEAV12@_K0PEBD@Z 0000000180023950 f i Global.obj
 0001:000229e0       ?replace@cstr@@SAXAEAV?$basic_string@DU?$char_traits@D@std@@V?$allocator@D@2@@std@@PEBD1@Z 00000001800239e0 f i Global.obj
 0001:00022b50       ?strstr@@YAPEADPEADPEBD@Z  0000000180023b50 f i Global.obj
 0001:00022be0       ??0CIocpKeyIoMgr@@QEAA@XZ  0000000180023be0 f   IocpKeyIoMgr.obj
 0001:00022cd0       ??1CIocpKeyIoMgr@@UEAA@XZ  0000000180023cd0 f   IocpKeyIoMgr.obj
 0001:00022db0       ?InitKey@CIocpKeyIoMgr@@AEAAXH@Z 0000000180023db0 f   IocpKeyIoMgr.obj
 0001:00022f10       ?RemoveIdleKeyItems@CIocpKeyIoMgr@@AEAAXXZ 0000000180023f10 f   IocpKeyIoMgr.obj
 0001:000230c0       ?RemoveInUseKeyItems@CIocpKeyIoMgr@@AEAAXXZ 00000001800240c0 f   IocpKeyIoMgr.obj
 0001:00023270       ?CheckKeyBeforeSend@CIocpKeyIoMgr@@AEAAPEAUIOCPKEY@@HHAEAH@Z 0000000180024270 f   IocpKeyIoMgr.obj
 0001:00023470       ?SetPendingState@CIocpKeyIoMgr@@AEAAXH@Z 0000000180024470 f   IocpKeyIoMgr.obj
 0001:000235c0       ?InitIocpKey@CIocpKeyIoMgr@@QEAAXHP6AHPEAUIOCPIO@@PEAUIOCPKEY@@HPEAXH@Z2@Z 00000001800245c0 f   IocpKeyIoMgr.obj
 0001:00023630       ?ReSetMaxKeyCnt@CIocpKeyIoMgr@@QEAAXH@Z 0000000180024630 f   IocpKeyIoMgr.obj
 0001:000236a0       ?ApplyIocpKey@CIocpKeyIoMgr@@QEAAPEAUIOCPKEY@@PEAUIOCPIO@@@Z 00000001800246a0 f   IocpKeyIoMgr.obj
 0001:00023b20       ?ReleaseIocpKey@CIocpKeyIoMgr@@QEAAXPEAUIOCPKEY@@@Z 0000000180024b20 f   IocpKeyIoMgr.obj
 0001:00023e20       ?GetInUseKeyCnt@CIocpKeyIoMgr@@QEAAHXZ 0000000180024e20 f   IocpKeyIoMgr.obj
 0001:00023eb0       ?GetIdleKeyCnt@CIocpKeyIoMgr@@QEAAHXZ 0000000180024eb0 f   IocpKeyIoMgr.obj
 0001:00023f40       ?IsValidKey@CIocpKeyIoMgr@@QEAA_NPEAUIOCPKEY@@@Z 0000000180024f40 f   IocpKeyIoMgr.obj
 0001:00024110       ?FindIocpKey@CIocpKeyIoMgr@@QEAAPEAUIOCPKEY@@H@Z 0000000180025110 f   IocpKeyIoMgr.obj
 0001:00024270       ?UpdateIocpKey@CIocpKeyIoMgr@@QEAAHHHHHEEPEBE@Z 0000000180025270 f   IocpKeyIoMgr.obj
 0001:00024520       ?GetSocketState@CIocpKeyIoMgr@@QEAAHH@Z 0000000180025520 f   IocpKeyIoMgr.obj
 0001:000246e0       ?IocpAsyncSend@CIocpKeyIoMgr@@QEAAHHHPEBDHH@Z 00000001800256e0 f   IocpKeyIoMgr.obj
 0001:00024cd0       ?CloseAllConnections@CIocpKeyIoMgr@@QEAAXXZ 0000000180025cd0 f   IocpKeyIoMgr.obj
 0001:00024fd0       ?CheckTimeOutConnections@CIocpKeyIoMgr@@QEAA_JH@Z 0000000180025fd0 f   IocpKeyIoMgr.obj
 0001:00025580       ?CancelPendingState@CIocpKeyIoMgr@@QEAA_NPEAUIOCPKEY@@@Z 0000000180026580 f   IocpKeyIoMgr.obj
 0001:000256d0       ?CloseSocket@CIocpKeyIoMgr@@QEAAXAEA_K@Z 00000001800266d0 f   IocpKeyIoMgr.obj
 0001:00025740       ?CloseSocket@CIocpKeyIoMgr@@QEAAXHAEA_K@Z 0000000180026740 f   IocpKeyIoMgr.obj
 0001:00025900       ?CancelDelay@CIocpKeyIoMgr@@QEAAHH@Z 0000000180026900 f   IocpKeyIoMgr.obj
 0001:00025cc0       ?InitIo@CIocpKeyIoMgr@@AEAAXH@Z 0000000180026cc0 f   IocpKeyIoMgr.obj
 0001:00025e20       ?RemoveIdleIoItems@CIocpKeyIoMgr@@AEAAXXZ 0000000180026e20 f   IocpKeyIoMgr.obj
 0001:00025fd0       ?RemoveInUseIoItems@CIocpKeyIoMgr@@AEAAXXZ 0000000180026fd0 f   IocpKeyIoMgr.obj
 0001:00026180       ?InitIocpIo@CIocpKeyIoMgr@@QEAAXH@Z 0000000180027180 f   IocpKeyIoMgr.obj
 0001:000261c0       ?ReSetMaxIoCnt@CIocpKeyIoMgr@@QEAAXH@Z 00000001800271c0 f   IocpKeyIoMgr.obj
 0001:00026230       ?ApplyIocpAcceptIo@CIocpKeyIoMgr@@QEAAPEAUIOCPIO@@_K@Z 0000000180027230 f   IocpKeyIoMgr.obj
 0001:00026500       ?ApplyIocpSendIo@CIocpKeyIoMgr@@QEAAPEAUIOCPIO@@HHPEBDHH@Z 0000000180027500 f   IocpKeyIoMgr.obj
 0001:00026870       ?ReleaseIocpIo@CIocpKeyIoMgr@@QEAAXPEAUIOCPIO@@@Z 0000000180027870 f   IocpKeyIoMgr.obj
 0001:00026b70       ?GetInUseIoCnt@CIocpKeyIoMgr@@QEAAHXZ 0000000180027b70 f   IocpKeyIoMgr.obj
 0001:00026c00       ?GetIdleIoCnt@CIocpKeyIoMgr@@QEAAHXZ 0000000180027c00 f   IocpKeyIoMgr.obj
 0001:00026c90       ?InitIoContext_Recv@CIocpKeyIoMgr@@QEAAXPEAUIOCPIO@@@Z 0000000180027c90 f   IocpKeyIoMgr.obj
 0001:00026d20       ?InitIoContext_Write@CIocpKeyIoMgr@@QEAAXPEAUIOCPIO@@@Z 0000000180027d20 f   IocpKeyIoMgr.obj
 0001:00026db0       ?GetUniqueKey@@YAHXZ       0000000180027db0 f   IocpKeyIoMgr.obj
 0001:00026e50       ?GetUniqueIo@@YAHXZ        0000000180027e50 f   IocpKeyIoMgr.obj
 0001:00027fb0       ??$?0AEAHAEAPEAUIOCPKEY@@X@?$pair@HPEAUIOCPKEY@@@std@@QEAA@AEAHAEAPEAUIOCPKEY@@@Z 0000000180028fb0 f i IocpKeyIoMgr.obj
 0001:00028030       ??$?0AEAV?$_Tree_iterator@V?$_Tree_val@U?$_Tree_simple_types@U?$pair@$$CBHPEAUIOCPIO@@@std@@@std@@@std@@@std@@AEAV01@X@?$pair@V?$_Tree_iterator@V?$_Tree_val@U?$_Tree_simple_types@U?$pair@$$CBHPEAUIOCPIO@@@std@@@std@@@std@@@std@@V12@@std@@QEAA@AEAV?$_Tree_iterator@V?$_Tree_val@U?$_Tree_simple_types@U?$pair@$$CBHPEAUIOCPIO@@@std@@@std@@@std@@@1@0@Z 0000000180029030 f i IocpKeyIoMgr.obj
 0001:000280c0       ??$?0AEAV?$_Tree_iterator@V?$_Tree_val@U?$_Tree_simple_types@U?$pair@$$CBHPEAUIOCPIO@@@std@@@std@@@std@@@std@@_NX@?$pair@V?$_Tree_iterator@V?$_Tree_val@U?$_Tree_simple_types@U?$pair@$$CBHPEAUIOCPIO@@@std@@@std@@@std@@@std@@_N@std@@QEAA@AEAV?$_Tree_iterator@V?$_Tree_val@U?$_Tree_simple_types@U?$pair@$$CBHPEAUIOCPIO@@@std@@@std@@@std@@@1@$$QEA_N@Z 00000001800290c0 f i IocpKeyIoMgr.obj
 0001:00028150       ??$?0AEAV?$_Tree_iterator@V?$_Tree_val@U?$_Tree_simple_types@U?$pair@$$CBHPEAUIOCPKEY@@@std@@@std@@@std@@@std@@AEAV01@X@?$pair@V?$_Tree_iterator@V?$_Tree_val@U?$_Tree_simple_types@U?$pair@$$CBHPEAUIOCPKEY@@@std@@@std@@@std@@@std@@V12@@std@@QEAA@AEAV?$_Tree_iterator@V?$_Tree_val@U?$_Tree_simple_types@U?$pair@$$CBHPEAUIOCPKEY@@@std@@@std@@@std@@@1@0@Z 0000000180029150 f i IocpKeyIoMgr.obj
 0001:000281e0       ??$?0AEAV?$_Tree_iterator@V?$_Tree_val@U?$_Tree_simple_types@U?$pair@$$CBHPEAUIOCPKEY@@@std@@@std@@@std@@@std@@_NX@?$pair@V?$_Tree_iterator@V?$_Tree_val@U?$_Tree_simple_types@U?$pair@$$CBHPEAUIOCPKEY@@@std@@@std@@@std@@@std@@_N@std@@QEAA@AEAV?$_Tree_iterator@V?$_Tree_val@U?$_Tree_simple_types@U?$pair@$$CBHPEAUIOCPKEY@@@std@@@std@@@std@@@1@$$QEA_N@Z 00000001800291e0 f i IocpKeyIoMgr.obj
 0001:00028270       ??$?0HAEAPEAUIOCPIO@@X@?$pair@HPEAUIOCPIO@@@std@@QEAA@$$QEAHAEAPEAUIOCPIO@@@Z 0000000180029270 f i IocpKeyIoMgr.obj
 0001:000282f0       ??$?0HPEAUIOCPIO@@X@?$pair@$$CBHPEAUIOCPIO@@@std@@QEAA@$$QEAU?$pair@HPEAUIOCPIO@@@1@@Z 00000001800292f0 f i IocpKeyIoMgr.obj
 0001:00028370       ??$?0HPEAUIOCPKEY@@X@?$pair@$$CBHPEAUIOCPKEY@@@std@@QEAA@$$QEAU?$pair@HPEAUIOCPKEY@@@1@@Z 0000000180029370 f i IocpKeyIoMgr.obj
 0001:000283f0       ??$?0U?$_Tree_node@U?$pair@$$CBHPEAUIOCPIO@@@std@@PEAX@std@@@?$allocator@U_Container_proxy@std@@@std@@QEAA@AEBV?$allocator@U?$_Tree_node@U?$pair@$$CBHPEAUIOCPIO@@@std@@PEAX@std@@@1@@Z 00000001800293f0 f i IocpKeyIoMgr.obj
 0001:00028410       ??$?0U?$_Tree_node@U?$pair@$$CBHPEAUIOCPKEY@@@std@@PEAX@std@@@?$allocator@U_Container_proxy@std@@@std@@QEAA@AEBV?$allocator@U?$_Tree_node@U?$pair@$$CBHPEAUIOCPKEY@@@std@@PEAX@std@@@1@@Z 0000000180029410 f i IocpKeyIoMgr.obj
 0001:00028430       ??$?0U?$_Wrap_alloc@V?$allocator@U?$_Tree_node@U?$pair@$$CBHPEAUIOCPIO@@@std@@PEAX@std@@@std@@@std@@@?$_Wrap_alloc@V?$allocator@U_Container_proxy@std@@@std@@@std@@QEAA@AEBU?$_Wrap_alloc@V?$allocator@U?$_Tree_node@U?$pair@$$CBHPEAUIOCPIO@@@std@@PEAX@std@@@std@@@1@@Z 0000000180029430 f i IocpKeyIoMgr.obj
 0001:00028480       ??$?0U?$_Wrap_alloc@V?$allocator@U?$_Tree_node@U?$pair@$$CBHPEAUIOCPKEY@@@std@@PEAX@std@@@std@@@std@@@?$_Wrap_alloc@V?$allocator@U_Container_proxy@std@@@std@@@std@@QEAA@AEBU?$_Wrap_alloc@V?$allocator@U?$_Tree_node@U?$pair@$$CBHPEAUIOCPKEY@@@std@@PEAX@std@@@std@@@1@@Z 0000000180029480 f i IocpKeyIoMgr.obj
 0001:000284d0       ??$?0V?$_Tree_iterator@V?$_Tree_val@U?$_Tree_simple_types@U?$pair@$$CBHPEAUIOCPIO@@@std@@@std@@@std@@@std@@_NX@?$pair@V?$_Tree_iterator@V?$_Tree_val@U?$_Tree_simple_types@U?$pair@$$CBHPEAUIOCPIO@@@std@@@std@@@std@@@std@@_N@std@@QEAA@$$QEAV?$_Tree_iterator@V?$_Tree_val@U?$_Tree_simple_types@U?$pair@$$CBHPEAUIOCPIO@@@std@@@std@@@std@@@1@$$QEA_N@Z 00000001800294d0 f i IocpKeyIoMgr.obj
 0001:00028560       ??$?0V?$_Tree_iterator@V?$_Tree_val@U?$_Tree_simple_types@U?$pair@$$CBHPEAUIOCPKEY@@@std@@@std@@@std@@@std@@_NX@?$pair@V?$_Tree_iterator@V?$_Tree_val@U?$_Tree_simple_types@U?$pair@$$CBHPEAUIOCPKEY@@@std@@@std@@@std@@@std@@_N@std@@QEAA@$$QEAV?$_Tree_iterator@V?$_Tree_val@U?$_Tree_simple_types@U?$pair@$$CBHPEAUIOCPKEY@@@std@@@std@@@std@@@1@$$QEA_N@Z 0000000180029560 f i IocpKeyIoMgr.obj
 0001:000285f0       ??$_Allocate@U?$_List_node@PEAUIOCPIO@@PEAX@std@@@std@@YAPEAU?$_List_node@PEAUIOCPIO@@PEAX@0@_KPEAU10@@Z 00000001800295f0 f i IocpKeyIoMgr.obj
 0001:00028680       ??$_Allocate@U?$_List_node@PEAUIOCPKEY@@PEAX@std@@@std@@YAPEAU?$_List_node@PEAUIOCPKEY@@PEAX@0@_KPEAU10@@Z 0000000180029680 f i IocpKeyIoMgr.obj
 0001:00028710       ??$_Allocate@U?$_Tree_node@U?$pair@$$CBHPEAUIOCPIO@@@std@@PEAX@std@@@std@@YAPEAU?$_Tree_node@U?$pair@$$CBHPEAUIOCPIO@@@std@@PEAX@0@_KPEAU10@@Z 0000000180029710 f i IocpKeyIoMgr.obj
 0001:000287a0       ??$_Allocate@U?$_Tree_node@U?$pair@$$CBHPEAUIOCPKEY@@@std@@PEAX@std@@@std@@YAPEAU?$_Tree_node@U?$pair@$$CBHPEAUIOCPKEY@@@std@@PEAX@0@_KPEAU10@@Z 00000001800297a0 f i IocpKeyIoMgr.obj
 0001:00028830       ??$_Buynode@AEBQEAUIOCPIO@@@?$_List_buy@PEAUIOCPIO@@V?$allocator@PEAUIOCPIO@@@std@@@std@@QEAAPEAU?$_List_node@PEAUIOCPIO@@PEAX@1@PEAU21@0AEBQEAUIOCPIO@@@Z 0000000180029830 f i IocpKeyIoMgr.obj
 0001:00028910       ??$_Buynode@AEBQEAUIOCPKEY@@@?$_List_buy@PEAUIOCPKEY@@V?$allocator@PEAUIOCPKEY@@@std@@@std@@QEAAPEAU?$_List_node@PEAUIOCPKEY@@PEAX@1@PEAU21@0AEBQEAUIOCPKEY@@@Z 0000000180029910 f i IocpKeyIoMgr.obj
 0001:000289f0       ??$_Buynode@U?$pair@HPEAUIOCPIO@@@std@@@?$_Tree_buy@U?$pair@$$CBHPEAUIOCPIO@@@std@@V?$allocator@U?$pair@$$CBHPEAUIOCPIO@@@std@@@2@@std@@QEAAPEAU?$_Tree_node@U?$pair@$$CBHPEAUIOCPIO@@@std@@PEAX@1@$$QEAU?$pair@HPEAUIOCPIO@@@1@@Z 00000001800299f0 f i IocpKeyIoMgr.obj
 0001:00028ad0       ??$_Buynode@U?$pair@HPEAUIOCPKEY@@@std@@@?$_Tree_buy@U?$pair@$$CBHPEAUIOCPKEY@@@std@@V?$allocator@U?$pair@$$CBHPEAUIOCPKEY@@@std@@@2@@std@@QEAAPEAU?$_Tree_node@U?$pair@$$CBHPEAUIOCPKEY@@@std@@PEAX@1@$$QEAU?$pair@HPEAUIOCPKEY@@@1@@Z 0000000180029ad0 f i IocpKeyIoMgr.obj
 0001:00028bb0       ??$_Buynode_if_nil@AEAU?$pair@$$CBHPEAUIOCPIO@@@std@@@?$_Tree@V?$_Tmap_traits@HPEAUIOCPIO@@U?$less@H@std@@V?$allocator@U?$pair@$$CBHPEAUIOCPIO@@@std@@@3@$0A@@std@@@std@@IEAAPEAU?$_Tree_node@U?$pair@$$CBHPEAUIOCPIO@@@std@@PEAX@1@PEAU21@AEAU?$pair@$$CBHPEAUIOCPIO@@@1@@Z 0000000180029bb0 f i IocpKeyIoMgr.obj
 0001:00028bd0       ??$_Buynode_if_nil@AEAU?$pair@$$CBHPEAUIOCPKEY@@@std@@@?$_Tree@V?$_Tmap_traits@HPEAUIOCPKEY@@U?$less@H@std@@V?$allocator@U?$pair@$$CBHPEAUIOCPKEY@@@std@@@3@$0A@@std@@@std@@IEAAPEAU?$_Tree_node@U?$pair@$$CBHPEAUIOCPKEY@@@std@@PEAX@1@PEAU21@AEAU?$pair@$$CBHPEAUIOCPKEY@@@1@@Z 0000000180029bd0 f i IocpKeyIoMgr.obj
 0001:00028bf0       ??$_Debug_lt_pred@U?$less@H@std@@AEBHAEBH@std@@YA_NU?$less@H@0@AEBH1PEB_WI@Z 0000000180029bf0 f i IocpKeyIoMgr.obj
 0001:00028ce0       ??$_Distance2@V?$_Tree_iterator@V?$_Tree_val@U?$_Tree_simple_types@U?$pair@$$CBHPEAUIOCPIO@@@std@@@std@@@std@@@std@@_K@std@@YAXV?$_Tree_iterator@V?$_Tree_val@U?$_Tree_simple_types@U?$pair@$$CBHPEAUIOCPIO@@@std@@@std@@@std@@@0@0AEA_KUbidirectional_iterator_tag@0@@Z 0000000180029ce0 f i IocpKeyIoMgr.obj
 0001:00028d90       ??$_Distance2@V?$_Tree_iterator@V?$_Tree_val@U?$_Tree_simple_types@U?$pair@$$CBHPEAUIOCPKEY@@@std@@@std@@@std@@@std@@_K@std@@YAXV?$_Tree_iterator@V?$_Tree_val@U?$_Tree_simple_types@U?$pair@$$CBHPEAUIOCPKEY@@@std@@@std@@@std@@@0@0AEA_KUbidirectional_iterator_tag@0@@Z 0000000180029d90 f i IocpKeyIoMgr.obj
 0001:00028e40       ??$_Distance@V?$_Tree_iterator@V?$_Tree_val@U?$_Tree_simple_types@U?$pair@$$CBHPEAUIOCPIO@@@std@@@std@@@std@@@std@@_K@std@@YAXV?$_Tree_iterator@V?$_Tree_val@U?$_Tree_simple_types@U?$pair@$$CBHPEAUIOCPIO@@@std@@@std@@@std@@@0@0AEA_K@Z 0000000180029e40 f i IocpKeyIoMgr.obj
 0001:00028f70       ??$_Distance@V?$_Tree_iterator@V?$_Tree_val@U?$_Tree_simple_types@U?$pair@$$CBHPEAUIOCPKEY@@@std@@@std@@@std@@@std@@_K@std@@YAXV?$_Tree_iterator@V?$_Tree_val@U?$_Tree_simple_types@U?$pair@$$CBHPEAUIOCPKEY@@@std@@@std@@@std@@@0@0AEA_K@Z 0000000180029f70 f i IocpKeyIoMgr.obj
 0001:000290a0       ??$_Insert@AEBQEAUIOCPIO@@@?$list@PEAUIOCPIO@@V?$allocator@PEAUIOCPIO@@@std@@@std@@QEAAXV?$_List_unchecked_const_iterator@V?$_List_val@U?$_List_simple_types@PEAUIOCPIO@@@std@@@std@@U_Iterator_base0@2@@1@AEBQEAUIOCPIO@@@Z 000000018002a0a0 f i IocpKeyIoMgr.obj
 0001:00029180       ??$_Insert@AEBQEAUIOCPKEY@@@?$list@PEAUIOCPKEY@@V?$allocator@PEAUIOCPKEY@@@std@@@std@@QEAAXV?$_List_unchecked_const_iterator@V?$_List_val@U?$_List_simple_types@PEAUIOCPKEY@@@std@@@std@@U_Iterator_base0@2@@1@AEBQEAUIOCPKEY@@@Z 000000018002a180 f i IocpKeyIoMgr.obj
 0001:00029260       ??$_Insert_at@AEAU?$pair@$$CBHPEAUIOCPIO@@@std@@PEAU?$_Tree_node@U?$pair@$$CBHPEAUIOCPIO@@@std@@PEAX@2@@?$_Tree@V?$_Tmap_traits@HPEAUIOCPIO@@U?$less@H@std@@V?$allocator@U?$pair@$$CBHPEAUIOCPIO@@@std@@@3@$0A@@std@@@std@@IEAA?AV?$_Tree_iterator@V?$_Tree_val@U?$_Tree_simple_types@U?$pair@$$CBHPEAUIOCPIO@@@std@@@std@@@std@@@1@_NPEAU?$_Tree_node@U?$pair@$$CBHPEAUIOCPIO@@@std@@PEAX@1@AEAU?$pair@$$CBHPEAUIOCPIO@@@1@1@Z 000000018002a260 f i IocpKeyIoMgr.obj
 0001:000297d0       ??$_Insert_at@AEAU?$pair@$$CBHPEAUIOCPKEY@@@std@@PEAU?$_Tree_node@U?$pair@$$CBHPEAUIOCPKEY@@@std@@PEAX@2@@?$_Tree@V?$_Tmap_traits@HPEAUIOCPKEY@@U?$less@H@std@@V?$allocator@U?$pair@$$CBHPEAUIOCPKEY@@@std@@@3@$0A@@std@@@std@@IEAA?AV?$_Tree_iterator@V?$_Tree_val@U?$_Tree_simple_types@U?$pair@$$CBHPEAUIOCPKEY@@@std@@@std@@@std@@@1@_NPEAU?$_Tree_node@U?$pair@$$CBHPEAUIOCPKEY@@@std@@PEAX@1@AEAU?$pair@$$CBHPEAUIOCPKEY@@@1@1@Z 000000018002a7d0 f i IocpKeyIoMgr.obj
 0001:00029d40       ??$_Insert_nohint@AEAU?$pair@$$CBHPEAUIOCPIO@@@std@@PEAU?$_Tree_node@U?$pair@$$CBHPEAUIOCPIO@@@std@@PEAX@2@@?$_Tree@V?$_Tmap_traits@HPEAUIOCPIO@@U?$less@H@std@@V?$allocator@U?$pair@$$CBHPEAUIOCPIO@@@std@@@3@$0A@@std@@@std@@IEAA?AU?$pair@V?$_Tree_iterator@V?$_Tree_val@U?$_Tree_simple_types@U?$pair@$$CBHPEAUIOCPIO@@@std@@@std@@@std@@@std@@_N@1@_NAEAU?$pair@$$CBHPEAUIOCPIO@@@1@PEAU?$_Tree_node@U?$pair@$$CBHPEAUIOCPIO@@@std@@PEAX@1@@Z 000000018002ad40 f i IocpKeyIoMgr.obj
 0001:0002a580       ??$_Insert_nohint@AEAU?$pair@$$CBHPEAUIOCPKEY@@@std@@PEAU?$_Tree_node@U?$pair@$$CBHPEAUIOCPKEY@@@std@@PEAX@2@@?$_Tree@V?$_Tmap_traits@HPEAUIOCPKEY@@U?$less@H@std@@V?$allocator@U?$pair@$$CBHPEAUIOCPKEY@@@std@@@3@$0A@@std@@@std@@IEAA?AU?$pair@V?$_Tree_iterator@V?$_Tree_val@U?$_Tree_simple_types@U?$pair@$$CBHPEAUIOCPKEY@@@std@@@std@@@std@@@std@@_N@1@_NAEAU?$pair@$$CBHPEAUIOCPKEY@@@1@PEAU?$_Tree_node@U?$pair@$$CBHPEAUIOCPKEY@@@std@@PEAX@1@@Z 000000018002b580 f i IocpKeyIoMgr.obj
 0001:0002adc0       ??$_Iter_cat@V?$_Tree_iterator@V?$_Tree_val@U?$_Tree_simple_types@U?$pair@$$CBHPEAUIOCPIO@@@std@@@std@@@std@@@std@@@std@@YA?AUbidirectional_iterator_tag@0@AEBV?$_Tree_iterator@V?$_Tree_val@U?$_Tree_simple_types@U?$pair@$$CBHPEAUIOCPIO@@@std@@@std@@@std@@@0@@Z 000000018002bdc0 f i IocpKeyIoMgr.obj
 0001:0002ae30       ??$_Iter_cat@V?$_Tree_iterator@V?$_Tree_val@U?$_Tree_simple_types@U?$pair@$$CBHPEAUIOCPKEY@@@std@@@std@@@std@@@std@@@std@@YA?AUbidirectional_iterator_tag@0@AEBV?$_Tree_iterator@V?$_Tree_val@U?$_Tree_simple_types@U?$pair@$$CBHPEAUIOCPKEY@@@std@@@std@@@std@@@0@@Z 000000018002be30 f i IocpKeyIoMgr.obj
 0001:0002aea0       ??$_Kfn@$$CBHPEAUIOCPIO@@@?$_Tmap_traits@HPEAUIOCPIO@@U?$less@H@std@@V?$allocator@U?$pair@$$CBHPEAUIOCPIO@@@std@@@3@$0A@@std@@SAAEBHAEBU?$pair@$$CBHPEAUIOCPIO@@@1@@Z 000000018002bea0 f i IocpKeyIoMgr.obj
 0001:0002aeb0       ??$_Kfn@$$CBHPEAUIOCPKEY@@@?$_Tmap_traits@HPEAUIOCPKEY@@U?$less@H@std@@V?$allocator@U?$pair@$$CBHPEAUIOCPKEY@@@std@@@3@$0A@@std@@SAAEBHAEBU?$pair@$$CBHPEAUIOCPKEY@@@1@@Z 000000018002beb0 f i IocpKeyIoMgr.obj
 0001:0002aec0       ??$_Move@AEAD@std@@YA$$QEADAEAD@Z 000000018002bec0 f i IocpKeyIoMgr.obj
 0001:0002aed0       ??$addressof@PEAU?$_List_node@PEAUIOCPIO@@PEAX@std@@@std@@YAPEAPEAU?$_List_node@PEAUIOCPIO@@PEAX@0@AEAPEAU10@@Z 000000018002bed0 f i IocpKeyIoMgr.obj
 0001:0002aee0       ??$addressof@PEAU?$_List_node@PEAUIOCPKEY@@PEAX@std@@@std@@YAPEAPEAU?$_List_node@PEAUIOCPKEY@@PEAX@0@AEAPEAU10@@Z 000000018002bee0 f i IocpKeyIoMgr.obj
 0001:0002aef0       ??$addressof@PEAU?$_Tree_node@U?$pair@$$CBHPEAUIOCPIO@@@std@@PEAX@std@@@std@@YAPEAPEAU?$_Tree_node@U?$pair@$$CBHPEAUIOCPIO@@@std@@PEAX@0@AEAPEAU10@@Z 000000018002bef0 f i IocpKeyIoMgr.obj
 0001:0002af00       ??$addressof@PEAU?$_Tree_node@U?$pair@$$CBHPEAUIOCPKEY@@@std@@PEAX@std@@@std@@YAPEAPEAU?$_Tree_node@U?$pair@$$CBHPEAUIOCPKEY@@@std@@PEAX@0@AEAPEAU10@@Z 000000018002bf00 f i IocpKeyIoMgr.obj
 0001:0002af10       ??$addressof@PEAUIOCPIO@@@std@@YAPEAPEAUIOCPIO@@AEAPEAU1@@Z 000000018002bf10 f i IocpKeyIoMgr.obj
 0001:0002af20       ??$addressof@PEAUIOCPKEY@@@std@@YAPEAPEAUIOCPKEY@@AEAPEAU1@@Z 000000018002bf20 f i IocpKeyIoMgr.obj
 0001:0002af30       ??$addressof@U?$pair@$$CBHPEAUIOCPIO@@@std@@@std@@YAPEAU?$pair@$$CBHPEAUIOCPIO@@@0@AEAU10@@Z 000000018002bf30 f i IocpKeyIoMgr.obj
 0001:0002af40       ??$addressof@U?$pair@$$CBHPEAUIOCPKEY@@@std@@@std@@YAPEAU?$pair@$$CBHPEAUIOCPKEY@@@0@AEAU10@@Z 000000018002bf40 f i IocpKeyIoMgr.obj
 0001:0002af50       ??$construct@PEAU?$_List_node@PEAUIOCPIO@@PEAX@std@@AEAPEAU12@@?$_Wrap_alloc@V?$allocator@U?$_List_node@PEAUIOCPIO@@PEAX@std@@@std@@@std@@QEAAXPEAPEAU?$_List_node@PEAUIOCPIO@@PEAX@1@AEAPEAU21@@Z 000000018002bf50 f i IocpKeyIoMgr.obj
 0001:0002afb0       ??$construct@PEAU?$_List_node@PEAUIOCPIO@@PEAX@std@@AEAPEAU12@@?$allocator@U?$_List_node@PEAUIOCPIO@@PEAX@std@@@std@@QEAAXPEAPEAU?$_List_node@PEAUIOCPIO@@PEAX@1@AEAPEAU21@@Z 000000018002bfb0 f i IocpKeyIoMgr.obj
 0001:0002b060       ??$construct@PEAU?$_List_node@PEAUIOCPIO@@PEAX@std@@AEAPEAU12@@?$allocator_traits@V?$allocator@U?$_List_node@PEAUIOCPIO@@PEAX@std@@@std@@@std@@SAXAEAV?$allocator@U?$_List_node@PEAUIOCPIO@@PEAX@std@@@1@PEAPEAU?$_List_node@PEAUIOCPIO@@PEAX@1@AEAPEAU31@@Z 000000018002c060 f i IocpKeyIoMgr.obj
 0001:0002b0c0       ??$construct@PEAU?$_List_node@PEAUIOCPKEY@@PEAX@std@@AEAPEAU12@@?$_Wrap_alloc@V?$allocator@U?$_List_node@PEAUIOCPKEY@@PEAX@std@@@std@@@std@@QEAAXPEAPEAU?$_List_node@PEAUIOCPKEY@@PEAX@1@AEAPEAU21@@Z 000000018002c0c0 f i IocpKeyIoMgr.obj
 0001:0002b120       ??$construct@PEAU?$_List_node@PEAUIOCPKEY@@PEAX@std@@AEAPEAU12@@?$allocator@U?$_List_node@PEAUIOCPKEY@@PEAX@std@@@std@@QEAAXPEAPEAU?$_List_node@PEAUIOCPKEY@@PEAX@1@AEAPEAU21@@Z 000000018002c120 f i IocpKeyIoMgr.obj
 0001:0002b1d0       ??$construct@PEAU?$_List_node@PEAUIOCPKEY@@PEAX@std@@AEAPEAU12@@?$allocator_traits@V?$allocator@U?$_List_node@PEAUIOCPKEY@@PEAX@std@@@std@@@std@@SAXAEAV?$allocator@U?$_List_node@PEAUIOCPKEY@@PEAX@std@@@1@PEAPEAU?$_List_node@PEAUIOCPKEY@@PEAX@1@AEAPEAU31@@Z 000000018002c1d0 f i IocpKeyIoMgr.obj
 0001:0002b230       ??$construct@PEAU?$_Tree_node@U?$pair@$$CBHPEAUIOCPIO@@@std@@PEAX@std@@AEAPEAU12@@?$_Wrap_alloc@V?$allocator@U?$_Tree_node@U?$pair@$$CBHPEAUIOCPIO@@@std@@PEAX@std@@@std@@@std@@QEAAXPEAPEAU?$_Tree_node@U?$pair@$$CBHPEAUIOCPIO@@@std@@PEAX@1@AEAPEAU21@@Z 000000018002c230 f i IocpKeyIoMgr.obj
 0001:0002b290       ??$construct@PEAU?$_Tree_node@U?$pair@$$CBHPEAUIOCPIO@@@std@@PEAX@std@@AEAPEAU12@@?$allocator@U?$_Tree_node@U?$pair@$$CBHPEAUIOCPIO@@@std@@PEAX@std@@@std@@QEAAXPEAPEAU?$_Tree_node@U?$pair@$$CBHPEAUIOCPIO@@@std@@PEAX@1@AEAPEAU21@@Z 000000018002c290 f i IocpKeyIoMgr.obj
 0001:0002b340       ??$construct@PEAU?$_Tree_node@U?$pair@$$CBHPEAUIOCPIO@@@std@@PEAX@std@@AEAPEAU12@@?$allocator_traits@V?$allocator@U?$_Tree_node@U?$pair@$$CBHPEAUIOCPIO@@@std@@PEAX@std@@@std@@@std@@SAXAEAV?$allocator@U?$_Tree_node@U?$pair@$$CBHPEAUIOCPIO@@@std@@PEAX@std@@@1@PEAPEAU?$_Tree_node@U?$pair@$$CBHPEAUIOCPIO@@@std@@PEAX@1@AEAPEAU31@@Z 000000018002c340 f i IocpKeyIoMgr.obj
 0001:0002b3a0       ??$construct@PEAU?$_Tree_node@U?$pair@$$CBHPEAUIOCPKEY@@@std@@PEAX@std@@AEAPEAU12@@?$_Wrap_alloc@V?$allocator@U?$_Tree_node@U?$pair@$$CBHPEAUIOCPKEY@@@std@@PEAX@std@@@std@@@std@@QEAAXPEAPEAU?$_Tree_node@U?$pair@$$CBHPEAUIOCPKEY@@@std@@PEAX@1@AEAPEAU21@@Z 000000018002c3a0 f i IocpKeyIoMgr.obj
 0001:0002b400       ??$construct@PEAU?$_Tree_node@U?$pair@$$CBHPEAUIOCPKEY@@@std@@PEAX@std@@AEAPEAU12@@?$allocator@U?$_Tree_node@U?$pair@$$CBHPEAUIOCPKEY@@@std@@PEAX@std@@@std@@QEAAXPEAPEAU?$_Tree_node@U?$pair@$$CBHPEAUIOCPKEY@@@std@@PEAX@1@AEAPEAU21@@Z 000000018002c400 f i IocpKeyIoMgr.obj
 0001:0002b4b0       ??$construct@PEAU?$_Tree_node@U?$pair@$$CBHPEAUIOCPKEY@@@std@@PEAX@std@@AEAPEAU12@@?$allocator_traits@V?$allocator@U?$_Tree_node@U?$pair@$$CBHPEAUIOCPKEY@@@std@@PEAX@std@@@std@@@std@@SAXAEAV?$allocator@U?$_Tree_node@U?$pair@$$CBHPEAUIOCPKEY@@@std@@PEAX@std@@@1@PEAPEAU?$_Tree_node@U?$pair@$$CBHPEAUIOCPKEY@@@std@@PEAX@1@AEAPEAU31@@Z 000000018002c4b0 f i IocpKeyIoMgr.obj
 0001:0002b510       ??$construct@PEAUIOCPIO@@AEBQEAU1@@?$_Wrap_alloc@V?$allocator@U?$_List_node@PEAUIOCPIO@@PEAX@std@@@std@@@std@@QEAAXPEAPEAUIOCPIO@@AEBQEAU2@@Z 000000018002c510 f i IocpKeyIoMgr.obj
 0001:0002b570       ??$construct@PEAUIOCPIO@@AEBQEAU1@@?$allocator@U?$_List_node@PEAUIOCPIO@@PEAX@std@@@std@@QEAAXPEAPEAUIOCPIO@@AEBQEAU2@@Z 000000018002c570 f i IocpKeyIoMgr.obj
 0001:0002b620       ??$construct@PEAUIOCPIO@@AEBQEAU1@@?$allocator_traits@V?$allocator@U?$_List_node@PEAUIOCPIO@@PEAX@std@@@std@@@std@@SAXAEAV?$allocator@U?$_List_node@PEAUIOCPIO@@PEAX@std@@@1@PEAPEAUIOCPIO@@AEBQEAU3@@Z 000000018002c620 f i IocpKeyIoMgr.obj
 0001:0002b680       ??$construct@PEAUIOCPKEY@@AEBQEAU1@@?$_Wrap_alloc@V?$allocator@U?$_List_node@PEAUIOCPKEY@@PEAX@std@@@std@@@std@@QEAAXPEAPEAUIOCPKEY@@AEBQEAU2@@Z 000000018002c680 f i IocpKeyIoMgr.obj
 0001:0002b6e0       ??$construct@PEAUIOCPKEY@@AEBQEAU1@@?$allocator@U?$_List_node@PEAUIOCPKEY@@PEAX@std@@@std@@QEAAXPEAPEAUIOCPKEY@@AEBQEAU2@@Z 000000018002c6e0 f i IocpKeyIoMgr.obj
 0001:0002b790       ??$construct@PEAUIOCPKEY@@AEBQEAU1@@?$allocator_traits@V?$allocator@U?$_List_node@PEAUIOCPKEY@@PEAX@std@@@std@@@std@@SAXAEAV?$allocator@U?$_List_node@PEAUIOCPKEY@@PEAX@std@@@1@PEAPEAUIOCPKEY@@AEBQEAU3@@Z 000000018002c790 f i IocpKeyIoMgr.obj
 0001:0002b7f0       ??$construct@U?$pair@$$CBHPEAUIOCPIO@@@std@@U?$pair@HPEAUIOCPIO@@@2@@?$_Wrap_alloc@V?$allocator@U?$_Tree_node@U?$pair@$$CBHPEAUIOCPIO@@@std@@PEAX@std@@@std@@@std@@QEAAXPEAU?$pair@$$CBHPEAUIOCPIO@@@1@$$QEAU?$pair@HPEAUIOCPIO@@@1@@Z 000000018002c7f0 f i IocpKeyIoMgr.obj
 0001:0002b850       ??$construct@U?$pair@$$CBHPEAUIOCPIO@@@std@@U?$pair@HPEAUIOCPIO@@@2@@?$allocator@U?$_Tree_node@U?$pair@$$CBHPEAUIOCPIO@@@std@@PEAX@std@@@std@@QEAAXPEAU?$pair@$$CBHPEAUIOCPIO@@@1@$$QEAU?$pair@HPEAUIOCPIO@@@1@@Z 000000018002c850 f i IocpKeyIoMgr.obj
 0001:0002b900       ??$construct@U?$pair@$$CBHPEAUIOCPIO@@@std@@U?$pair@HPEAUIOCPIO@@@2@@?$allocator_traits@V?$allocator@U?$_Tree_node@U?$pair@$$CBHPEAUIOCPIO@@@std@@PEAX@std@@@std@@@std@@SAXAEAV?$allocator@U?$_Tree_node@U?$pair@$$CBHPEAUIOCPIO@@@std@@PEAX@std@@@1@PEAU?$pair@$$CBHPEAUIOCPIO@@@1@$$QEAU?$pair@HPEAUIOCPIO@@@1@@Z 000000018002c900 f i IocpKeyIoMgr.obj
 0001:0002b960       ??$construct@U?$pair@$$CBHPEAUIOCPKEY@@@std@@U?$pair@HPEAUIOCPKEY@@@2@@?$_Wrap_alloc@V?$allocator@U?$_Tree_node@U?$pair@$$CBHPEAUIOCPKEY@@@std@@PEAX@std@@@std@@@std@@QEAAXPEAU?$pair@$$CBHPEAUIOCPKEY@@@1@$$QEAU?$pair@HPEAUIOCPKEY@@@1@@Z 000000018002c960 f i IocpKeyIoMgr.obj
 0001:0002b9c0       ??$construct@U?$pair@$$CBHPEAUIOCPKEY@@@std@@U?$pair@HPEAUIOCPKEY@@@2@@?$allocator@U?$_Tree_node@U?$pair@$$CBHPEAUIOCPKEY@@@std@@PEAX@std@@@std@@QEAAXPEAU?$pair@$$CBHPEAUIOCPKEY@@@1@$$QEAU?$pair@HPEAUIOCPKEY@@@1@@Z 000000018002c9c0 f i IocpKeyIoMgr.obj
 0001:0002ba70       ??$construct@U?$pair@$$CBHPEAUIOCPKEY@@@std@@U?$pair@HPEAUIOCPKEY@@@2@@?$allocator_traits@V?$allocator@U?$_Tree_node@U?$pair@$$CBHPEAUIOCPKEY@@@std@@PEAX@std@@@std@@@std@@SAXAEAV?$allocator@U?$_Tree_node@U?$pair@$$CBHPEAUIOCPKEY@@@std@@PEAX@std@@@1@PEAU?$pair@$$CBHPEAUIOCPKEY@@@1@$$QEAU?$pair@HPEAUIOCPKEY@@@1@@Z 000000018002ca70 f i IocpKeyIoMgr.obj
 0001:0002bad0       ??$construct@U_Container_proxy@std@@U12@@?$_Wrap_alloc@V?$allocator@U_Container_proxy@std@@@std@@@std@@QEAAXPEAU_Container_proxy@1@$$QEAU21@@Z 000000018002cad0 f i IocpKeyIoMgr.obj
 0001:0002bb30       ??$construct@U_Container_proxy@std@@U12@@?$allocator_traits@V?$allocator@U_Container_proxy@std@@@std@@@std@@SAXAEAV?$allocator@U_Container_proxy@std@@@1@PEAU_Container_proxy@1@$$QEAU31@@Z 000000018002cb30 f i IocpKeyIoMgr.obj
 0001:0002bb90       ??$destroy@PEAU?$_List_node@PEAUIOCPIO@@PEAX@std@@@?$_Wrap_alloc@V?$allocator@U?$_List_node@PEAUIOCPIO@@PEAX@std@@@std@@@std@@QEAAXPEAPEAU?$_List_node@PEAUIOCPIO@@PEAX@1@@Z 000000018002cb90 f i IocpKeyIoMgr.obj
 0001:0002bbe0       ??$destroy@PEAU?$_List_node@PEAUIOCPIO@@PEAX@std@@@?$allocator@U?$_List_node@PEAUIOCPIO@@PEAX@std@@@std@@QEAAXPEAPEAU?$_List_node@PEAUIOCPIO@@PEAX@1@@Z 000000018002cbe0 f i IocpKeyIoMgr.obj
 0001:0002bbf0       ??$destroy@PEAU?$_List_node@PEAUIOCPIO@@PEAX@std@@@?$allocator_traits@V?$allocator@U?$_List_node@PEAUIOCPIO@@PEAX@std@@@std@@@std@@SAXAEAV?$allocator@U?$_List_node@PEAUIOCPIO@@PEAX@std@@@1@PEAPEAU?$_List_node@PEAUIOCPIO@@PEAX@1@@Z 000000018002cbf0 f i IocpKeyIoMgr.obj
 0001:0002bc40       ??$destroy@PEAU?$_List_node@PEAUIOCPKEY@@PEAX@std@@@?$_Wrap_alloc@V?$allocator@U?$_List_node@PEAUIOCPKEY@@PEAX@std@@@std@@@std@@QEAAXPEAPEAU?$_List_node@PEAUIOCPKEY@@PEAX@1@@Z 000000018002cc40 f i IocpKeyIoMgr.obj
 0001:0002bc90       ??$destroy@PEAU?$_List_node@PEAUIOCPKEY@@PEAX@std@@@?$allocator@U?$_List_node@PEAUIOCPKEY@@PEAX@std@@@std@@QEAAXPEAPEAU?$_List_node@PEAUIOCPKEY@@PEAX@1@@Z 000000018002cc90 f i IocpKeyIoMgr.obj
 0001:0002bca0       ??$destroy@PEAU?$_List_node@PEAUIOCPKEY@@PEAX@std@@@?$allocator_traits@V?$allocator@U?$_List_node@PEAUIOCPKEY@@PEAX@std@@@std@@@std@@SAXAEAV?$allocator@U?$_List_node@PEAUIOCPKEY@@PEAX@std@@@1@PEAPEAU?$_List_node@PEAUIOCPKEY@@PEAX@1@@Z 000000018002cca0 f i IocpKeyIoMgr.obj
 0001:0002bcf0       ??$destroy@PEAU?$_Tree_node@U?$pair@$$CBHPEAUIOCPIO@@@std@@PEAX@std@@@?$_Wrap_alloc@V?$allocator@U?$_Tree_node@U?$pair@$$CBHPEAUIOCPIO@@@std@@PEAX@std@@@std@@@std@@QEAAXPEAPEAU?$_Tree_node@U?$pair@$$CBHPEAUIOCPIO@@@std@@PEAX@1@@Z 000000018002ccf0 f i IocpKeyIoMgr.obj
 0001:0002bd40       ??$destroy@PEAU?$_Tree_node@U?$pair@$$CBHPEAUIOCPIO@@@std@@PEAX@std@@@?$allocator@U?$_Tree_node@U?$pair@$$CBHPEAUIOCPIO@@@std@@PEAX@std@@@std@@QEAAXPEAPEAU?$_Tree_node@U?$pair@$$CBHPEAUIOCPIO@@@std@@PEAX@1@@Z 000000018002cd40 f i IocpKeyIoMgr.obj
 0001:0002bd50       ??$destroy@PEAU?$_Tree_node@U?$pair@$$CBHPEAUIOCPIO@@@std@@PEAX@std@@@?$allocator_traits@V?$allocator@U?$_Tree_node@U?$pair@$$CBHPEAUIOCPIO@@@std@@PEAX@std@@@std@@@std@@SAXAEAV?$allocator@U?$_Tree_node@U?$pair@$$CBHPEAUIOCPIO@@@std@@PEAX@std@@@1@PEAPEAU?$_Tree_node@U?$pair@$$CBHPEAUIOCPIO@@@std@@PEAX@1@@Z 000000018002cd50 f i IocpKeyIoMgr.obj
 0001:0002bda0       ??$destroy@PEAU?$_Tree_node@U?$pair@$$CBHPEAUIOCPKEY@@@std@@PEAX@std@@@?$_Wrap_alloc@V?$allocator@U?$_Tree_node@U?$pair@$$CBHPEAUIOCPKEY@@@std@@PEAX@std@@@std@@@std@@QEAAXPEAPEAU?$_Tree_node@U?$pair@$$CBHPEAUIOCPKEY@@@std@@PEAX@1@@Z 000000018002cda0 f i IocpKeyIoMgr.obj
 0001:0002bdf0       ??$destroy@PEAU?$_Tree_node@U?$pair@$$CBHPEAUIOCPKEY@@@std@@PEAX@std@@@?$allocator@U?$_Tree_node@U?$pair@$$CBHPEAUIOCPKEY@@@std@@PEAX@std@@@std@@QEAAXPEAPEAU?$_Tree_node@U?$pair@$$CBHPEAUIOCPKEY@@@std@@PEAX@1@@Z 000000018002cdf0 f i IocpKeyIoMgr.obj
 0001:0002be00       ??$destroy@PEAU?$_Tree_node@U?$pair@$$CBHPEAUIOCPKEY@@@std@@PEAX@std@@@?$allocator_traits@V?$allocator@U?$_Tree_node@U?$pair@$$CBHPEAUIOCPKEY@@@std@@PEAX@std@@@std@@@std@@SAXAEAV?$allocator@U?$_Tree_node@U?$pair@$$CBHPEAUIOCPKEY@@@std@@PEAX@std@@@1@PEAPEAU?$_Tree_node@U?$pair@$$CBHPEAUIOCPKEY@@@std@@PEAX@1@@Z 000000018002ce00 f i IocpKeyIoMgr.obj
 0001:0002be50       ??$destroy@PEAUIOCPIO@@@?$_Wrap_alloc@V?$allocator@U?$_List_node@PEAUIOCPIO@@PEAX@std@@@std@@@std@@QEAAXPEAPEAUIOCPIO@@@Z 000000018002ce50 f i IocpKeyIoMgr.obj
 0001:0002bea0       ??$destroy@PEAUIOCPIO@@@?$allocator@U?$_List_node@PEAUIOCPIO@@PEAX@std@@@std@@QEAAXPEAPEAUIOCPIO@@@Z 000000018002cea0 f i IocpKeyIoMgr.obj
 0001:0002beb0       ??$destroy@PEAUIOCPIO@@@?$allocator_traits@V?$allocator@U?$_List_node@PEAUIOCPIO@@PEAX@std@@@std@@@std@@SAXAEAV?$allocator@U?$_List_node@PEAUIOCPIO@@PEAX@std@@@1@PEAPEAUIOCPIO@@@Z 000000018002ceb0 f i IocpKeyIoMgr.obj
 0001:0002bf00       ??$destroy@PEAUIOCPKEY@@@?$_Wrap_alloc@V?$allocator@U?$_List_node@PEAUIOCPKEY@@PEAX@std@@@std@@@std@@QEAAXPEAPEAUIOCPKEY@@@Z 000000018002cf00 f i IocpKeyIoMgr.obj
 0001:0002bf50       ??$destroy@PEAUIOCPKEY@@@?$allocator@U?$_List_node@PEAUIOCPKEY@@PEAX@std@@@std@@QEAAXPEAPEAUIOCPKEY@@@Z 000000018002cf50 f i IocpKeyIoMgr.obj
 0001:0002bf60       ??$destroy@PEAUIOCPKEY@@@?$allocator_traits@V?$allocator@U?$_List_node@PEAUIOCPKEY@@PEAX@std@@@std@@@std@@SAXAEAV?$allocator@U?$_List_node@PEAUIOCPKEY@@PEAX@std@@@1@PEAPEAUIOCPKEY@@@Z 000000018002cf60 f i IocpKeyIoMgr.obj
 0001:0002bfb0       ??$destroy@U?$pair@$$CBHPEAUIOCPIO@@@std@@@?$_Wrap_alloc@V?$allocator@U?$_Tree_node@U?$pair@$$CBHPEAUIOCPIO@@@std@@PEAX@std@@@std@@@std@@QEAAXPEAU?$pair@$$CBHPEAUIOCPIO@@@1@@Z 000000018002cfb0 f i IocpKeyIoMgr.obj
 0001:0002c000       ??$destroy@U?$pair@$$CBHPEAUIOCPIO@@@std@@@?$allocator@U?$_Tree_node@U?$pair@$$CBHPEAUIOCPIO@@@std@@PEAX@std@@@std@@QEAAXPEAU?$pair@$$CBHPEAUIOCPIO@@@1@@Z 000000018002d000 f i IocpKeyIoMgr.obj
 0001:0002c010       ??$destroy@U?$pair@$$CBHPEAUIOCPIO@@@std@@@?$allocator_traits@V?$allocator@U?$_Tree_node@U?$pair@$$CBHPEAUIOCPIO@@@std@@PEAX@std@@@std@@@std@@SAXAEAV?$allocator@U?$_Tree_node@U?$pair@$$CBHPEAUIOCPIO@@@std@@PEAX@std@@@1@PEAU?$pair@$$CBHPEAUIOCPIO@@@1@@Z 000000018002d010 f i IocpKeyIoMgr.obj
 0001:0002c060       ??$destroy@U?$pair@$$CBHPEAUIOCPKEY@@@std@@@?$_Wrap_alloc@V?$allocator@U?$_Tree_node@U?$pair@$$CBHPEAUIOCPKEY@@@std@@PEAX@std@@@std@@@std@@QEAAXPEAU?$pair@$$CBHPEAUIOCPKEY@@@1@@Z 000000018002d060 f i IocpKeyIoMgr.obj
 0001:0002c0b0       ??$destroy@U?$pair@$$CBHPEAUIOCPKEY@@@std@@@?$allocator@U?$_Tree_node@U?$pair@$$CBHPEAUIOCPKEY@@@std@@PEAX@std@@@std@@QEAAXPEAU?$pair@$$CBHPEAUIOCPKEY@@@1@@Z 000000018002d0b0 f i IocpKeyIoMgr.obj
 0001:0002c0c0       ??$destroy@U?$pair@$$CBHPEAUIOCPKEY@@@std@@@?$allocator_traits@V?$allocator@U?$_Tree_node@U?$pair@$$CBHPEAUIOCPKEY@@@std@@PEAX@std@@@std@@@std@@SAXAEAV?$allocator@U?$_Tree_node@U?$pair@$$CBHPEAUIOCPKEY@@@std@@PEAX@std@@@1@PEAU?$pair@$$CBHPEAUIOCPKEY@@@1@@Z 000000018002d0c0 f i IocpKeyIoMgr.obj
 0001:0002c110       ??$destroy@U_Container_proxy@std@@@?$_Wrap_alloc@V?$allocator@U_Container_proxy@std@@@std@@@std@@QEAAXPEAU_Container_proxy@1@@Z 000000018002d110 f i IocpKeyIoMgr.obj
 0001:0002c160       ??$destroy@U_Container_proxy@std@@@?$allocator_traits@V?$allocator@U_Container_proxy@std@@@std@@@std@@SAXAEAV?$allocator@U_Container_proxy@std@@@1@PEAU_Container_proxy@1@@Z 000000018002d160 f i IocpKeyIoMgr.obj
 0001:0002c1b0       ??$forward@AEAH@std@@YAAEAHAEAH@Z 000000018002d1b0 f i IocpKeyIoMgr.obj
 0001:0002c1c0       ??$forward@AEAPEAU?$_List_node@PEAUIOCPIO@@PEAX@std@@@std@@YAAEAPEAU?$_List_node@PEAUIOCPIO@@PEAX@0@AEAPEAU10@@Z 000000018002d1c0 f i IocpKeyIoMgr.obj
 0001:0002c1d0       ??$forward@AEAPEAU?$_List_node@PEAUIOCPKEY@@PEAX@std@@@std@@YAAEAPEAU?$_List_node@PEAUIOCPKEY@@PEAX@0@AEAPEAU10@@Z 000000018002d1d0 f i IocpKeyIoMgr.obj
 0001:0002c1e0       ??$forward@AEAPEAU?$_Tree_node@U?$pair@$$CBHPEAUIOCPIO@@@std@@PEAX@std@@@std@@YAAEAPEAU?$_Tree_node@U?$pair@$$CBHPEAUIOCPIO@@@std@@PEAX@0@AEAPEAU10@@Z 000000018002d1e0 f i IocpKeyIoMgr.obj
 0001:0002c1f0       ??$forward@AEAPEAU?$_Tree_node@U?$pair@$$CBHPEAUIOCPKEY@@@std@@PEAX@std@@@std@@YAAEAPEAU?$_Tree_node@U?$pair@$$CBHPEAUIOCPKEY@@@std@@PEAX@0@AEAPEAU10@@Z 000000018002d1f0 f i IocpKeyIoMgr.obj
 0001:0002c200       ??$forward@AEAPEAUIOCPIO@@@std@@YAAEAPEAUIOCPIO@@AEAPEAU1@@Z 000000018002d200 f i IocpKeyIoMgr.obj
 0001:0002c210       ??$forward@AEAPEAUIOCPKEY@@@std@@YAAEAPEAUIOCPKEY@@AEAPEAU1@@Z 000000018002d210 f i IocpKeyIoMgr.obj
 0001:0002c220       ??$forward@AEAU?$pair@$$CBHPEAUIOCPIO@@@std@@@std@@YAAEAU?$pair@$$CBHPEAUIOCPIO@@@0@AEAU10@@Z 000000018002d220 f i IocpKeyIoMgr.obj
 0001:0002c230       ??$forward@AEAU?$pair@$$CBHPEAUIOCPKEY@@@std@@@std@@YAAEAU?$pair@$$CBHPEAUIOCPKEY@@@0@AEAU10@@Z 000000018002d230 f i IocpKeyIoMgr.obj
 0001:0002c240       ??$forward@AEAV?$_Tree_iterator@V?$_Tree_val@U?$_Tree_simple_types@U?$pair@$$CBHPEAUIOCPIO@@@std@@@std@@@std@@@std@@@std@@YAAEAV?$_Tree_iterator@V?$_Tree_val@U?$_Tree_simple_types@U?$pair@$$CBHPEAUIOCPIO@@@std@@@std@@@std@@@0@AEAV10@@Z 000000018002d240 f i IocpKeyIoMgr.obj
 0001:0002c250       ??$forward@AEAV?$_Tree_iterator@V?$_Tree_val@U?$_Tree_simple_types@U?$pair@$$CBHPEAUIOCPKEY@@@std@@@std@@@std@@@std@@@std@@YAAEAV?$_Tree_iterator@V?$_Tree_val@U?$_Tree_simple_types@U?$pair@$$CBHPEAUIOCPKEY@@@std@@@std@@@std@@@0@AEAV10@@Z 000000018002d250 f i IocpKeyIoMgr.obj
 0001:0002c260       ??$forward@AEBH@std@@YAAEBHAEBH@Z 000000018002d260 f i IocpKeyIoMgr.obj
 0001:0002c270       ??$forward@AEBQEAUIOCPIO@@@std@@YAAEBQEAUIOCPIO@@AEBQEAU1@@Z 000000018002d270 f i IocpKeyIoMgr.obj
 0001:0002c280       ??$forward@AEBQEAUIOCPKEY@@@std@@YAAEBQEAUIOCPKEY@@AEBQEAU1@@Z 000000018002d280 f i IocpKeyIoMgr.obj
 0001:0002c290       ??$forward@H@std@@YA$$QEAHAEAH@Z 000000018002d290 f i IocpKeyIoMgr.obj
 0001:0002c2a0       ??$forward@PEAUIOCPIO@@@std@@YA$$QEAPEAUIOCPIO@@AEAPEAU1@@Z 000000018002d2a0 f i IocpKeyIoMgr.obj
 0001:0002c2b0       ??$forward@PEAUIOCPKEY@@@std@@YA$$QEAPEAUIOCPKEY@@AEAPEAU1@@Z 000000018002d2b0 f i IocpKeyIoMgr.obj
 0001:0002c2c0       ??$forward@U?$pair@HPEAUIOCPIO@@@std@@@std@@YA$$QEAU?$pair@HPEAUIOCPIO@@@0@AEAU10@@Z 000000018002d2c0 f i IocpKeyIoMgr.obj
 0001:0002c2d0       ??$forward@U?$pair@HPEAUIOCPKEY@@@std@@@std@@YA$$QEAU?$pair@HPEAUIOCPKEY@@@0@AEAU10@@Z 000000018002d2d0 f i IocpKeyIoMgr.obj
 0001:0002c2e0       ??$forward@V?$_Tree_iterator@V?$_Tree_val@U?$_Tree_simple_types@U?$pair@$$CBHPEAUIOCPIO@@@std@@@std@@@std@@@std@@@std@@YA$$QEAV?$_Tree_iterator@V?$_Tree_val@U?$_Tree_simple_types@U?$pair@$$CBHPEAUIOCPIO@@@std@@@std@@@std@@@0@AEAV10@@Z 000000018002d2e0 f i IocpKeyIoMgr.obj
 0001:0002c2f0       ??$forward@V?$_Tree_iterator@V?$_Tree_val@U?$_Tree_simple_types@U?$pair@$$CBHPEAUIOCPKEY@@@std@@@std@@@std@@@std@@@std@@YA$$QEAV?$_Tree_iterator@V?$_Tree_val@U?$_Tree_simple_types@U?$pair@$$CBHPEAUIOCPKEY@@@std@@@std@@@std@@@0@AEAV10@@Z 000000018002d2f0 f i IocpKeyIoMgr.obj
 0001:0002c300       ??$forward@_N@std@@YA$$QEA_NAEA_N@Z 000000018002d300 f i IocpKeyIoMgr.obj
 0001:0002c310       ??$insert@U?$pair@HPEAUIOCPIO@@@std@@@?$_Tree@V?$_Tmap_traits@HPEAUIOCPIO@@U?$less@H@std@@V?$allocator@U?$pair@$$CBHPEAUIOCPIO@@@std@@@3@$0A@@std@@@std@@QEAA?AU?$pair@V?$_Tree_iterator@V?$_Tree_val@U?$_Tree_simple_types@U?$pair@$$CBHPEAUIOCPIO@@@std@@@std@@@std@@@std@@_N@1@$$QEAU?$pair@HPEAUIOCPIO@@@1@@Z 000000018002d310 f i IocpKeyIoMgr.obj
 0001:0002c3c0       ??$insert@U?$pair@HPEAUIOCPKEY@@@std@@@?$_Tree@V?$_Tmap_traits@HPEAUIOCPKEY@@U?$less@H@std@@V?$allocator@U?$pair@$$CBHPEAUIOCPKEY@@@std@@@3@$0A@@std@@@std@@QEAA?AU?$pair@V?$_Tree_iterator@V?$_Tree_val@U?$_Tree_simple_types@U?$pair@$$CBHPEAUIOCPKEY@@@std@@@std@@@std@@@std@@_N@1@$$QEAU?$pair@HPEAUIOCPKEY@@@1@@Z 000000018002d3c0 f i IocpKeyIoMgr.obj
 0001:0002c470       ??$make_pair@AEAHAEAPEAUIOCPKEY@@@std@@YA?AU?$pair@HPEAUIOCPKEY@@@0@AEAHAEAPEAUIOCPKEY@@@Z 000000018002d470 f i IocpKeyIoMgr.obj
 0001:0002c4f0       ??$make_pair@HAEAPEAUIOCPIO@@@std@@YA?AU?$pair@HPEAUIOCPIO@@@0@$$QEAHAEAPEAUIOCPIO@@@Z 000000018002d4f0 f i IocpKeyIoMgr.obj
 0001:0002c570       ??$swap@D@std@@YAXAEAD0@Z  000000018002d570 f i IocpKeyIoMgr.obj
 0001:0002c600       ??0?$_Iterator012@Ubidirectional_iterator_tag@std@@PEAUIOCPIO@@_JPEBQEAU3@AEBQEAU3@U_Iterator_base12@2@@std@@QEAA@AEBU01@@Z 000000018002d600 f i IocpKeyIoMgr.obj
 0001:0002c650       ??0?$_Iterator012@Ubidirectional_iterator_tag@std@@PEAUIOCPIO@@_JPEBQEAU3@AEBQEAU3@U_Iterator_base12@2@@std@@QEAA@XZ 000000018002d650 f i IocpKeyIoMgr.obj
 0001:0002c690       ??0?$_Iterator012@Ubidirectional_iterator_tag@std@@PEAUIOCPKEY@@_JPEBQEAU3@AEBQEAU3@U_Iterator_base12@2@@std@@QEAA@AEBU01@@Z 000000018002d690 f i IocpKeyIoMgr.obj
 0001:0002c6e0       ??0?$_Iterator012@Ubidirectional_iterator_tag@std@@PEAUIOCPKEY@@_JPEBQEAU3@AEBQEAU3@U_Iterator_base12@2@@std@@QEAA@XZ 000000018002d6e0 f i IocpKeyIoMgr.obj
 0001:0002c720       ??0?$_Iterator012@Ubidirectional_iterator_tag@std@@U?$pair@$$CBHPEAUIOCPIO@@@2@_JPEBU32@AEBU32@U_Iterator_base12@2@@std@@QEAA@AEBU01@@Z 000000018002d720 f i IocpKeyIoMgr.obj
 0001:0002c770       ??0?$_Iterator012@Ubidirectional_iterator_tag@std@@U?$pair@$$CBHPEAUIOCPIO@@@2@_JPEBU32@AEBU32@U_Iterator_base12@2@@std@@QEAA@XZ 000000018002d770 f i IocpKeyIoMgr.obj
 0001:0002c7b0       ??0?$_Iterator012@Ubidirectional_iterator_tag@std@@U?$pair@$$CBHPEAUIOCPKEY@@@2@_JPEBU32@AEBU32@U_Iterator_base12@2@@std@@QEAA@AEBU01@@Z 000000018002d7b0 f i IocpKeyIoMgr.obj
 0001:0002c800       ??0?$_Iterator012@Ubidirectional_iterator_tag@std@@U?$pair@$$CBHPEAUIOCPKEY@@@2@_JPEBU32@AEBU32@U_Iterator_base12@2@@std@@QEAA@XZ 000000018002d800 f i IocpKeyIoMgr.obj
 0001:0002c840       ??0?$_List_alloc@$0A@U?$_List_base_types@PEAUIOCPIO@@V?$allocator@PEAUIOCPIO@@@std@@@std@@@std@@QEAA@AEBV?$allocator@PEAUIOCPIO@@@1@@Z 000000018002d840 f i IocpKeyIoMgr.obj
 0001:0002c8c0       ??0?$_List_alloc@$0A@U?$_List_base_types@PEAUIOCPKEY@@V?$allocator@PEAUIOCPKEY@@@std@@@std@@@std@@QEAA@AEBV?$allocator@PEAUIOCPKEY@@@1@@Z 000000018002d8c0 f i IocpKeyIoMgr.obj
 0001:0002c940       ??0?$_List_buy@PEAUIOCPIO@@V?$allocator@PEAUIOCPIO@@@std@@@std@@QEAA@AEBV?$allocator@PEAUIOCPIO@@@1@@Z 000000018002d940 f i IocpKeyIoMgr.obj
 0001:0002c990       ??0?$_List_buy@PEAUIOCPKEY@@V?$allocator@PEAUIOCPKEY@@@std@@@std@@QEAA@AEBV?$allocator@PEAUIOCPKEY@@@1@@Z 000000018002d990 f i IocpKeyIoMgr.obj
 0001:0002c9e0       ??0?$_List_const_iterator@V?$_List_val@U?$_List_simple_types@PEAUIOCPIO@@@std@@@std@@@std@@QEAA@AEBV01@@Z 000000018002d9e0 f i IocpKeyIoMgr.obj
 0001:0002ca30       ??0?$_List_const_iterator@V?$_List_val@U?$_List_simple_types@PEAUIOCPIO@@@std@@@std@@@std@@QEAA@PEAU?$_List_node@PEAUIOCPIO@@PEAX@1@PEBV?$_List_val@U?$_List_simple_types@PEAUIOCPIO@@@std@@@1@@Z 000000018002da30 f i IocpKeyIoMgr.obj
 0001:0002ca90       ??0?$_List_const_iterator@V?$_List_val@U?$_List_simple_types@PEAUIOCPKEY@@@std@@@std@@@std@@QEAA@AEBV01@@Z 000000018002da90 f i IocpKeyIoMgr.obj
 0001:0002cae0       ??0?$_List_const_iterator@V?$_List_val@U?$_List_simple_types@PEAUIOCPKEY@@@std@@@std@@@std@@QEAA@PEAU?$_List_node@PEAUIOCPKEY@@PEAX@1@PEBV?$_List_val@U?$_List_simple_types@PEAUIOCPKEY@@@std@@@1@@Z 000000018002dae0 f i IocpKeyIoMgr.obj
 0001:0002cb40       ??0?$_List_iterator@V?$_List_val@U?$_List_simple_types@PEAUIOCPIO@@@std@@@std@@@std@@QEAA@PEAU?$_List_node@PEAUIOCPIO@@PEAX@1@PEBV?$_List_val@U?$_List_simple_types@PEAUIOCPIO@@@std@@@1@@Z 000000018002db40 f i IocpKeyIoMgr.obj
 0001:0002cba0       ??0?$_List_iterator@V?$_List_val@U?$_List_simple_types@PEAUIOCPKEY@@@std@@@std@@@std@@QEAA@PEAU?$_List_node@PEAUIOCPKEY@@PEAX@1@PEBV?$_List_val@U?$_List_simple_types@PEAUIOCPKEY@@@std@@@1@@Z 000000018002dba0 f i IocpKeyIoMgr.obj
 0001:0002cc00       ??0?$_List_unchecked_const_iterator@V?$_List_val@U?$_List_simple_types@PEAUIOCPIO@@@std@@@std@@U_Iterator_base0@2@@std@@QEAA@PEAU?$_List_node@PEAUIOCPIO@@PEAX@1@PEBV?$_List_val@U?$_List_simple_types@PEAUIOCPIO@@@std@@@1@@Z 000000018002dc00 f i IocpKeyIoMgr.obj
 0001:0002cc70       ??0?$_List_unchecked_const_iterator@V?$_List_val@U?$_List_simple_types@PEAUIOCPIO@@@std@@@std@@U_Iterator_base12@2@@std@@QEAA@AEBV01@@Z 000000018002dc70 f i IocpKeyIoMgr.obj
 0001:0002cce0       ??0?$_List_unchecked_const_iterator@V?$_List_val@U?$_List_simple_types@PEAUIOCPIO@@@std@@@std@@U_Iterator_base12@2@@std@@QEAA@PEAU?$_List_node@PEAUIOCPIO@@PEAX@1@PEBV?$_List_val@U?$_List_simple_types@PEAUIOCPIO@@@std@@@1@@Z 000000018002dce0 f i IocpKeyIoMgr.obj
 0001:0002cd60       ??0?$_List_unchecked_const_iterator@V?$_List_val@U?$_List_simple_types@PEAUIOCPKEY@@@std@@@std@@U_Iterator_base0@2@@std@@QEAA@PEAU?$_List_node@PEAUIOCPKEY@@PEAX@1@PEBV?$_List_val@U?$_List_simple_types@PEAUIOCPKEY@@@std@@@1@@Z 000000018002dd60 f i IocpKeyIoMgr.obj
 0001:0002cdd0       ??0?$_List_unchecked_const_iterator@V?$_List_val@U?$_List_simple_types@PEAUIOCPKEY@@@std@@@std@@U_Iterator_base12@2@@std@@QEAA@AEBV01@@Z 000000018002ddd0 f i IocpKeyIoMgr.obj
 0001:0002ce40       ??0?$_List_unchecked_const_iterator@V?$_List_val@U?$_List_simple_types@PEAUIOCPKEY@@@std@@@std@@U_Iterator_base12@2@@std@@QEAA@PEAU?$_List_node@PEAUIOCPKEY@@PEAX@1@PEBV?$_List_val@U?$_List_simple_types@PEAUIOCPKEY@@@std@@@1@@Z 000000018002de40 f i IocpKeyIoMgr.obj
 0001:0002cec0       ??0?$_List_unchecked_iterator@V?$_List_val@U?$_List_simple_types@PEAUIOCPIO@@@std@@@std@@@std@@QEAA@PEAU?$_List_node@PEAUIOCPIO@@PEAX@1@PEBV?$_List_val@U?$_List_simple_types@PEAUIOCPIO@@@std@@@1@@Z 000000018002dec0 f i IocpKeyIoMgr.obj
 0001:0002cf20       ??0?$_List_unchecked_iterator@V?$_List_val@U?$_List_simple_types@PEAUIOCPKEY@@@std@@@std@@@std@@QEAA@PEAU?$_List_node@PEAUIOCPKEY@@PEAX@1@PEBV?$_List_val@U?$_List_simple_types@PEAUIOCPKEY@@@std@@@1@@Z 000000018002df20 f i IocpKeyIoMgr.obj
 0001:0002cf80       ??0?$_List_val@U?$_List_simple_types@PEAUIOCPIO@@@std@@@std@@QEAA@XZ 000000018002df80 f i IocpKeyIoMgr.obj
 0001:0002cff0       ??0?$_List_val@U?$_List_simple_types@PEAUIOCPKEY@@@std@@@std@@QEAA@XZ 000000018002dff0 f i IocpKeyIoMgr.obj
 0001:0002d060       ??0?$_Tree@V?$_Tmap_traits@HPEAUIOCPIO@@U?$less@H@std@@V?$allocator@U?$pair@$$CBHPEAUIOCPIO@@@std@@@3@$0A@@std@@@std@@QEAA@AEBU?$less@H@1@AEBV?$allocator@U?$pair@$$CBHPEAUIOCPIO@@@std@@@1@@Z 000000018002e060 f i IocpKeyIoMgr.obj
 0001:0002d0c0       ??0?$_Tree@V?$_Tmap_traits@HPEAUIOCPKEY@@U?$less@H@std@@V?$allocator@U?$pair@$$CBHPEAUIOCPKEY@@@std@@@3@$0A@@std@@@std@@QEAA@AEBU?$less@H@1@AEBV?$allocator@U?$pair@$$CBHPEAUIOCPKEY@@@std@@@1@@Z 000000018002e0c0 f i IocpKeyIoMgr.obj
 0001:0002d120       ??0?$_Tree_alloc@$0A@U?$_Tree_base_types@U?$pair@$$CBHPEAUIOCPIO@@@std@@V?$allocator@U?$pair@$$CBHPEAUIOCPIO@@@std@@@2@@std@@@std@@QEAA@AEBV?$allocator@U?$pair@$$CBHPEAUIOCPIO@@@std@@@1@@Z 000000018002e120 f i IocpKeyIoMgr.obj
 0001:0002d1a0       ??0?$_Tree_alloc@$0A@U?$_Tree_base_types@U?$pair@$$CBHPEAUIOCPKEY@@@std@@V?$allocator@U?$pair@$$CBHPEAUIOCPKEY@@@std@@@2@@std@@@std@@QEAA@AEBV?$allocator@U?$pair@$$CBHPEAUIOCPKEY@@@std@@@1@@Z 000000018002e1a0 f i IocpKeyIoMgr.obj
 0001:0002d220       ??0?$_Tree_buy@U?$pair@$$CBHPEAUIOCPIO@@@std@@V?$allocator@U?$pair@$$CBHPEAUIOCPIO@@@std@@@2@@std@@QEAA@AEBV?$allocator@U?$pair@$$CBHPEAUIOCPIO@@@std@@@1@@Z 000000018002e220 f i IocpKeyIoMgr.obj
 0001:0002d270       ??0?$_Tree_buy@U?$pair@$$CBHPEAUIOCPKEY@@@std@@V?$allocator@U?$pair@$$CBHPEAUIOCPKEY@@@std@@@2@@std@@QEAA@AEBV?$allocator@U?$pair@$$CBHPEAUIOCPKEY@@@std@@@1@@Z 000000018002e270 f i IocpKeyIoMgr.obj
 0001:0002d2c0       ??0?$_Tree_comp@$0A@V?$_Tmap_traits@HPEAUIOCPIO@@U?$less@H@std@@V?$allocator@U?$pair@$$CBHPEAUIOCPIO@@@std@@@3@$0A@@std@@@std@@QEAA@AEBU?$less@H@1@AEBV?$allocator@U?$pair@$$CBHPEAUIOCPIO@@@std@@@1@@Z 000000018002e2c0 f i IocpKeyIoMgr.obj
 0001:0002d320       ??0?$_Tree_comp@$0A@V?$_Tmap_traits@HPEAUIOCPKEY@@U?$less@H@std@@V?$allocator@U?$pair@$$CBHPEAUIOCPKEY@@@std@@@3@$0A@@std@@@std@@QEAA@AEBU?$less@H@1@AEBV?$allocator@U?$pair@$$CBHPEAUIOCPKEY@@@std@@@1@@Z 000000018002e320 f i IocpKeyIoMgr.obj
 0001:0002d380       ??0?$_Tree_const_iterator@V?$_Tree_val@U?$_Tree_simple_types@U?$pair@$$CBHPEAUIOCPIO@@@std@@@std@@@std@@@std@@QEAA@AEBV01@@Z 000000018002e380 f i IocpKeyIoMgr.obj
 0001:0002d3d0       ??0?$_Tree_const_iterator@V?$_Tree_val@U?$_Tree_simple_types@U?$pair@$$CBHPEAUIOCPIO@@@std@@@std@@@std@@@std@@QEAA@PEAU?$_Tree_node@U?$pair@$$CBHPEAUIOCPIO@@@std@@PEAX@1@PEBV?$_Tree_val@U?$_Tree_simple_types@U?$pair@$$CBHPEAUIOCPIO@@@std@@@std@@@1@@Z 000000018002e3d0 f i IocpKeyIoMgr.obj
 0001:0002d430       ??0?$_Tree_const_iterator@V?$_Tree_val@U?$_Tree_simple_types@U?$pair@$$CBHPEAUIOCPKEY@@@std@@@std@@@std@@@std@@QEAA@AEBV01@@Z 000000018002e430 f i IocpKeyIoMgr.obj
 0001:0002d480       ??0?$_Tree_const_iterator@V?$_Tree_val@U?$_Tree_simple_types@U?$pair@$$CBHPEAUIOCPKEY@@@std@@@std@@@std@@@std@@QEAA@PEAU?$_Tree_node@U?$pair@$$CBHPEAUIOCPKEY@@@std@@PEAX@1@PEBV?$_Tree_val@U?$_Tree_simple_types@U?$pair@$$CBHPEAUIOCPKEY@@@std@@@std@@@1@@Z 000000018002e480 f i IocpKeyIoMgr.obj
 0001:0002d4e0       ??0?$_Tree_iterator@V?$_Tree_val@U?$_Tree_simple_types@U?$pair@$$CBHPEAUIOCPIO@@@std@@@std@@@std@@@std@@QEAA@AEBV01@@Z 000000018002e4e0 f i IocpKeyIoMgr.obj
 0001:0002d530       ??0?$_Tree_iterator@V?$_Tree_val@U?$_Tree_simple_types@U?$pair@$$CBHPEAUIOCPIO@@@std@@@std@@@std@@@std@@QEAA@PEAU?$_Tree_node@U?$pair@$$CBHPEAUIOCPIO@@@std@@PEAX@1@PEBV?$_Tree_val@U?$_Tree_simple_types@U?$pair@$$CBHPEAUIOCPIO@@@std@@@std@@@1@@Z 000000018002e530 f i IocpKeyIoMgr.obj
 0001:0002d590       ??0?$_Tree_iterator@V?$_Tree_val@U?$_Tree_simple_types@U?$pair@$$CBHPEAUIOCPKEY@@@std@@@std@@@std@@@std@@QEAA@AEBV01@@Z 000000018002e590 f i IocpKeyIoMgr.obj
 0001:0002d5e0       ??0?$_Tree_iterator@V?$_Tree_val@U?$_Tree_simple_types@U?$pair@$$CBHPEAUIOCPKEY@@@std@@@std@@@std@@@std@@QEAA@PEAU?$_Tree_node@U?$pair@$$CBHPEAUIOCPKEY@@@std@@PEAX@1@PEBV?$_Tree_val@U?$_Tree_simple_types@U?$pair@$$CBHPEAUIOCPKEY@@@std@@@std@@@1@@Z 000000018002e5e0 f i IocpKeyIoMgr.obj
 0001:0002d640       ??0?$_Tree_unchecked_const_iterator@V?$_Tree_val@U?$_Tree_simple_types@U?$pair@$$CBHPEAUIOCPIO@@@std@@@std@@@std@@U_Iterator_base12@2@@std@@QEAA@AEBV01@@Z 000000018002e640 f i IocpKeyIoMgr.obj
 0001:0002d6b0       ??0?$_Tree_unchecked_const_iterator@V?$_Tree_val@U?$_Tree_simple_types@U?$pair@$$CBHPEAUIOCPIO@@@std@@@std@@@std@@U_Iterator_base12@2@@std@@QEAA@PEAU?$_Tree_node@U?$pair@$$CBHPEAUIOCPIO@@@std@@PEAX@1@PEBV?$_Tree_val@U?$_Tree_simple_types@U?$pair@$$CBHPEAUIOCPIO@@@std@@@std@@@1@@Z 000000018002e6b0 f i IocpKeyIoMgr.obj
 0001:0002d730       ??0?$_Tree_unchecked_const_iterator@V?$_Tree_val@U?$_Tree_simple_types@U?$pair@$$CBHPEAUIOCPKEY@@@std@@@std@@@std@@U_Iterator_base12@2@@std@@QEAA@AEBV01@@Z 000000018002e730 f i IocpKeyIoMgr.obj
 0001:0002d7a0       ??0?$_Tree_unchecked_const_iterator@V?$_Tree_val@U?$_Tree_simple_types@U?$pair@$$CBHPEAUIOCPKEY@@@std@@@std@@@std@@U_Iterator_base12@2@@std@@QEAA@PEAU?$_Tree_node@U?$pair@$$CBHPEAUIOCPKEY@@@std@@PEAX@1@PEBV?$_Tree_val@U?$_Tree_simple_types@U?$pair@$$CBHPEAUIOCPKEY@@@std@@@std@@@1@@Z 000000018002e7a0 f i IocpKeyIoMgr.obj
 0001:0002d820       ??0?$_Tree_val@U?$_Tree_simple_types@U?$pair@$$CBHPEAUIOCPIO@@@std@@@std@@@std@@QEAA@XZ 000000018002e820 f i IocpKeyIoMgr.obj
 0001:0002d890       ??0?$_Tree_val@U?$_Tree_simple_types@U?$pair@$$CBHPEAUIOCPKEY@@@std@@@std@@@std@@QEAA@XZ 000000018002e890 f i IocpKeyIoMgr.obj
 0001:0002d900       ??0?$_Wrap_alloc@V?$allocator@U?$_List_node@PEAUIOCPIO@@PEAX@std@@@std@@@std@@QEAA@XZ 000000018002e900 f i IocpKeyIoMgr.obj
 0001:0002d940       ??0?$_Wrap_alloc@V?$allocator@U?$_List_node@PEAUIOCPKEY@@PEAX@std@@@std@@@std@@QEAA@XZ 000000018002e940 f i IocpKeyIoMgr.obj
 0001:0002d980       ??0?$_Wrap_alloc@V?$allocator@U?$_Tree_node@U?$pair@$$CBHPEAUIOCPIO@@@std@@PEAX@std@@@std@@@std@@QEAA@XZ 000000018002e980 f i IocpKeyIoMgr.obj
 0001:0002d9c0       ??0?$_Wrap_alloc@V?$allocator@U?$_Tree_node@U?$pair@$$CBHPEAUIOCPKEY@@@std@@PEAX@std@@@std@@@std@@QEAA@XZ 000000018002e9c0 f i IocpKeyIoMgr.obj
 0001:0002da00       ??0?$_Wrap_alloc@V?$allocator@U_Container_proxy@std@@@std@@@std@@QEAA@XZ 000000018002ea00 f i IocpKeyIoMgr.obj
 0001:0002da40       ??0?$allocator@PEAUIOCPIO@@@std@@QEAA@XZ 000000018002ea40 f i IocpKeyIoMgr.obj
 0001:0002da50       ??0?$allocator@PEAUIOCPKEY@@@std@@QEAA@XZ 000000018002ea50 f i IocpKeyIoMgr.obj
 0001:0002da60       ??0?$allocator@U?$_List_node@PEAUIOCPIO@@PEAX@std@@@std@@QEAA@XZ 000000018002ea60 f i IocpKeyIoMgr.obj
 0001:0002da70       ??0?$allocator@U?$_List_node@PEAUIOCPKEY@@PEAX@std@@@std@@QEAA@XZ 000000018002ea70 f i IocpKeyIoMgr.obj
 0001:0002da80       ??0?$allocator@U?$_Tree_node@U?$pair@$$CBHPEAUIOCPIO@@@std@@PEAX@std@@@std@@QEAA@XZ 000000018002ea80 f i IocpKeyIoMgr.obj
 0001:0002da90       ??0?$allocator@U?$_Tree_node@U?$pair@$$CBHPEAUIOCPKEY@@@std@@PEAX@std@@@std@@QEAA@XZ 000000018002ea90 f i IocpKeyIoMgr.obj
 0001:0002daa0       ??0?$allocator@U?$pair@$$CBHPEAUIOCPIO@@@std@@@std@@QEAA@XZ 000000018002eaa0 f i IocpKeyIoMgr.obj
 0001:0002dab0       ??0?$allocator@U?$pair@$$CBHPEAUIOCPKEY@@@std@@@std@@QEAA@XZ 000000018002eab0 f i IocpKeyIoMgr.obj
 0001:0002dac0       ??0?$list@PEAUIOCPIO@@V?$allocator@PEAUIOCPIO@@@std@@@std@@QEAA@XZ 000000018002eac0 f i IocpKeyIoMgr.obj
 0001:0002db10       ??0?$list@PEAUIOCPKEY@@V?$allocator@PEAUIOCPKEY@@@std@@@std@@QEAA@XZ 000000018002eb10 f i IocpKeyIoMgr.obj
 0001:0002db60       ??0?$map@HPEAUIOCPIO@@U?$less@H@std@@V?$allocator@U?$pair@$$CBHPEAUIOCPIO@@@std@@@3@@std@@QEAA@XZ 000000018002eb60 f i IocpKeyIoMgr.obj
 0001:0002dbc0       ??0?$map@HPEAUIOCPKEY@@U?$less@H@std@@V?$allocator@U?$pair@$$CBHPEAUIOCPKEY@@@std@@@3@@std@@QEAA@XZ 000000018002ebc0 f i IocpKeyIoMgr.obj
 0001:0002dc20       ??0IOCPIO@@QEAA@XZ         000000018002ec20 f i IocpKeyIoMgr.obj
 0001:0002dc70       ??0IOCPKEY@@QEAA@XZ        000000018002ec70 f i IocpKeyIoMgr.obj
 0001:0002dd00       ??0IOCP_RECV_BUF@@QEAA@XZ  000000018002ed00 f i IocpKeyIoMgr.obj
 0001:0002dd50       ??1?$_Iterator012@Ubidirectional_iterator_tag@std@@PEAUIOCPIO@@_JPEBQEAU3@AEBQEAU3@U_Iterator_base12@2@@std@@QEAA@XZ 000000018002ed50 f i IocpKeyIoMgr.obj
 0001:0002dd90       ??1?$_Iterator012@Ubidirectional_iterator_tag@std@@PEAUIOCPKEY@@_JPEBQEAU3@AEBQEAU3@U_Iterator_base12@2@@std@@QEAA@XZ 000000018002ed90 f i IocpKeyIoMgr.obj
 0001:0002ddd0       ??1?$_Iterator012@Ubidirectional_iterator_tag@std@@U?$pair@$$CBHPEAUIOCPIO@@@2@_JPEBU32@AEBU32@U_Iterator_base12@2@@std@@QEAA@XZ 000000018002edd0 f i IocpKeyIoMgr.obj
 0001:0002de10       ??1?$_Iterator012@Ubidirectional_iterator_tag@std@@U?$pair@$$CBHPEAUIOCPKEY@@@2@_JPEBU32@AEBU32@U_Iterator_base12@2@@std@@QEAA@XZ 000000018002ee10 f i IocpKeyIoMgr.obj
 0001:0002de50       ??1?$_List_alloc@$0A@U?$_List_base_types@PEAUIOCPIO@@V?$allocator@PEAUIOCPIO@@@std@@@std@@@std@@QEAA@XZ 000000018002ee50 f i IocpKeyIoMgr.obj
 0001:0002deb0       ??1?$_List_alloc@$0A@U?$_List_base_types@PEAUIOCPKEY@@V?$allocator@PEAUIOCPKEY@@@std@@@std@@@std@@QEAA@XZ 000000018002eeb0 f i IocpKeyIoMgr.obj
 0001:0002df10       ??1?$_List_buy@PEAUIOCPIO@@V?$allocator@PEAUIOCPIO@@@std@@@std@@QEAA@XZ 000000018002ef10 f i IocpKeyIoMgr.obj
 0001:0002df50       ??1?$_List_buy@PEAUIOCPKEY@@V?$allocator@PEAUIOCPKEY@@@std@@@std@@QEAA@XZ 000000018002ef50 f i IocpKeyIoMgr.obj
 0001:0002df90       ??1?$_List_const_iterator@V?$_List_val@U?$_List_simple_types@PEAUIOCPIO@@@std@@@std@@@std@@QEAA@XZ 000000018002ef90 f i IocpKeyIoMgr.obj
 0001:0002dfd0       ??1?$_List_const_iterator@V?$_List_val@U?$_List_simple_types@PEAUIOCPKEY@@@std@@@std@@@std@@QEAA@XZ 000000018002efd0 f i IocpKeyIoMgr.obj
 0001:0002e010       ??1?$_List_iterator@V?$_List_val@U?$_List_simple_types@PEAUIOCPIO@@@std@@@std@@@std@@QEAA@XZ 000000018002f010 f i IocpKeyIoMgr.obj
 0001:0002e050       ??1?$_List_iterator@V?$_List_val@U?$_List_simple_types@PEAUIOCPKEY@@@std@@@std@@@std@@QEAA@XZ 000000018002f050 f i IocpKeyIoMgr.obj
 0001:0002e090       ??1?$_List_unchecked_const_iterator@V?$_List_val@U?$_List_simple_types@PEAUIOCPIO@@@std@@@std@@U_Iterator_base12@2@@std@@QEAA@XZ 000000018002f090 f i IocpKeyIoMgr.obj
 0001:0002e0d0       ??1?$_List_unchecked_const_iterator@V?$_List_val@U?$_List_simple_types@PEAUIOCPKEY@@@std@@@std@@U_Iterator_base12@2@@std@@QEAA@XZ 000000018002f0d0 f i IocpKeyIoMgr.obj
 0001:0002e110       ??1?$_List_val@U?$_List_simple_types@PEAUIOCPIO@@@std@@@std@@QEAA@XZ 000000018002f110 f i IocpKeyIoMgr.obj
 0001:0002e150       ??1?$_List_val@U?$_List_simple_types@PEAUIOCPKEY@@@std@@@std@@QEAA@XZ 000000018002f150 f i IocpKeyIoMgr.obj
 0001:0002e190       ??1?$_Tree@V?$_Tmap_traits@HPEAUIOCPIO@@U?$less@H@std@@V?$allocator@U?$pair@$$CBHPEAUIOCPIO@@@std@@@3@$0A@@std@@@std@@QEAA@XZ 000000018002f190 f i IocpKeyIoMgr.obj
 0001:0002e1e0       ??1?$_Tree@V?$_Tmap_traits@HPEAUIOCPKEY@@U?$less@H@std@@V?$allocator@U?$pair@$$CBHPEAUIOCPKEY@@@std@@@3@$0A@@std@@@std@@QEAA@XZ 000000018002f1e0 f i IocpKeyIoMgr.obj
 0001:0002e230       ??1?$_Tree_alloc@$0A@U?$_Tree_base_types@U?$pair@$$CBHPEAUIOCPIO@@@std@@V?$allocator@U?$pair@$$CBHPEAUIOCPIO@@@std@@@2@@std@@@std@@QEAA@XZ 000000018002f230 f i IocpKeyIoMgr.obj
 0001:0002e290       ??1?$_Tree_alloc@$0A@U?$_Tree_base_types@U?$pair@$$CBHPEAUIOCPKEY@@@std@@V?$allocator@U?$pair@$$CBHPEAUIOCPKEY@@@std@@@2@@std@@@std@@QEAA@XZ 000000018002f290 f i IocpKeyIoMgr.obj
 0001:0002e2f0       ??1?$_Tree_buy@U?$pair@$$CBHPEAUIOCPIO@@@std@@V?$allocator@U?$pair@$$CBHPEAUIOCPIO@@@std@@@2@@std@@QEAA@XZ 000000018002f2f0 f i IocpKeyIoMgr.obj
 0001:0002e330       ??1?$_Tree_buy@U?$pair@$$CBHPEAUIOCPKEY@@@std@@V?$allocator@U?$pair@$$CBHPEAUIOCPKEY@@@std@@@2@@std@@QEAA@XZ 000000018002f330 f i IocpKeyIoMgr.obj
 0001:0002e370       ??1?$_Tree_comp@$0A@V?$_Tmap_traits@HPEAUIOCPIO@@U?$less@H@std@@V?$allocator@U?$pair@$$CBHPEAUIOCPIO@@@std@@@3@$0A@@std@@@std@@QEAA@XZ 000000018002f370 f i IocpKeyIoMgr.obj
 0001:0002e3b0       ??1?$_Tree_comp@$0A@V?$_Tmap_traits@HPEAUIOCPKEY@@U?$less@H@std@@V?$allocator@U?$pair@$$CBHPEAUIOCPKEY@@@std@@@3@$0A@@std@@@std@@QEAA@XZ 000000018002f3b0 f i IocpKeyIoMgr.obj
 0001:0002e3f0       ??1?$_Tree_const_iterator@V?$_Tree_val@U?$_Tree_simple_types@U?$pair@$$CBHPEAUIOCPIO@@@std@@@std@@@std@@@std@@QEAA@XZ 000000018002f3f0 f i IocpKeyIoMgr.obj
 0001:0002e430       ??1?$_Tree_const_iterator@V?$_Tree_val@U?$_Tree_simple_types@U?$pair@$$CBHPEAUIOCPKEY@@@std@@@std@@@std@@@std@@QEAA@XZ 000000018002f430 f i IocpKeyIoMgr.obj
 0001:0002e470       ??1?$_Tree_iterator@V?$_Tree_val@U?$_Tree_simple_types@U?$pair@$$CBHPEAUIOCPIO@@@std@@@std@@@std@@@std@@QEAA@XZ 000000018002f470 f i IocpKeyIoMgr.obj
 0001:0002e4b0       ??1?$_Tree_iterator@V?$_Tree_val@U?$_Tree_simple_types@U?$pair@$$CBHPEAUIOCPKEY@@@std@@@std@@@std@@@std@@QEAA@XZ 000000018002f4b0 f i IocpKeyIoMgr.obj
 0001:0002e4f0       ??1?$_Tree_unchecked_const_iterator@V?$_Tree_val@U?$_Tree_simple_types@U?$pair@$$CBHPEAUIOCPIO@@@std@@@std@@@std@@U_Iterator_base12@2@@std@@QEAA@XZ 000000018002f4f0 f i IocpKeyIoMgr.obj
 0001:0002e530       ??1?$_Tree_unchecked_const_iterator@V?$_Tree_val@U?$_Tree_simple_types@U?$pair@$$CBHPEAUIOCPKEY@@@std@@@std@@@std@@U_Iterator_base12@2@@std@@QEAA@XZ 000000018002f530 f i IocpKeyIoMgr.obj
 0001:0002e570       ??1?$_Tree_val@U?$_Tree_simple_types@U?$pair@$$CBHPEAUIOCPIO@@@std@@@std@@@std@@QEAA@XZ 000000018002f570 f i IocpKeyIoMgr.obj
 0001:0002e5b0       ??1?$_Tree_val@U?$_Tree_simple_types@U?$pair@$$CBHPEAUIOCPKEY@@@std@@@std@@@std@@QEAA@XZ 000000018002f5b0 f i IocpKeyIoMgr.obj
 0001:0002e5f0       ??1?$list@PEAUIOCPIO@@V?$allocator@PEAUIOCPIO@@@std@@@std@@QEAA@XZ 000000018002f5f0 f i IocpKeyIoMgr.obj
 0001:0002e640       ??1?$list@PEAUIOCPKEY@@V?$allocator@PEAUIOCPKEY@@@std@@@std@@QEAA@XZ 000000018002f640 f i IocpKeyIoMgr.obj
 0001:0002e690       ??1?$map@HPEAUIOCPIO@@U?$less@H@std@@V?$allocator@U?$pair@$$CBHPEAUIOCPIO@@@std@@@3@@std@@QEAA@XZ 000000018002f690 f i IocpKeyIoMgr.obj
 0001:0002e6d0       ??1?$map@HPEAUIOCPKEY@@U?$less@H@std@@V?$allocator@U?$pair@$$CBHPEAUIOCPKEY@@@std@@@3@@std@@QEAA@XZ 000000018002f6d0 f i IocpKeyIoMgr.obj
 0001:0002e710       ??1?$pair@V?$_Tree_iterator@V?$_Tree_val@U?$_Tree_simple_types@U?$pair@$$CBHPEAUIOCPIO@@@std@@@std@@@std@@@std@@V12@@std@@QEAA@XZ 000000018002f710 f i IocpKeyIoMgr.obj
 0001:0002e770       ??1?$pair@V?$_Tree_iterator@V?$_Tree_val@U?$_Tree_simple_types@U?$pair@$$CBHPEAUIOCPIO@@@std@@@std@@@std@@@std@@_N@std@@QEAA@XZ 000000018002f770 f i IocpKeyIoMgr.obj
 0001:0002e7b0       ??1?$pair@V?$_Tree_iterator@V?$_Tree_val@U?$_Tree_simple_types@U?$pair@$$CBHPEAUIOCPKEY@@@std@@@std@@@std@@@std@@V12@@std@@QEAA@XZ 000000018002f7b0 f i IocpKeyIoMgr.obj
 0001:0002e810       ??1?$pair@V?$_Tree_iterator@V?$_Tree_val@U?$_Tree_simple_types@U?$pair@$$CBHPEAUIOCPKEY@@@std@@@std@@@std@@@std@@_N@std@@QEAA@XZ 000000018002f810 f i IocpKeyIoMgr.obj
 0001:0002e850       ??8?$_List_const_iterator@V?$_List_val@U?$_List_simple_types@PEAUIOCPIO@@@std@@@std@@@std@@QEBA_NAEBV01@@Z 000000018002f850 f i IocpKeyIoMgr.obj
 0001:0002e9c0       ??8?$_List_const_iterator@V?$_List_val@U?$_List_simple_types@PEAUIOCPKEY@@@std@@@std@@@std@@QEBA_NAEBV01@@Z 000000018002f9c0 f i IocpKeyIoMgr.obj
 0001:0002eb30       ??8?$_Tree_const_iterator@V?$_Tree_val@U?$_Tree_simple_types@U?$pair@$$CBHPEAUIOCPIO@@@std@@@std@@@std@@@std@@QEBA_NAEBV01@@Z 000000018002fb30 f i IocpKeyIoMgr.obj
 0001:0002eca0       ??8?$_Tree_const_iterator@V?$_Tree_val@U?$_Tree_simple_types@U?$pair@$$CBHPEAUIOCPKEY@@@std@@@std@@@std@@@std@@QEBA_NAEBV01@@Z 000000018002fca0 f i IocpKeyIoMgr.obj
 0001:0002ee10       ??9?$_List_const_iterator@V?$_List_val@U?$_List_simple_types@PEAUIOCPIO@@@std@@@std@@@std@@QEBA_NAEBV01@@Z 000000018002fe10 f i IocpKeyIoMgr.obj
 0001:0002ee80       ??9?$_List_const_iterator@V?$_List_val@U?$_List_simple_types@PEAUIOCPKEY@@@std@@@std@@@std@@QEBA_NAEBV01@@Z 000000018002fe80 f i IocpKeyIoMgr.obj
 0001:0002eef0       ??9?$_Tree_const_iterator@V?$_Tree_val@U?$_Tree_simple_types@U?$pair@$$CBHPEAUIOCPIO@@@std@@@std@@@std@@@std@@QEBA_NAEBV01@@Z 000000018002fef0 f i IocpKeyIoMgr.obj
 0001:0002ef60       ??9?$_Tree_const_iterator@V?$_Tree_val@U?$_Tree_simple_types@U?$pair@$$CBHPEAUIOCPKEY@@@std@@@std@@@std@@@std@@QEBA_NAEBV01@@Z 000000018002ff60 f i IocpKeyIoMgr.obj
 0001:0002efd0       ??C?$_Tree_iterator@V?$_Tree_val@U?$_Tree_simple_types@U?$pair@$$CBHPEAUIOCPIO@@@std@@@std@@@std@@@std@@QEBAPEAU?$pair@$$CBHPEAUIOCPIO@@@1@XZ 000000018002ffd0 f i IocpKeyIoMgr.obj
 0001:0002f020       ??C?$_Tree_iterator@V?$_Tree_val@U?$_Tree_simple_types@U?$pair@$$CBHPEAUIOCPKEY@@@std@@@std@@@std@@@std@@QEBAPEAU?$pair@$$CBHPEAUIOCPKEY@@@1@XZ 0000000180030020 f i IocpKeyIoMgr.obj
 0001:0002f070       ??D?$_List_const_iterator@V?$_List_val@U?$_List_simple_types@PEAUIOCPIO@@@std@@@std@@@std@@QEBAAEBQEAUIOCPIO@@XZ 0000000180030070 f i IocpKeyIoMgr.obj
 0001:0002f1b0       ??D?$_List_const_iterator@V?$_List_val@U?$_List_simple_types@PEAUIOCPKEY@@@std@@@std@@@std@@QEBAAEBQEAUIOCPKEY@@XZ 00000001800301b0 f i IocpKeyIoMgr.obj
 0001:0002f2f0       ??D?$_List_iterator@V?$_List_val@U?$_List_simple_types@PEAUIOCPIO@@@std@@@std@@@std@@QEBAAEAPEAUIOCPIO@@XZ 00000001800302f0 f i IocpKeyIoMgr.obj
 0001:0002f330       ??D?$_List_iterator@V?$_List_val@U?$_List_simple_types@PEAUIOCPKEY@@@std@@@std@@@std@@QEBAAEAPEAUIOCPKEY@@XZ 0000000180030330 f i IocpKeyIoMgr.obj
 0001:0002f370       ??D?$_Tree_const_iterator@V?$_Tree_val@U?$_Tree_simple_types@U?$pair@$$CBHPEAUIOCPIO@@@std@@@std@@@std@@@std@@QEBAAEBU?$pair@$$CBHPEAUIOCPIO@@@1@XZ 0000000180030370 f i IocpKeyIoMgr.obj
 0001:0002f4b0       ??D?$_Tree_const_iterator@V?$_Tree_val@U?$_Tree_simple_types@U?$pair@$$CBHPEAUIOCPKEY@@@std@@@std@@@std@@@std@@QEBAAEBU?$pair@$$CBHPEAUIOCPKEY@@@1@XZ 00000001800304b0 f i IocpKeyIoMgr.obj
 0001:0002f5f0       ??D?$_Tree_iterator@V?$_Tree_val@U?$_Tree_simple_types@U?$pair@$$CBHPEAUIOCPIO@@@std@@@std@@@std@@@std@@QEBAAEAU?$pair@$$CBHPEAUIOCPIO@@@1@XZ 00000001800305f0 f i IocpKeyIoMgr.obj
 0001:0002f630       ??D?$_Tree_iterator@V?$_Tree_val@U?$_Tree_simple_types@U?$pair@$$CBHPEAUIOCPKEY@@@std@@@std@@@std@@@std@@QEBAAEAU?$pair@$$CBHPEAUIOCPKEY@@@1@XZ 0000000180030630 f i IocpKeyIoMgr.obj
 0001:0002f670       ??E?$_List_const_iterator@V?$_List_val@U?$_List_simple_types@PEAUIOCPIO@@@std@@@std@@@std@@QEAA?AV01@H@Z 0000000180030670 f i IocpKeyIoMgr.obj
 0001:0002f730       ??E?$_List_const_iterator@V?$_List_val@U?$_List_simple_types@PEAUIOCPIO@@@std@@@std@@@std@@QEAAAEAV01@XZ 0000000180030730 f i IocpKeyIoMgr.obj
 0001:0002f880       ??E?$_List_const_iterator@V?$_List_val@U?$_List_simple_types@PEAUIOCPKEY@@@std@@@std@@@std@@QEAA?AV01@H@Z 0000000180030880 f i IocpKeyIoMgr.obj
 0001:0002f940       ??E?$_List_const_iterator@V?$_List_val@U?$_List_simple_types@PEAUIOCPKEY@@@std@@@std@@@std@@QEAAAEAV01@XZ 0000000180030940 f i IocpKeyIoMgr.obj
 0001:0002fa90       ??E?$_List_iterator@V?$_List_val@U?$_List_simple_types@PEAUIOCPIO@@@std@@@std@@@std@@QEAAAEAV01@XZ 0000000180030a90 f i IocpKeyIoMgr.obj
 0001:0002fad0       ??E?$_List_iterator@V?$_List_val@U?$_List_simple_types@PEAUIOCPKEY@@@std@@@std@@@std@@QEAAAEAV01@XZ 0000000180030ad0 f i IocpKeyIoMgr.obj
 0001:0002fb10       ??E?$_Tree_const_iterator@V?$_Tree_val@U?$_Tree_simple_types@U?$pair@$$CBHPEAUIOCPIO@@@std@@@std@@@std@@@std@@QEAA?AV01@H@Z 0000000180030b10 f i IocpKeyIoMgr.obj
 0001:0002fbd0       ??E?$_Tree_const_iterator@V?$_Tree_val@U?$_Tree_simple_types@U?$pair@$$CBHPEAUIOCPIO@@@std@@@std@@@std@@@std@@QEAAAEAV01@XZ 0000000180030bd0 f i IocpKeyIoMgr.obj
 0001:0002fd10       ??E?$_Tree_const_iterator@V?$_Tree_val@U?$_Tree_simple_types@U?$pair@$$CBHPEAUIOCPKEY@@@std@@@std@@@std@@@std@@QEAA?AV01@H@Z 0000000180030d10 f i IocpKeyIoMgr.obj
 0001:0002fdd0       ??E?$_Tree_const_iterator@V?$_Tree_val@U?$_Tree_simple_types@U?$pair@$$CBHPEAUIOCPKEY@@@std@@@std@@@std@@@std@@QEAAAEAV01@XZ 0000000180030dd0 f i IocpKeyIoMgr.obj
 0001:0002ff10       ??E?$_Tree_iterator@V?$_Tree_val@U?$_Tree_simple_types@U?$pair@$$CBHPEAUIOCPIO@@@std@@@std@@@std@@@std@@QEAAAEAV01@XZ 0000000180030f10 f i IocpKeyIoMgr.obj
 0001:0002ff50       ??E?$_Tree_iterator@V?$_Tree_val@U?$_Tree_simple_types@U?$pair@$$CBHPEAUIOCPKEY@@@std@@@std@@@std@@@std@@QEAA?AV01@H@Z 0000000180030f50 f i IocpKeyIoMgr.obj
 0001:00030010       ??E?$_Tree_iterator@V?$_Tree_val@U?$_Tree_simple_types@U?$pair@$$CBHPEAUIOCPKEY@@@std@@@std@@@std@@@std@@QEAAAEAV01@XZ 0000000180031010 f i IocpKeyIoMgr.obj
 0001:00030050       ??E?$_Tree_unchecked_const_iterator@V?$_Tree_val@U?$_Tree_simple_types@U?$pair@$$CBHPEAUIOCPIO@@@std@@@std@@@std@@U_Iterator_base12@2@@std@@QEAAAEAV01@XZ 0000000180031050 f i IocpKeyIoMgr.obj
 0001:00030170       ??E?$_Tree_unchecked_const_iterator@V?$_Tree_val@U?$_Tree_simple_types@U?$pair@$$CBHPEAUIOCPKEY@@@std@@@std@@@std@@U_Iterator_base12@2@@std@@QEAAAEAV01@XZ 0000000180031170 f i IocpKeyIoMgr.obj
 0001:00030290       ??F?$_Tree_const_iterator@V?$_Tree_val@U?$_Tree_simple_types@U?$pair@$$CBHPEAUIOCPIO@@@std@@@std@@@std@@@std@@QEAAAEAV01@XZ 0000000180031290 f i IocpKeyIoMgr.obj
 0001:00030490       ??F?$_Tree_const_iterator@V?$_Tree_val@U?$_Tree_simple_types@U?$pair@$$CBHPEAUIOCPKEY@@@std@@@std@@@std@@@std@@QEAAAEAV01@XZ 0000000180031490 f i IocpKeyIoMgr.obj
 0001:00030690       ??F?$_Tree_iterator@V?$_Tree_val@U?$_Tree_simple_types@U?$pair@$$CBHPEAUIOCPIO@@@std@@@std@@@std@@@std@@QEAAAEAV01@XZ 0000000180031690 f i IocpKeyIoMgr.obj
 0001:000306d0       ??F?$_Tree_iterator@V?$_Tree_val@U?$_Tree_simple_types@U?$pair@$$CBHPEAUIOCPKEY@@@std@@@std@@@std@@@std@@QEAAAEAV01@XZ 00000001800316d0 f i IocpKeyIoMgr.obj
 0001:00030710       ??F?$_Tree_unchecked_const_iterator@V?$_Tree_val@U?$_Tree_simple_types@U?$pair@$$CBHPEAUIOCPIO@@@std@@@std@@@std@@U_Iterator_base12@2@@std@@QEAAAEAV01@XZ 0000000180031710 f i IocpKeyIoMgr.obj
 0001:00030870       ??F?$_Tree_unchecked_const_iterator@V?$_Tree_val@U?$_Tree_simple_types@U?$pair@$$CBHPEAUIOCPKEY@@@std@@@std@@@std@@U_Iterator_base12@2@@std@@QEAAAEAV01@XZ 0000000180031870 f i IocpKeyIoMgr.obj
 0001:000309d0       ??R?$less@H@std@@QEBA_NAEBH0@Z 00000001800319d0 f i IocpKeyIoMgr.obj
 0001:00030a40       ??_GCIocpKeyIoMgr@@UEAAPEAXI@Z 0000000180031a40 f i IocpKeyIoMgr.obj
 0001:00030a40       ??_ECIocpKeyIoMgr@@UEAAPEAXI@Z 0000000180031a40 f i IocpKeyIoMgr.obj
 0001:00030aa0       ?_Adopt@_Iterator_base0@std@@QEAAXPEBX@Z 0000000180031aa0 f i IocpKeyIoMgr.obj
 0001:00030ab0       ?_Alloc_proxy@?$_List_alloc@$0A@U?$_List_base_types@PEAUIOCPIO@@V?$allocator@PEAUIOCPIO@@@std@@@std@@@std@@QEAAXXZ 0000000180031ab0 f i IocpKeyIoMgr.obj
 0001:00030b60       ?_Alloc_proxy@?$_List_alloc@$0A@U?$_List_base_types@PEAUIOCPKEY@@V?$allocator@PEAUIOCPKEY@@@std@@@std@@@std@@QEAAXXZ 0000000180031b60 f i IocpKeyIoMgr.obj
 0001:00030c10       ?_Alloc_proxy@?$_Tree_alloc@$0A@U?$_Tree_base_types@U?$pair@$$CBHPEAUIOCPIO@@@std@@V?$allocator@U?$pair@$$CBHPEAUIOCPIO@@@std@@@2@@std@@@std@@QEAAXXZ 0000000180031c10 f i IocpKeyIoMgr.obj
 0001:00030cd0       ?_Alloc_proxy@?$_Tree_alloc@$0A@U?$_Tree_base_types@U?$pair@$$CBHPEAUIOCPKEY@@@std@@V?$allocator@U?$pair@$$CBHPEAUIOCPKEY@@@std@@@2@@std@@@std@@QEAAXXZ 0000000180031cd0 f i IocpKeyIoMgr.obj
 0001:00030d90       ?_Buyheadnode@?$_List_alloc@$0A@U?$_List_base_types@PEAUIOCPIO@@V?$allocator@PEAUIOCPIO@@@std@@@std@@@std@@QEAAPEAU?$_List_node@PEAUIOCPIO@@PEAX@2@XZ 0000000180031d90 f i IocpKeyIoMgr.obj
 0001:00030dd0       ?_Buyheadnode@?$_List_alloc@$0A@U?$_List_base_types@PEAUIOCPKEY@@V?$allocator@PEAUIOCPKEY@@@std@@@std@@@std@@QEAAPEAU?$_List_node@PEAUIOCPKEY@@PEAX@2@XZ 0000000180031dd0 f i IocpKeyIoMgr.obj
 0001:00030e10       ?_Buyheadnode@?$_Tree_alloc@$0A@U?$_Tree_base_types@U?$pair@$$CBHPEAUIOCPIO@@@std@@V?$allocator@U?$pair@$$CBHPEAUIOCPIO@@@std@@@2@@std@@@std@@QEAAPEAU?$_Tree_node@U?$pair@$$CBHPEAUIOCPIO@@@std@@PEAX@2@XZ 0000000180031e10 f i IocpKeyIoMgr.obj
 0001:00030fc0       ?_Buyheadnode@?$_Tree_alloc@$0A@U?$_Tree_base_types@U?$pair@$$CBHPEAUIOCPKEY@@@std@@V?$allocator@U?$pair@$$CBHPEAUIOCPKEY@@@std@@@2@@std@@@std@@QEAAPEAU?$_Tree_node@U?$pair@$$CBHPEAUIOCPKEY@@@std@@PEAX@2@XZ 0000000180031fc0 f i IocpKeyIoMgr.obj
 0001:00031170       ?_Buynode0@?$_List_alloc@$0A@U?$_List_base_types@PEAUIOCPIO@@V?$allocator@PEAUIOCPIO@@@std@@@std@@@std@@QEAAPEAU?$_List_node@PEAUIOCPIO@@PEAX@2@PEAU32@0@Z 0000000180032170 f i IocpKeyIoMgr.obj
 0001:000312b0       ?_Buynode0@?$_List_alloc@$0A@U?$_List_base_types@PEAUIOCPKEY@@V?$allocator@PEAUIOCPKEY@@@std@@@std@@@std@@QEAAPEAU?$_List_node@PEAUIOCPKEY@@PEAX@2@PEAU32@0@Z 00000001800322b0 f i IocpKeyIoMgr.obj
 0001:000313f0       ?_Buynode0@?$_Tree_buy@U?$pair@$$CBHPEAUIOCPIO@@@std@@V?$allocator@U?$pair@$$CBHPEAUIOCPIO@@@std@@@2@@std@@QEAAPEAU?$_Tree_node@U?$pair@$$CBHPEAUIOCPIO@@@std@@PEAX@2@XZ 00000001800323f0 f i IocpKeyIoMgr.obj
 0001:000315b0       ?_Buynode0@?$_Tree_buy@U?$pair@$$CBHPEAUIOCPKEY@@@std@@V?$allocator@U?$pair@$$CBHPEAUIOCPKEY@@@std@@@2@@std@@QEAAPEAU?$_Tree_node@U?$pair@$$CBHPEAUIOCPKEY@@@std@@PEAX@2@XZ 00000001800325b0 f i IocpKeyIoMgr.obj
 0001:00031770       ?_Color@?$_Tree_val@U?$_Tree_simple_types@U?$pair@$$CBHPEAUIOCPIO@@@std@@@std@@@std@@SAAEADPEAU?$_Tree_node@U?$pair@$$CBHPEAUIOCPIO@@@std@@PEAX@2@@Z 0000000180032770 f i IocpKeyIoMgr.obj
 0001:00031790       ?_Color@?$_Tree_val@U?$_Tree_simple_types@U?$pair@$$CBHPEAUIOCPKEY@@@std@@@std@@@std@@SAAEADPEAU?$_Tree_node@U?$pair@$$CBHPEAUIOCPKEY@@@std@@PEAX@2@@Z 0000000180032790 f i IocpKeyIoMgr.obj
 0001:000317b0       ?_Destroy_if_not_nil@?$_Tree@V?$_Tmap_traits@HPEAUIOCPIO@@U?$less@H@std@@V?$allocator@U?$pair@$$CBHPEAUIOCPIO@@@std@@@3@$0A@@std@@@std@@IEAAXPEAU?$_Tree_node@U?$pair@$$CBHPEAUIOCPIO@@@std@@PEAX@2@@Z 00000001800327b0 f i IocpKeyIoMgr.obj
 0001:00031860       ?_Destroy_if_not_nil@?$_Tree@V?$_Tmap_traits@HPEAUIOCPKEY@@U?$less@H@std@@V?$allocator@U?$pair@$$CBHPEAUIOCPKEY@@@std@@@3@$0A@@std@@@std@@IEAAXPEAU?$_Tree_node@U?$pair@$$CBHPEAUIOCPKEY@@@std@@PEAX@2@@Z 0000000180032860 f i IocpKeyIoMgr.obj
 0001:00031910       ?_Eqrange@?$_Tree@V?$_Tmap_traits@HPEAUIOCPIO@@U?$less@H@std@@V?$allocator@U?$pair@$$CBHPEAUIOCPIO@@@std@@@3@$0A@@std@@@std@@IEAA?AU?$pair@V?$_Tree_iterator@V?$_Tree_val@U?$_Tree_simple_types@U?$pair@$$CBHPEAUIOCPIO@@@std@@@std@@@std@@@std@@V12@@2@AEBH@Z 0000000180032910 f i IocpKeyIoMgr.obj
 0001:00031d20       ?_Eqrange@?$_Tree@V?$_Tmap_traits@HPEAUIOCPKEY@@U?$less@H@std@@V?$allocator@U?$pair@$$CBHPEAUIOCPKEY@@@std@@@3@$0A@@std@@@std@@IEAA?AU?$pair@V?$_Tree_iterator@V?$_Tree_val@U?$_Tree_simple_types@U?$pair@$$CBHPEAUIOCPKEY@@@std@@@std@@@std@@@std@@V12@@2@AEBH@Z 0000000180032d20 f i IocpKeyIoMgr.obj
 0001:00032130       ?_Erase@?$_Tree@V?$_Tmap_traits@HPEAUIOCPIO@@U?$less@H@std@@V?$allocator@U?$pair@$$CBHPEAUIOCPIO@@@std@@@3@$0A@@std@@@std@@IEAAXPEAU?$_Tree_node@U?$pair@$$CBHPEAUIOCPIO@@@std@@PEAX@2@@Z 0000000180033130 f i IocpKeyIoMgr.obj
 0001:00032240       ?_Erase@?$_Tree@V?$_Tmap_traits@HPEAUIOCPKEY@@U?$less@H@std@@V?$allocator@U?$pair@$$CBHPEAUIOCPKEY@@@std@@@3@$0A@@std@@@std@@IEAAXPEAU?$_Tree_node@U?$pair@$$CBHPEAUIOCPKEY@@@std@@PEAX@2@@Z 0000000180033240 f i IocpKeyIoMgr.obj
 0001:00032350       ?_Free_proxy@?$_List_alloc@$0A@U?$_List_base_types@PEAUIOCPIO@@V?$allocator@PEAUIOCPIO@@@std@@@std@@@std@@QEAAXXZ 0000000180033350 f i IocpKeyIoMgr.obj
 0001:000323f0       ?_Free_proxy@?$_List_alloc@$0A@U?$_List_base_types@PEAUIOCPKEY@@V?$allocator@PEAUIOCPKEY@@@std@@@std@@@std@@QEAAXXZ 00000001800333f0 f i IocpKeyIoMgr.obj
 0001:00032490       ?_Free_proxy@?$_Tree_alloc@$0A@U?$_Tree_base_types@U?$pair@$$CBHPEAUIOCPIO@@@std@@V?$allocator@U?$pair@$$CBHPEAUIOCPIO@@@std@@@2@@std@@@std@@QEAAXXZ 0000000180033490 f i IocpKeyIoMgr.obj
 0001:00032550       ?_Free_proxy@?$_Tree_alloc@$0A@U?$_Tree_base_types@U?$pair@$$CBHPEAUIOCPKEY@@@std@@V?$allocator@U?$pair@$$CBHPEAUIOCPKEY@@@std@@@2@@std@@@std@@QEAAXXZ 0000000180033550 f i IocpKeyIoMgr.obj
 0001:00032610       ?_Freeheadnode@?$_List_alloc@$0A@U?$_List_base_types@PEAUIOCPIO@@V?$allocator@PEAUIOCPIO@@@std@@@std@@@std@@QEAAXPEAU?$_List_node@PEAUIOCPIO@@PEAX@2@@Z 0000000180033610 f i IocpKeyIoMgr.obj
 0001:00032700       ?_Freeheadnode@?$_List_alloc@$0A@U?$_List_base_types@PEAUIOCPKEY@@V?$allocator@PEAUIOCPKEY@@@std@@@std@@@std@@QEAAXPEAU?$_List_node@PEAUIOCPKEY@@PEAX@2@@Z 0000000180033700 f i IocpKeyIoMgr.obj
 0001:000327f0       ?_Freeheadnode@?$_Tree_alloc@$0A@U?$_Tree_base_types@U?$pair@$$CBHPEAUIOCPIO@@@std@@V?$allocator@U?$pair@$$CBHPEAUIOCPIO@@@std@@@2@@std@@@std@@QEAAXPEAU?$_Tree_node@U?$pair@$$CBHPEAUIOCPIO@@@std@@PEAX@2@@Z 00000001800337f0 f i IocpKeyIoMgr.obj
 0001:00032920       ?_Freeheadnode@?$_Tree_alloc@$0A@U?$_Tree_base_types@U?$pair@$$CBHPEAUIOCPKEY@@@std@@V?$allocator@U?$pair@$$CBHPEAUIOCPKEY@@@std@@@2@@std@@@std@@QEAAXPEAU?$_Tree_node@U?$pair@$$CBHPEAUIOCPKEY@@@std@@PEAX@2@@Z 0000000180033920 f i IocpKeyIoMgr.obj
 0001:00032a50       ?_Freenode0@?$_Tree_buy@U?$pair@$$CBHPEAUIOCPIO@@@std@@V?$allocator@U?$pair@$$CBHPEAUIOCPIO@@@std@@@2@@std@@QEAAXPEAU?$_Tree_node@U?$pair@$$CBHPEAUIOCPIO@@@std@@PEAX@2@@Z 0000000180033a50 f i IocpKeyIoMgr.obj
 0001:00032b80       ?_Freenode0@?$_Tree_buy@U?$pair@$$CBHPEAUIOCPKEY@@@std@@V?$allocator@U?$pair@$$CBHPEAUIOCPKEY@@@std@@@2@@std@@QEAAXPEAU?$_Tree_node@U?$pair@$$CBHPEAUIOCPKEY@@@std@@PEAX@2@@Z 0000000180033b80 f i IocpKeyIoMgr.obj
 0001:00032cb0       ?_Freenode@?$_List_buy@PEAUIOCPIO@@V?$allocator@PEAUIOCPIO@@@std@@@std@@QEAAXPEAU?$_List_node@PEAUIOCPIO@@PEAX@2@@Z 0000000180033cb0 f i IocpKeyIoMgr.obj
 0001:00032de0       ?_Freenode@?$_List_buy@PEAUIOCPKEY@@V?$allocator@PEAUIOCPKEY@@@std@@@std@@QEAAXPEAU?$_List_node@PEAUIOCPKEY@@PEAX@2@@Z 0000000180033de0 f i IocpKeyIoMgr.obj
 0001:00032f10       ?_Getal@?$_List_alloc@$0A@U?$_List_base_types@PEAUIOCPIO@@V?$allocator@PEAUIOCPIO@@@std@@@std@@@std@@QEBA?AU?$_Wrap_alloc@V?$allocator@U?$_List_node@PEAUIOCPIO@@PEAX@std@@@std@@@2@XZ 0000000180033f10 f i IocpKeyIoMgr.obj
 0001:00032f60       ?_Getal@?$_List_alloc@$0A@U?$_List_base_types@PEAUIOCPKEY@@V?$allocator@PEAUIOCPKEY@@@std@@@std@@@std@@QEBA?AU?$_Wrap_alloc@V?$allocator@U?$_List_node@PEAUIOCPKEY@@PEAX@std@@@std@@@2@XZ 0000000180033f60 f i IocpKeyIoMgr.obj
 0001:00032fb0       ?_Getal@?$_Tree_alloc@$0A@U?$_Tree_base_types@U?$pair@$$CBHPEAUIOCPIO@@@std@@V?$allocator@U?$pair@$$CBHPEAUIOCPIO@@@std@@@2@@std@@@std@@QEBA?AU?$_Wrap_alloc@V?$allocator@U?$_Tree_node@U?$pair@$$CBHPEAUIOCPIO@@@std@@PEAX@std@@@std@@@2@XZ 0000000180033fb0 f i IocpKeyIoMgr.obj
 0001:00033000       ?_Getal@?$_Tree_alloc@$0A@U?$_Tree_base_types@U?$pair@$$CBHPEAUIOCPKEY@@@std@@V?$allocator@U?$pair@$$CBHPEAUIOCPKEY@@@std@@@2@@std@@@std@@QEBA?AU?$_Wrap_alloc@V?$allocator@U?$_Tree_node@U?$pair@$$CBHPEAUIOCPKEY@@@std@@PEAX@std@@@std@@@2@XZ 0000000180034000 f i IocpKeyIoMgr.obj
 0001:00033050       ?_Getcomp@?$_Tree_comp@$0A@V?$_Tmap_traits@HPEAUIOCPIO@@U?$less@H@std@@V?$allocator@U?$pair@$$CBHPEAUIOCPIO@@@std@@@3@$0A@@std@@@std@@QEBA?AU?$less@H@2@XZ 0000000180034050 f i IocpKeyIoMgr.obj
 0001:00033090       ?_Getcomp@?$_Tree_comp@$0A@V?$_Tmap_traits@HPEAUIOCPKEY@@U?$less@H@std@@V?$allocator@U?$pair@$$CBHPEAUIOCPKEY@@@std@@@3@$0A@@std@@@std@@QEBA?AU?$less@H@2@XZ 0000000180034090 f i IocpKeyIoMgr.obj
 0001:000330d0       ?_Incsize@?$list@PEAUIOCPIO@@V?$allocator@PEAUIOCPIO@@@std@@@std@@QEAAX_K@Z 00000001800340d0 f i IocpKeyIoMgr.obj
 0001:00033160       ?_Incsize@?$list@PEAUIOCPKEY@@V?$allocator@PEAUIOCPKEY@@@std@@@std@@QEAAX_K@Z 0000000180034160 f i IocpKeyIoMgr.obj
 0001:000331f0       ?_Isnil@?$_Tree_val@U?$_Tree_simple_types@U?$pair@$$CBHPEAUIOCPIO@@@std@@@std@@@std@@SAAEADPEAU?$_Tree_node@U?$pair@$$CBHPEAUIOCPIO@@@std@@PEAX@2@@Z 00000001800341f0 f i IocpKeyIoMgr.obj
 0001:00033210       ?_Isnil@?$_Tree_val@U?$_Tree_simple_types@U?$pair@$$CBHPEAUIOCPKEY@@@std@@@std@@@std@@SAAEADPEAU?$_Tree_node@U?$pair@$$CBHPEAUIOCPKEY@@@std@@PEAX@2@@Z 0000000180034210 f i IocpKeyIoMgr.obj
 0001:00033230       ?_Key@?$_Tree@V?$_Tmap_traits@HPEAUIOCPIO@@U?$less@H@std@@V?$allocator@U?$pair@$$CBHPEAUIOCPIO@@@std@@@3@$0A@@std@@@std@@IEBAAEBHPEAU?$_Tree_node@U?$pair@$$CBHPEAUIOCPIO@@@std@@PEAX@2@@Z 0000000180034230 f i IocpKeyIoMgr.obj
 0001:00033280       ?_Key@?$_Tree@V?$_Tmap_traits@HPEAUIOCPKEY@@U?$less@H@std@@V?$allocator@U?$pair@$$CBHPEAUIOCPKEY@@@std@@@3@$0A@@std@@@std@@IEBAAEBHPEAU?$_Tree_node@U?$pair@$$CBHPEAUIOCPKEY@@@std@@PEAX@2@@Z 0000000180034280 f i IocpKeyIoMgr.obj
 0001:000332d0       ?_Kfn@?$_Tree@V?$_Tmap_traits@HPEAUIOCPIO@@U?$less@H@std@@V?$allocator@U?$pair@$$CBHPEAUIOCPIO@@@std@@@3@$0A@@std@@@std@@IEBAAEBHAEBU?$pair@$$CBHPEAUIOCPIO@@@2@@Z 00000001800342d0 f i IocpKeyIoMgr.obj
 0001:00033310       ?_Kfn@?$_Tree@V?$_Tmap_traits@HPEAUIOCPKEY@@U?$less@H@std@@V?$allocator@U?$pair@$$CBHPEAUIOCPKEY@@@std@@@3@$0A@@std@@@std@@IEBAAEBHAEBU?$pair@$$CBHPEAUIOCPKEY@@@2@@Z 0000000180034310 f i IocpKeyIoMgr.obj
 0001:00033350       ?_Lbound@?$_Tree@V?$_Tmap_traits@HPEAUIOCPKEY@@U?$less@H@std@@V?$allocator@U?$pair@$$CBHPEAUIOCPKEY@@@std@@@3@$0A@@std@@@std@@IEAAPEAU?$_Tree_node@U?$pair@$$CBHPEAUIOCPKEY@@@std@@PEAX@2@AEBH@Z 0000000180034350 f i IocpKeyIoMgr.obj
 0001:00033470       ?_Left@?$_Tree_val@U?$_Tree_simple_types@U?$pair@$$CBHPEAUIOCPIO@@@std@@@std@@@std@@SAAEAPEAU?$_Tree_node@U?$pair@$$CBHPEAUIOCPIO@@@std@@PEAX@2@PEAU32@@Z 0000000180034470 f i IocpKeyIoMgr.obj
 0001:00033480       ?_Left@?$_Tree_val@U?$_Tree_simple_types@U?$pair@$$CBHPEAUIOCPKEY@@@std@@@std@@@std@@SAAEAPEAU?$_Tree_node@U?$pair@$$CBHPEAUIOCPKEY@@@std@@PEAX@2@PEAU32@@Z 0000000180034480 f i IocpKeyIoMgr.obj
 0001:00033490       ?_Lmost@?$_Tree@V?$_Tmap_traits@HPEAUIOCPIO@@U?$less@H@std@@V?$allocator@U?$pair@$$CBHPEAUIOCPIO@@@std@@@3@$0A@@std@@@std@@IEBAAEAPEAU?$_Tree_node@U?$pair@$$CBHPEAUIOCPIO@@@std@@PEAX@2@XZ 0000000180034490 f i IocpKeyIoMgr.obj
 0001:000334d0       ?_Lmost@?$_Tree@V?$_Tmap_traits@HPEAUIOCPKEY@@U?$less@H@std@@V?$allocator@U?$pair@$$CBHPEAUIOCPKEY@@@std@@@3@$0A@@std@@@std@@IEBAAEAPEAU?$_Tree_node@U?$pair@$$CBHPEAUIOCPKEY@@@std@@PEAX@2@XZ 00000001800344d0 f i IocpKeyIoMgr.obj
 0001:00033510       ?_Lrotate@?$_Tree@V?$_Tmap_traits@HPEAUIOCPIO@@U?$less@H@std@@V?$allocator@U?$pair@$$CBHPEAUIOCPIO@@@std@@@3@$0A@@std@@@std@@IEAAXPEAU?$_Tree_node@U?$pair@$$CBHPEAUIOCPIO@@@std@@PEAX@2@@Z 0000000180034510 f i IocpKeyIoMgr.obj
 0001:000336c0       ?_Lrotate@?$_Tree@V?$_Tmap_traits@HPEAUIOCPKEY@@U?$less@H@std@@V?$allocator@U?$pair@$$CBHPEAUIOCPKEY@@@std@@@3@$0A@@std@@@std@@IEAAXPEAU?$_Tree_node@U?$pair@$$CBHPEAUIOCPKEY@@@std@@PEAX@2@@Z 00000001800346c0 f i IocpKeyIoMgr.obj
 0001:00033870       ?_Make_iter@?$list@PEAUIOCPIO@@V?$allocator@PEAUIOCPIO@@@std@@@std@@QEBA?AV?$_List_iterator@V?$_List_val@U?$_List_simple_types@PEAUIOCPIO@@@std@@@std@@@2@V?$_List_const_iterator@V?$_List_val@U?$_List_simple_types@PEAUIOCPIO@@@std@@@std@@@2@@Z 0000000180034870 f i IocpKeyIoMgr.obj
 0001:000338e0       ?_Make_iter@?$list@PEAUIOCPKEY@@V?$allocator@PEAUIOCPKEY@@@std@@@std@@QEBA?AV?$_List_iterator@V?$_List_val@U?$_List_simple_types@PEAUIOCPKEY@@@std@@@std@@@2@V?$_List_const_iterator@V?$_List_val@U?$_List_simple_types@PEAUIOCPKEY@@@std@@@std@@@2@@Z 00000001800348e0 f i IocpKeyIoMgr.obj
 0001:00033950       ?_Max@?$_Tree_val@U?$_Tree_simple_types@U?$pair@$$CBHPEAUIOCPIO@@@std@@@std@@@std@@SAPEAU?$_Tree_node@U?$pair@$$CBHPEAUIOCPIO@@@std@@PEAX@2@PEAU32@@Z 0000000180034950 f i IocpKeyIoMgr.obj
 0001:000339c0       ?_Max@?$_Tree_val@U?$_Tree_simple_types@U?$pair@$$CBHPEAUIOCPKEY@@@std@@@std@@@std@@SAPEAU?$_Tree_node@U?$pair@$$CBHPEAUIOCPKEY@@@std@@PEAX@2@PEAU32@@Z 00000001800349c0 f i IocpKeyIoMgr.obj
 0001:00033a30       ?_Min@?$_Tree_val@U?$_Tree_simple_types@U?$pair@$$CBHPEAUIOCPIO@@@std@@@std@@@std@@SAPEAU?$_Tree_node@U?$pair@$$CBHPEAUIOCPIO@@@std@@PEAX@2@PEAU32@@Z 0000000180034a30 f i IocpKeyIoMgr.obj
 0001:00033aa0       ?_Min@?$_Tree_val@U?$_Tree_simple_types@U?$pair@$$CBHPEAUIOCPKEY@@@std@@@std@@@std@@SAPEAU?$_Tree_node@U?$pair@$$CBHPEAUIOCPKEY@@@std@@PEAX@2@PEAU32@@Z 0000000180034aa0 f i IocpKeyIoMgr.obj
 0001:00033b10       ?_Mynode@?$_List_unchecked_const_iterator@V?$_List_val@U?$_List_simple_types@PEAUIOCPIO@@@std@@@std@@U_Iterator_base0@2@@std@@QEBAPEAU?$_List_node@PEAUIOCPIO@@PEAX@2@XZ 0000000180034b10 f i IocpKeyIoMgr.obj
 0001:00033b30       ?_Mynode@?$_List_unchecked_const_iterator@V?$_List_val@U?$_List_simple_types@PEAUIOCPIO@@@std@@@std@@U_Iterator_base12@2@@std@@QEBAPEAU?$_List_node@PEAUIOCPIO@@PEAX@2@XZ 0000000180034b30 f i IocpKeyIoMgr.obj
 0001:00033b50       ?_Mynode@?$_List_unchecked_const_iterator@V?$_List_val@U?$_List_simple_types@PEAUIOCPKEY@@@std@@@std@@U_Iterator_base0@2@@std@@QEBAPEAU?$_List_node@PEAUIOCPKEY@@PEAX@2@XZ 0000000180034b50 f i IocpKeyIoMgr.obj
 0001:00033b70       ?_Mynode@?$_List_unchecked_const_iterator@V?$_List_val@U?$_List_simple_types@PEAUIOCPKEY@@@std@@@std@@U_Iterator_base12@2@@std@@QEBAPEAU?$_List_node@PEAUIOCPKEY@@PEAX@2@XZ 0000000180034b70 f i IocpKeyIoMgr.obj
 0001:00033b90       ?_Mynode@?$_Tree_unchecked_const_iterator@V?$_Tree_val@U?$_Tree_simple_types@U?$pair@$$CBHPEAUIOCPIO@@@std@@@std@@@std@@U_Iterator_base12@2@@std@@QEBAPEAU?$_Tree_node@U?$pair@$$CBHPEAUIOCPIO@@@std@@PEAX@2@XZ 0000000180034b90 f i IocpKeyIoMgr.obj
 0001:00033bb0       ?_Mynode@?$_Tree_unchecked_const_iterator@V?$_Tree_val@U?$_Tree_simple_types@U?$pair@$$CBHPEAUIOCPKEY@@@std@@@std@@@std@@U_Iterator_base12@2@@std@@QEBAPEAU?$_Tree_node@U?$pair@$$CBHPEAUIOCPKEY@@@std@@PEAX@2@XZ 0000000180034bb0 f i IocpKeyIoMgr.obj
 0001:00033bd0       ?_Myval@?$_List_val@U?$_List_simple_types@PEAUIOCPIO@@@std@@@std@@SAAEAPEAUIOCPIO@@PEAU?$_List_node@PEAUIOCPIO@@PEAX@2@@Z 0000000180034bd0 f i IocpKeyIoMgr.obj
 0001:00033bf0       ?_Myval@?$_List_val@U?$_List_simple_types@PEAUIOCPKEY@@@std@@@std@@SAAEAPEAUIOCPKEY@@PEAU?$_List_node@PEAUIOCPKEY@@PEAX@2@@Z 0000000180034bf0 f i IocpKeyIoMgr.obj
 0001:00033c10       ?_Myval@?$_Tree_val@U?$_Tree_simple_types@U?$pair@$$CBHPEAUIOCPIO@@@std@@@std@@@std@@SAAEAU?$pair@$$CBHPEAUIOCPIO@@@2@PEAU?$_Tree_node@U?$pair@$$CBHPEAUIOCPIO@@@std@@PEAX@2@@Z 0000000180034c10 f i IocpKeyIoMgr.obj
 0001:00033c30       ?_Myval@?$_Tree_val@U?$_Tree_simple_types@U?$pair@$$CBHPEAUIOCPKEY@@@std@@@std@@@std@@SAAEAU?$pair@$$CBHPEAUIOCPKEY@@@2@PEAU?$_Tree_node@U?$pair@$$CBHPEAUIOCPKEY@@@std@@PEAX@2@@Z 0000000180034c30 f i IocpKeyIoMgr.obj
 0001:00033c50       ?_Nextnode@?$_List_val@U?$_List_simple_types@PEAUIOCPIO@@@std@@@std@@SAAEAPEAU?$_List_node@PEAUIOCPIO@@PEAX@2@PEAU32@@Z 0000000180034c50 f i IocpKeyIoMgr.obj
 0001:00033c60       ?_Nextnode@?$_List_val@U?$_List_simple_types@PEAUIOCPKEY@@@std@@@std@@SAAEAPEAU?$_List_node@PEAUIOCPKEY@@PEAX@2@PEAU32@@Z 0000000180034c60 f i IocpKeyIoMgr.obj
 0001:00033c70       ?_Orphan_ptr@?$_Tree@V?$_Tmap_traits@HPEAUIOCPIO@@U?$less@H@std@@V?$allocator@U?$pair@$$CBHPEAUIOCPIO@@@std@@@3@$0A@@std@@@std@@IEBAXAEAV12@PEAU?$_Tree_node@U?$pair@$$CBHPEAUIOCPIO@@@std@@PEAX@2@@Z 0000000180034c70 f i IocpKeyIoMgr.obj
 0001:00033da0       ?_Orphan_ptr@?$_Tree@V?$_Tmap_traits@HPEAUIOCPKEY@@U?$less@H@std@@V?$allocator@U?$pair@$$CBHPEAUIOCPKEY@@@std@@@3@$0A@@std@@@std@@IEBAXAEAV12@PEAU?$_Tree_node@U?$pair@$$CBHPEAUIOCPKEY@@@std@@PEAX@2@@Z 0000000180034da0 f i IocpKeyIoMgr.obj
 0001:00033ed0       ?_Orphan_ptr@?$list@PEAUIOCPIO@@V?$allocator@PEAUIOCPIO@@@std@@@std@@QEBAXAEAV12@PEAU?$_List_node@PEAUIOCPIO@@PEAX@2@@Z 0000000180034ed0 f i IocpKeyIoMgr.obj
 0001:00034000       ?_Orphan_ptr@?$list@PEAUIOCPKEY@@V?$allocator@PEAUIOCPKEY@@@std@@@std@@QEBAXAEAV12@PEAU?$_List_node@PEAUIOCPKEY@@PEAX@2@@Z 0000000180035000 f i IocpKeyIoMgr.obj
 0001:00034130       ?_Parent@?$_Tree_val@U?$_Tree_simple_types@U?$pair@$$CBHPEAUIOCPIO@@@std@@@std@@@std@@SAAEAPEAU?$_Tree_node@U?$pair@$$CBHPEAUIOCPIO@@@std@@PEAX@2@PEAU32@@Z 0000000180035130 f i IocpKeyIoMgr.obj
 0001:00034150       ?_Parent@?$_Tree_val@U?$_Tree_simple_types@U?$pair@$$CBHPEAUIOCPKEY@@@std@@@std@@@std@@SAAEAPEAU?$_Tree_node@U?$pair@$$CBHPEAUIOCPKEY@@@std@@PEAX@2@PEAU32@@Z 0000000180035150 f i IocpKeyIoMgr.obj
 0001:00034170       ?_Prevnode@?$_List_val@U?$_List_simple_types@PEAUIOCPIO@@@std@@@std@@SAAEAPEAU?$_List_node@PEAUIOCPIO@@PEAX@2@PEAU32@@Z 0000000180035170 f i IocpKeyIoMgr.obj
 0001:00034190       ?_Prevnode@?$_List_val@U?$_List_simple_types@PEAUIOCPKEY@@@std@@@std@@SAAEAPEAU?$_List_node@PEAUIOCPKEY@@PEAX@2@PEAU32@@Z 0000000180035190 f i IocpKeyIoMgr.obj
 0001:000341b0       ?_Right@?$_Tree_val@U?$_Tree_simple_types@U?$pair@$$CBHPEAUIOCPIO@@@std@@@std@@@std@@SAAEAPEAU?$_Tree_node@U?$pair@$$CBHPEAUIOCPIO@@@std@@PEAX@2@PEAU32@@Z 00000001800351b0 f i IocpKeyIoMgr.obj
 0001:000341d0       ?_Right@?$_Tree_val@U?$_Tree_simple_types@U?$pair@$$CBHPEAUIOCPKEY@@@std@@@std@@@std@@SAAEAPEAU?$_Tree_node@U?$pair@$$CBHPEAUIOCPKEY@@@std@@PEAX@2@PEAU32@@Z 00000001800351d0 f i IocpKeyIoMgr.obj
 0001:000341f0       ?_Rmost@?$_Tree@V?$_Tmap_traits@HPEAUIOCPIO@@U?$less@H@std@@V?$allocator@U?$pair@$$CBHPEAUIOCPIO@@@std@@@3@$0A@@std@@@std@@IEBAAEAPEAU?$_Tree_node@U?$pair@$$CBHPEAUIOCPIO@@@std@@PEAX@2@XZ 00000001800351f0 f i IocpKeyIoMgr.obj
 0001:00034230       ?_Rmost@?$_Tree@V?$_Tmap_traits@HPEAUIOCPKEY@@U?$less@H@std@@V?$allocator@U?$pair@$$CBHPEAUIOCPKEY@@@std@@@3@$0A@@std@@@std@@IEBAAEAPEAU?$_Tree_node@U?$pair@$$CBHPEAUIOCPKEY@@@std@@PEAX@2@XZ 0000000180035230 f i IocpKeyIoMgr.obj
 0001:00034270       ?_Root@?$_Tree@V?$_Tmap_traits@HPEAUIOCPIO@@U?$less@H@std@@V?$allocator@U?$pair@$$CBHPEAUIOCPIO@@@std@@@3@$0A@@std@@@std@@IEBAAEAPEAU?$_Tree_node@U?$pair@$$CBHPEAUIOCPIO@@@std@@PEAX@2@XZ 0000000180035270 f i IocpKeyIoMgr.obj
 0001:000342b0       ?_Root@?$_Tree@V?$_Tmap_traits@HPEAUIOCPKEY@@U?$less@H@std@@V?$allocator@U?$pair@$$CBHPEAUIOCPKEY@@@std@@@3@$0A@@std@@@std@@IEBAAEAPEAU?$_Tree_node@U?$pair@$$CBHPEAUIOCPKEY@@@std@@PEAX@2@XZ 00000001800352b0 f i IocpKeyIoMgr.obj
 0001:000342f0       ?_Rrotate@?$_Tree@V?$_Tmap_traits@HPEAUIOCPIO@@U?$less@H@std@@V?$allocator@U?$pair@$$CBHPEAUIOCPIO@@@std@@@3@$0A@@std@@@std@@IEAAXPEAU?$_Tree_node@U?$pair@$$CBHPEAUIOCPIO@@@std@@PEAX@2@@Z 00000001800352f0 f i IocpKeyIoMgr.obj
 0001:000344a0       ?_Rrotate@?$_Tree@V?$_Tmap_traits@HPEAUIOCPKEY@@U?$less@H@std@@V?$allocator@U?$pair@$$CBHPEAUIOCPKEY@@@std@@@3@$0A@@std@@@std@@IEAAXPEAU?$_Tree_node@U?$pair@$$CBHPEAUIOCPKEY@@@std@@PEAX@2@@Z 00000001800354a0 f i IocpKeyIoMgr.obj
 0001:00034650       ?_Tidy@?$_Tree@V?$_Tmap_traits@HPEAUIOCPIO@@U?$less@H@std@@V?$allocator@U?$pair@$$CBHPEAUIOCPIO@@@std@@@3@$0A@@std@@@std@@IEAAXXZ 0000000180035650 f i IocpKeyIoMgr.obj
 0001:000347d0       ?_Tidy@?$_Tree@V?$_Tmap_traits@HPEAUIOCPKEY@@U?$less@H@std@@V?$allocator@U?$pair@$$CBHPEAUIOCPKEY@@@std@@@3@$0A@@std@@@std@@IEAAXXZ 00000001800357d0 f i IocpKeyIoMgr.obj
 0001:00034950       ?_Tidy@?$list@PEAUIOCPIO@@V?$allocator@PEAUIOCPIO@@@std@@@std@@QEAAXXZ 0000000180035950 f i IocpKeyIoMgr.obj
 0001:00034990       ?_Tidy@?$list@PEAUIOCPKEY@@V?$allocator@PEAUIOCPKEY@@@std@@@std@@QEAAXXZ 0000000180035990 f i IocpKeyIoMgr.obj
 0001:000349d0       ?_Unchecked_end@?$list@PEAUIOCPIO@@V?$allocator@PEAUIOCPIO@@@std@@@std@@QEAA?AV?$_List_unchecked_iterator@V?$_List_val@U?$_List_simple_types@PEAUIOCPIO@@@std@@@std@@@2@XZ 00000001800359d0 f i IocpKeyIoMgr.obj
 0001:00034a30       ?_Unchecked_end@?$list@PEAUIOCPKEY@@V?$allocator@PEAUIOCPKEY@@@std@@@std@@QEAA?AV?$_List_unchecked_iterator@V?$_List_val@U?$_List_simple_types@PEAUIOCPKEY@@@std@@@std@@@2@XZ 0000000180035a30 f i IocpKeyIoMgr.obj
 0001:00034a90       ?_Unlinknode@?$list@PEAUIOCPIO@@V?$allocator@PEAUIOCPIO@@@std@@@std@@QEAAPEAU?$_List_node@PEAUIOCPIO@@PEAX@2@V?$_List_const_iterator@V?$_List_val@U?$_List_simple_types@PEAUIOCPIO@@@std@@@std@@@2@@Z 0000000180035a90 f i IocpKeyIoMgr.obj
 0001:00034bf0       ?_Unlinknode@?$list@PEAUIOCPKEY@@V?$allocator@PEAUIOCPKEY@@@std@@@std@@QEAAPEAU?$_List_node@PEAUIOCPKEY@@PEAX@2@V?$_List_const_iterator@V?$_List_val@U?$_List_simple_types@PEAUIOCPKEY@@@std@@@std@@@2@@Z 0000000180035bf0 f i IocpKeyIoMgr.obj
 0001:00034d50       ?allocate@?$_Wrap_alloc@V?$allocator@U?$_List_node@PEAUIOCPIO@@PEAX@std@@@std@@@std@@QEAAPEAU?$_List_node@PEAUIOCPIO@@PEAX@2@_K@Z 0000000180035d50 f i IocpKeyIoMgr.obj
 0001:00034da0       ?allocate@?$_Wrap_alloc@V?$allocator@U?$_List_node@PEAUIOCPKEY@@PEAX@std@@@std@@@std@@QEAAPEAU?$_List_node@PEAUIOCPKEY@@PEAX@2@_K@Z 0000000180035da0 f i IocpKeyIoMgr.obj
 0001:00034df0       ?allocate@?$_Wrap_alloc@V?$allocator@U?$_Tree_node@U?$pair@$$CBHPEAUIOCPIO@@@std@@PEAX@std@@@std@@@std@@QEAAPEAU?$_Tree_node@U?$pair@$$CBHPEAUIOCPIO@@@std@@PEAX@2@_K@Z 0000000180035df0 f i IocpKeyIoMgr.obj
 0001:00034e40       ?allocate@?$_Wrap_alloc@V?$allocator@U?$_Tree_node@U?$pair@$$CBHPEAUIOCPKEY@@@std@@PEAX@std@@@std@@@std@@QEAAPEAU?$_Tree_node@U?$pair@$$CBHPEAUIOCPKEY@@@std@@PEAX@2@_K@Z 0000000180035e40 f i IocpKeyIoMgr.obj
 0001:00034e90       ?allocate@?$_Wrap_alloc@V?$allocator@U_Container_proxy@std@@@std@@@std@@QEAAPEAU_Container_proxy@2@_K@Z 0000000180035e90 f i IocpKeyIoMgr.obj
 0001:00034ee0       ?allocate@?$allocator@U?$_List_node@PEAUIOCPIO@@PEAX@std@@@std@@QEAAPEAU?$_List_node@PEAUIOCPIO@@PEAX@2@_K@Z 0000000180035ee0 f i IocpKeyIoMgr.obj
 0001:00034f30       ?allocate@?$allocator@U?$_List_node@PEAUIOCPKEY@@PEAX@std@@@std@@QEAAPEAU?$_List_node@PEAUIOCPKEY@@PEAX@2@_K@Z 0000000180035f30 f i IocpKeyIoMgr.obj
 0001:00034f80       ?allocate@?$allocator@U?$_Tree_node@U?$pair@$$CBHPEAUIOCPIO@@@std@@PEAX@std@@@std@@QEAAPEAU?$_Tree_node@U?$pair@$$CBHPEAUIOCPIO@@@std@@PEAX@2@_K@Z 0000000180035f80 f i IocpKeyIoMgr.obj
 0001:00034fd0       ?allocate@?$allocator@U?$_Tree_node@U?$pair@$$CBHPEAUIOCPKEY@@@std@@PEAX@std@@@std@@QEAAPEAU?$_Tree_node@U?$pair@$$CBHPEAUIOCPKEY@@@std@@PEAX@2@_K@Z 0000000180035fd0 f i IocpKeyIoMgr.obj
 0001:00035020       ?begin@?$_Tree@V?$_Tmap_traits@HPEAUIOCPIO@@U?$less@H@std@@V?$allocator@U?$pair@$$CBHPEAUIOCPIO@@@std@@@3@$0A@@std@@@std@@QEAA?AV?$_Tree_iterator@V?$_Tree_val@U?$_Tree_simple_types@U?$pair@$$CBHPEAUIOCPIO@@@std@@@std@@@std@@@2@XZ 0000000180036020 f i IocpKeyIoMgr.obj
 0001:00035080       ?begin@?$_Tree@V?$_Tmap_traits@HPEAUIOCPKEY@@U?$less@H@std@@V?$allocator@U?$pair@$$CBHPEAUIOCPKEY@@@std@@@3@$0A@@std@@@std@@QEAA?AV?$_Tree_iterator@V?$_Tree_val@U?$_Tree_simple_types@U?$pair@$$CBHPEAUIOCPKEY@@@std@@@std@@@std@@@2@XZ 0000000180036080 f i IocpKeyIoMgr.obj
 0001:000350e0       ?begin@?$list@PEAUIOCPIO@@V?$allocator@PEAUIOCPIO@@@std@@@std@@QEAA?AV?$_List_iterator@V?$_List_val@U?$_List_simple_types@PEAUIOCPIO@@@std@@@std@@@2@XZ 00000001800360e0 f i IocpKeyIoMgr.obj
 0001:00035150       ?begin@?$list@PEAUIOCPKEY@@V?$allocator@PEAUIOCPKEY@@@std@@@std@@QEAA?AV?$_List_iterator@V?$_List_val@U?$_List_simple_types@PEAUIOCPKEY@@@std@@@std@@@2@XZ 0000000180036150 f i IocpKeyIoMgr.obj
 0001:000351c0       ?clear@?$_Tree@V?$_Tmap_traits@HPEAUIOCPIO@@U?$less@H@std@@V?$allocator@U?$pair@$$CBHPEAUIOCPIO@@@std@@@3@$0A@@std@@@std@@QEAAXXZ 00000001800361c0 f i IocpKeyIoMgr.obj
 0001:00035290       ?clear@?$_Tree@V?$_Tmap_traits@HPEAUIOCPKEY@@U?$less@H@std@@V?$allocator@U?$pair@$$CBHPEAUIOCPKEY@@@std@@@3@$0A@@std@@@std@@QEAAXXZ 0000000180036290 f i IocpKeyIoMgr.obj
 0001:00035360       ?clear@?$list@PEAUIOCPIO@@V?$allocator@PEAUIOCPIO@@@std@@@std@@QEAAXXZ 0000000180036360 f i IocpKeyIoMgr.obj
 0001:00035460       ?clear@?$list@PEAUIOCPKEY@@V?$allocator@PEAUIOCPKEY@@@std@@@std@@QEAAXXZ 0000000180036460 f i IocpKeyIoMgr.obj
 0001:00035560       ?deallocate@?$_Wrap_alloc@V?$allocator@U?$_List_node@PEAUIOCPIO@@PEAX@std@@@std@@@std@@QEAAXPEAU?$_List_node@PEAUIOCPIO@@PEAX@2@_K@Z 0000000180036560 f i IocpKeyIoMgr.obj
 0001:000355c0       ?deallocate@?$_Wrap_alloc@V?$allocator@U?$_List_node@PEAUIOCPKEY@@PEAX@std@@@std@@@std@@QEAAXPEAU?$_List_node@PEAUIOCPKEY@@PEAX@2@_K@Z 00000001800365c0 f i IocpKeyIoMgr.obj
 0001:00035620       ?deallocate@?$_Wrap_alloc@V?$allocator@U?$_Tree_node@U?$pair@$$CBHPEAUIOCPIO@@@std@@PEAX@std@@@std@@@std@@QEAAXPEAU?$_Tree_node@U?$pair@$$CBHPEAUIOCPIO@@@std@@PEAX@2@_K@Z 0000000180036620 f i IocpKeyIoMgr.obj
 0001:00035680       ?deallocate@?$_Wrap_alloc@V?$allocator@U?$_Tree_node@U?$pair@$$CBHPEAUIOCPKEY@@@std@@PEAX@std@@@std@@@std@@QEAAXPEAU?$_Tree_node@U?$pair@$$CBHPEAUIOCPKEY@@@std@@PEAX@2@_K@Z 0000000180036680 f i IocpKeyIoMgr.obj
 0001:000356e0       ?deallocate@?$_Wrap_alloc@V?$allocator@U_Container_proxy@std@@@std@@@std@@QEAAXPEAU_Container_proxy@2@_K@Z 00000001800366e0 f i IocpKeyIoMgr.obj
 0001:00035740       ?deallocate@?$allocator@U?$_List_node@PEAUIOCPIO@@PEAX@std@@@std@@QEAAXPEAU?$_List_node@PEAUIOCPIO@@PEAX@2@_K@Z 0000000180036740 f i IocpKeyIoMgr.obj
 0001:00035790       ?deallocate@?$allocator@U?$_List_node@PEAUIOCPKEY@@PEAX@std@@@std@@QEAAXPEAU?$_List_node@PEAUIOCPKEY@@PEAX@2@_K@Z 0000000180036790 f i IocpKeyIoMgr.obj
 0001:000357e0       ?deallocate@?$allocator@U?$_Tree_node@U?$pair@$$CBHPEAUIOCPIO@@@std@@PEAX@std@@@std@@QEAAXPEAU?$_Tree_node@U?$pair@$$CBHPEAUIOCPIO@@@std@@PEAX@2@_K@Z 00000001800367e0 f i IocpKeyIoMgr.obj
 0001:00035830       ?deallocate@?$allocator@U?$_Tree_node@U?$pair@$$CBHPEAUIOCPKEY@@@std@@PEAX@std@@@std@@QEAAXPEAU?$_Tree_node@U?$pair@$$CBHPEAUIOCPKEY@@@std@@PEAX@2@_K@Z 0000000180036830 f i IocpKeyIoMgr.obj
 0001:00035880       ?end@?$_Tree@V?$_Tmap_traits@HPEAUIOCPIO@@U?$less@H@std@@V?$allocator@U?$pair@$$CBHPEAUIOCPIO@@@std@@@3@$0A@@std@@@std@@QEAA?AV?$_Tree_iterator@V?$_Tree_val@U?$_Tree_simple_types@U?$pair@$$CBHPEAUIOCPIO@@@std@@@std@@@std@@@2@XZ 0000000180036880 f i IocpKeyIoMgr.obj
 0001:000358e0       ?end@?$_Tree@V?$_Tmap_traits@HPEAUIOCPKEY@@U?$less@H@std@@V?$allocator@U?$pair@$$CBHPEAUIOCPKEY@@@std@@@3@$0A@@std@@@std@@QEAA?AV?$_Tree_iterator@V?$_Tree_val@U?$_Tree_simple_types@U?$pair@$$CBHPEAUIOCPKEY@@@std@@@std@@@std@@@2@XZ 00000001800368e0 f i IocpKeyIoMgr.obj
 0001:00035940       ?end@?$list@PEAUIOCPIO@@V?$allocator@PEAUIOCPIO@@@std@@@std@@QEAA?AV?$_List_iterator@V?$_List_val@U?$_List_simple_types@PEAUIOCPIO@@@std@@@std@@@2@XZ 0000000180036940 f i IocpKeyIoMgr.obj
 0001:000359a0       ?end@?$list@PEAUIOCPKEY@@V?$allocator@PEAUIOCPKEY@@@std@@@std@@QEAA?AV?$_List_iterator@V?$_List_val@U?$_List_simple_types@PEAUIOCPKEY@@@std@@@std@@@2@XZ 00000001800369a0 f i IocpKeyIoMgr.obj
 0001:00035a00       ?equal_range@?$_Tree@V?$_Tmap_traits@HPEAUIOCPIO@@U?$less@H@std@@V?$allocator@U?$pair@$$CBHPEAUIOCPIO@@@std@@@3@$0A@@std@@@std@@QEAA?AU?$pair@V?$_Tree_iterator@V?$_Tree_val@U?$_Tree_simple_types@U?$pair@$$CBHPEAUIOCPIO@@@std@@@std@@@std@@@std@@V12@@2@AEBH@Z 0000000180036a00 f i IocpKeyIoMgr.obj
 0001:00035a70       ?equal_range@?$_Tree@V?$_Tmap_traits@HPEAUIOCPKEY@@U?$less@H@std@@V?$allocator@U?$pair@$$CBHPEAUIOCPKEY@@@std@@@3@$0A@@std@@@std@@QEAA?AU?$pair@V?$_Tree_iterator@V?$_Tree_val@U?$_Tree_simple_types@U?$pair@$$CBHPEAUIOCPKEY@@@std@@@std@@@std@@@std@@V12@@2@AEBH@Z 0000000180036a70 f i IocpKeyIoMgr.obj
 0001:00035ae0       ?erase@?$_Tree@V?$_Tmap_traits@HPEAUIOCPIO@@U?$less@H@std@@V?$allocator@U?$pair@$$CBHPEAUIOCPIO@@@std@@@3@$0A@@std@@@std@@QEAA?AV?$_Tree_iterator@V?$_Tree_val@U?$_Tree_simple_types@U?$pair@$$CBHPEAUIOCPIO@@@std@@@std@@@std@@@2@V?$_Tree_const_iterator@V?$_Tree_val@U?$_Tree_simple_types@U?$pair@$$CBHPEAUIOCPIO@@@std@@@std@@@std@@@2@0@Z 0000000180036ae0 f i IocpKeyIoMgr.obj
 0001:00035e40       ?erase@?$_Tree@V?$_Tmap_traits@HPEAUIOCPIO@@U?$less@H@std@@V?$allocator@U?$pair@$$CBHPEAUIOCPIO@@@std@@@3@$0A@@std@@@std@@QEAA?AV?$_Tree_iterator@V?$_Tree_val@U?$_Tree_simple_types@U?$pair@$$CBHPEAUIOCPIO@@@std@@@std@@@std@@@2@V?$_Tree_const_iterator@V?$_Tree_val@U?$_Tree_simple_types@U?$pair@$$CBHPEAUIOCPIO@@@std@@@std@@@std@@@2@@Z 0000000180036e40 f i IocpKeyIoMgr.obj
 0001:00036960       ?erase@?$_Tree@V?$_Tmap_traits@HPEAUIOCPIO@@U?$less@H@std@@V?$allocator@U?$pair@$$CBHPEAUIOCPIO@@@std@@@3@$0A@@std@@@std@@QEAA_KAEBH@Z 0000000180037960 f i IocpKeyIoMgr.obj
 0001:00036b80       ?erase@?$_Tree@V?$_Tmap_traits@HPEAUIOCPKEY@@U?$less@H@std@@V?$allocator@U?$pair@$$CBHPEAUIOCPKEY@@@std@@@3@$0A@@std@@@std@@QEAA?AV?$_Tree_iterator@V?$_Tree_val@U?$_Tree_simple_types@U?$pair@$$CBHPEAUIOCPKEY@@@std@@@std@@@std@@@2@V?$_Tree_const_iterator@V?$_Tree_val@U?$_Tree_simple_types@U?$pair@$$CBHPEAUIOCPKEY@@@std@@@std@@@std@@@2@0@Z 0000000180037b80 f i IocpKeyIoMgr.obj
 0001:00036ee0       ?erase@?$_Tree@V?$_Tmap_traits@HPEAUIOCPKEY@@U?$less@H@std@@V?$allocator@U?$pair@$$CBHPEAUIOCPKEY@@@std@@@3@$0A@@std@@@std@@QEAA?AV?$_Tree_iterator@V?$_Tree_val@U?$_Tree_simple_types@U?$pair@$$CBHPEAUIOCPKEY@@@std@@@std@@@std@@@2@V?$_Tree_const_iterator@V?$_Tree_val@U?$_Tree_simple_types@U?$pair@$$CBHPEAUIOCPKEY@@@std@@@std@@@std@@@2@@Z 0000000180037ee0 f i IocpKeyIoMgr.obj
 0001:00037a00       ?erase@?$_Tree@V?$_Tmap_traits@HPEAUIOCPKEY@@U?$less@H@std@@V?$allocator@U?$pair@$$CBHPEAUIOCPKEY@@@std@@@3@$0A@@std@@@std@@QEAA_KAEBH@Z 0000000180038a00 f i IocpKeyIoMgr.obj
 0001:00037c20       ?erase@?$list@PEAUIOCPIO@@V?$allocator@PEAUIOCPIO@@@std@@@std@@QEAA?AV?$_List_iterator@V?$_List_val@U?$_List_simple_types@PEAUIOCPIO@@@std@@@std@@@2@V?$_List_const_iterator@V?$_List_val@U?$_List_simple_types@PEAUIOCPIO@@@std@@@std@@@2@@Z 0000000180038c20 f i IocpKeyIoMgr.obj
 0001:00037d60       ?erase@?$list@PEAUIOCPKEY@@V?$allocator@PEAUIOCPKEY@@@std@@@std@@QEAA?AV?$_List_iterator@V?$_List_val@U?$_List_simple_types@PEAUIOCPKEY@@@std@@@std@@@2@V?$_List_const_iterator@V?$_List_val@U?$_List_simple_types@PEAUIOCPKEY@@@std@@@std@@@2@@Z 0000000180038d60 f i IocpKeyIoMgr.obj
 0001:00037ea0       ?find@?$_Tree@V?$_Tmap_traits@HPEAUIOCPKEY@@U?$less@H@std@@V?$allocator@U?$pair@$$CBHPEAUIOCPKEY@@@std@@@3@$0A@@std@@@std@@QEAA?AV?$_Tree_iterator@V?$_Tree_val@U?$_Tree_simple_types@U?$pair@$$CBHPEAUIOCPKEY@@@std@@@std@@@std@@@2@AEBH@Z 0000000180038ea0 f i IocpKeyIoMgr.obj
 0001:000381d0       ?lower_bound@?$_Tree@V?$_Tmap_traits@HPEAUIOCPKEY@@U?$less@H@std@@V?$allocator@U?$pair@$$CBHPEAUIOCPKEY@@@std@@@3@$0A@@std@@@std@@QEAA?AV?$_Tree_iterator@V?$_Tree_val@U?$_Tree_simple_types@U?$pair@$$CBHPEAUIOCPKEY@@@std@@@std@@@std@@@2@AEBH@Z 00000001800391d0 f i IocpKeyIoMgr.obj
 0001:00038250       ?max_size@?$_Tree@V?$_Tmap_traits@HPEAUIOCPIO@@U?$less@H@std@@V?$allocator@U?$pair@$$CBHPEAUIOCPIO@@@std@@@3@$0A@@std@@@std@@QEBA_KXZ 0000000180039250 f i IocpKeyIoMgr.obj
 0001:000382a0       ?max_size@?$_Tree@V?$_Tmap_traits@HPEAUIOCPKEY@@U?$less@H@std@@V?$allocator@U?$pair@$$CBHPEAUIOCPKEY@@@std@@@3@$0A@@std@@@std@@QEBA_KXZ 00000001800392a0 f i IocpKeyIoMgr.obj
 0001:000382f0       ?max_size@?$_Wrap_alloc@V?$allocator@U?$_List_node@PEAUIOCPIO@@PEAX@std@@@std@@@std@@QEBA_KXZ 00000001800392f0 f i IocpKeyIoMgr.obj
 0001:00038330       ?max_size@?$_Wrap_alloc@V?$allocator@U?$_List_node@PEAUIOCPKEY@@PEAX@std@@@std@@@std@@QEBA_KXZ 0000000180039330 f i IocpKeyIoMgr.obj
 0001:00038370       ?max_size@?$_Wrap_alloc@V?$allocator@U?$_Tree_node@U?$pair@$$CBHPEAUIOCPIO@@@std@@PEAX@std@@@std@@@std@@QEBA_KXZ 0000000180039370 f i IocpKeyIoMgr.obj
 0001:000383b0       ?max_size@?$_Wrap_alloc@V?$allocator@U?$_Tree_node@U?$pair@$$CBHPEAUIOCPKEY@@@std@@PEAX@std@@@std@@@std@@QEBA_KXZ 00000001800393b0 f i IocpKeyIoMgr.obj
 0001:000383f0       ?max_size@?$allocator@U?$_List_node@PEAUIOCPIO@@PEAX@std@@@std@@QEBA_KXZ 00000001800393f0 f i IocpKeyIoMgr.obj
 0001:00038410       ?max_size@?$allocator@U?$_List_node@PEAUIOCPKEY@@PEAX@std@@@std@@QEBA_KXZ 0000000180039410 f i IocpKeyIoMgr.obj
 0001:00038430       ?max_size@?$allocator@U?$_Tree_node@U?$pair@$$CBHPEAUIOCPIO@@@std@@PEAX@std@@@std@@QEBA_KXZ 0000000180039430 f i IocpKeyIoMgr.obj
 0001:00038450       ?max_size@?$allocator@U?$_Tree_node@U?$pair@$$CBHPEAUIOCPKEY@@@std@@PEAX@std@@@std@@QEBA_KXZ 0000000180039450 f i IocpKeyIoMgr.obj
 0001:00038470       ?max_size@?$allocator_traits@V?$allocator@U?$_List_node@PEAUIOCPIO@@PEAX@std@@@std@@@std@@SA_KAEBV?$allocator@U?$_List_node@PEAUIOCPIO@@PEAX@std@@@2@@Z 0000000180039470 f i IocpKeyIoMgr.obj
 0001:000384b0       ?max_size@?$allocator_traits@V?$allocator@U?$_List_node@PEAUIOCPKEY@@PEAX@std@@@std@@@std@@SA_KAEBV?$allocator@U?$_List_node@PEAUIOCPKEY@@PEAX@std@@@2@@Z 00000001800394b0 f i IocpKeyIoMgr.obj
 0001:000384f0       ?max_size@?$allocator_traits@V?$allocator@U?$_Tree_node@U?$pair@$$CBHPEAUIOCPIO@@@std@@PEAX@std@@@std@@@std@@SA_KAEBV?$allocator@U?$_Tree_node@U?$pair@$$CBHPEAUIOCPIO@@@std@@PEAX@std@@@2@@Z 00000001800394f0 f i IocpKeyIoMgr.obj
 0001:00038530       ?max_size@?$allocator_traits@V?$allocator@U?$_Tree_node@U?$pair@$$CBHPEAUIOCPKEY@@@std@@PEAX@std@@@std@@@std@@SA_KAEBV?$allocator@U?$_Tree_node@U?$pair@$$CBHPEAUIOCPKEY@@@std@@PEAX@std@@@2@@Z 0000000180039530 f i IocpKeyIoMgr.obj
 0001:00038570       ?max_size@?$list@PEAUIOCPIO@@V?$allocator@PEAUIOCPIO@@@std@@@std@@QEBA_KXZ 0000000180039570 f i IocpKeyIoMgr.obj
 0001:000385c0       ?max_size@?$list@PEAUIOCPKEY@@V?$allocator@PEAUIOCPKEY@@@std@@@std@@QEBA_KXZ 00000001800395c0 f i IocpKeyIoMgr.obj
 0001:00038610       ?pointer_to@?$pointer_traits@PEAU?$pair@$$CBHPEAUIOCPIO@@@std@@@std@@SAPEAU?$pair@$$CBHPEAUIOCPIO@@@2@AEAU32@@Z 0000000180039610 f i IocpKeyIoMgr.obj
 0001:00038650       ?pointer_to@?$pointer_traits@PEAU?$pair@$$CBHPEAUIOCPKEY@@@std@@@std@@SAPEAU?$pair@$$CBHPEAUIOCPKEY@@@2@AEAU32@@Z 0000000180039650 f i IocpKeyIoMgr.obj
 0001:00038690       ?pop_front@?$list@PEAUIOCPIO@@V?$allocator@PEAUIOCPIO@@@std@@@std@@QEAAXXZ 0000000180039690 f i IocpKeyIoMgr.obj
 0001:00038770       ?pop_front@?$list@PEAUIOCPKEY@@V?$allocator@PEAUIOCPKEY@@@std@@@std@@QEAAXXZ 0000000180039770 f i IocpKeyIoMgr.obj
 0001:00038850       ?push_back@?$list@PEAUIOCPIO@@V?$allocator@PEAUIOCPIO@@@std@@@std@@QEAAXAEBQEAUIOCPIO@@@Z 0000000180039850 f i IocpKeyIoMgr.obj
 0001:000388c0       ?push_back@?$list@PEAUIOCPKEY@@V?$allocator@PEAUIOCPKEY@@@std@@@std@@QEAAXAEBQEAUIOCPKEY@@@Z 00000001800398c0 f i IocpKeyIoMgr.obj
 0001:00038930       ?size@?$_Tree@V?$_Tmap_traits@HPEAUIOCPIO@@U?$less@H@std@@V?$allocator@U?$pair@$$CBHPEAUIOCPIO@@@std@@@3@$0A@@std@@@std@@QEBA_KXZ 0000000180039930 f i IocpKeyIoMgr.obj
 0001:00038950       ?size@?$_Tree@V?$_Tmap_traits@HPEAUIOCPKEY@@U?$less@H@std@@V?$allocator@U?$pair@$$CBHPEAUIOCPKEY@@@std@@@3@$0A@@std@@@std@@QEBA_KXZ 0000000180039950 f i IocpKeyIoMgr.obj
 0001:00038970       ?size@?$list@PEAUIOCPIO@@V?$allocator@PEAUIOCPIO@@@std@@@std@@QEBA_KXZ 0000000180039970 f i IocpKeyIoMgr.obj
 0001:00038990       ?size@?$list@PEAUIOCPKEY@@V?$allocator@PEAUIOCPKEY@@@std@@@std@@QEBA_KXZ 0000000180039990 f i IocpKeyIoMgr.obj
 0001:000389b0       ??0CIocpServer@@QEAA@XZ    00000001800399b0 f   IocpServer.obj
 0001:000389e0       ??1CIocpServer@@UEAA@XZ    00000001800399e0 f   IocpServer.obj
 0001:00038a00       ?AddBlackIP@CIocpServer@@SAHPEBD@Z 0000000180039a00 f   IocpServer.obj
 0001:00038ac0       ?DelBlackIP@CIocpServer@@SAXPEBD@Z 0000000180039ac0 f   IocpServer.obj
 0001:00038b80       ?GetBlackIP@CIocpServer@@SA?AV?$map@V?$basic_string@DU?$char_traits@D@std@@V?$allocator@D@2@@std@@HU?$less@V?$basic_string@DU?$char_traits@D@std@@V?$allocator@D@2@@std@@@2@V?$allocator@U?$pair@$$CBV?$basic_string@DU?$char_traits@D@std@@V?$allocator@D@2@@std@@H@std@@@2@@std@@XZ 0000000180039b80 f   IocpServer.obj
 0001:00038c10       ??0CIocpServerFactory@@QEAA@XZ 0000000180039c10 f   IocpServer.obj
 0001:00038c40       ??1CIocpServerFactory@@UEAA@XZ 0000000180039c40 f   IocpServer.obj
 0001:00038c60       ?New@CIocpServerFactory@@SAPEAVCIocpServer@@XZ 0000000180039c60 f   IocpServer.obj
 0001:00038cd0       ?Destroy@CIocpServerFactory@@SAXPEAVCIocpServer@@@Z 0000000180039cd0 f   IocpServer.obj
 0001:00038e60       ??$?0AEAPEBDHX@?$pair@PEBDH@std@@QEAA@AEAPEBD$$QEAH@Z 0000000180039e60 f i IocpServer.obj
 0001:00038ee0       ??$?0AEAV?$_Tree_iterator@V?$_Tree_val@U?$_Tree_simple_types@U?$pair@$$CBV?$basic_string@DU?$char_traits@D@std@@V?$allocator@D@2@@std@@H@std@@@std@@@std@@@std@@AEAV01@X@?$pair@V?$_Tree_iterator@V?$_Tree_val@U?$_Tree_simple_types@U?$pair@$$CBV?$basic_string@DU?$char_traits@D@std@@V?$allocator@D@2@@std@@H@std@@@std@@@std@@@std@@V12@@std@@QEAA@AEAV?$_Tree_iterator@V?$_Tree_val@U?$_Tree_simple_types@U?$pair@$$CBV?$basic_string@DU?$char_traits@D@std@@V?$allocator@D@2@@std@@H@std@@@std@@@std@@@1@0@Z 0000000180039ee0 f i IocpServer.obj
 0001:00038f70       ??$?0AEAV?$_Tree_iterator@V?$_Tree_val@U?$_Tree_simple_types@U?$pair@$$CBV?$basic_string@DU?$char_traits@D@std@@V?$allocator@D@2@@std@@H@std@@@std@@@std@@@std@@_NX@?$pair@V?$_Tree_iterator@V?$_Tree_val@U?$_Tree_simple_types@U?$pair@$$CBV?$basic_string@DU?$char_traits@D@std@@V?$allocator@D@2@@std@@H@std@@@std@@@std@@@std@@_N@std@@QEAA@AEAV?$_Tree_iterator@V?$_Tree_val@U?$_Tree_simple_types@U?$pair@$$CBV?$basic_string@DU?$char_traits@D@std@@V?$allocator@D@2@@std@@H@std@@@std@@@std@@@1@$$QEA_N@Z 0000000180039f70 f i IocpServer.obj
 0001:00039000       ??$?0PEBDHX@?$pair@$$CBV?$basic_string@DU?$char_traits@D@std@@V?$allocator@D@2@@std@@H@std@@QEAA@$$QEAU?$pair@PEBDH@1@@Z 000000018003a000 f i IocpServer.obj
 0001:00039090       ??$?0U?$_Tree_node@U?$pair@$$CBV?$basic_string@DU?$char_traits@D@std@@V?$allocator@D@2@@std@@H@std@@PEAX@std@@@?$allocator@U?$pair@$$CBV?$basic_string@DU?$char_traits@D@std@@V?$allocator@D@2@@std@@H@std@@@std@@QEAA@AEBV?$allocator@U?$_Tree_node@U?$pair@$$CBV?$basic_string@DU?$char_traits@D@std@@V?$allocator@D@2@@std@@H@std@@PEAX@std@@@1@@Z 000000018003a090 f i IocpServer.obj
 0001:000390b0       ??$?0U?$_Tree_node@U?$pair@$$CBV?$basic_string@DU?$char_traits@D@std@@V?$allocator@D@2@@std@@H@std@@PEAX@std@@@?$allocator@U_Container_proxy@std@@@std@@QEAA@AEBV?$allocator@U?$_Tree_node@U?$pair@$$CBV?$basic_string@DU?$char_traits@D@std@@V?$allocator@D@2@@std@@H@std@@PEAX@std@@@1@@Z 000000018003a0b0 f i IocpServer.obj
 0001:000390d0       ??$?0U?$_Wrap_alloc@V?$allocator@U?$_Tree_node@U?$pair@$$CBV?$basic_string@DU?$char_traits@D@std@@V?$allocator@D@2@@std@@H@std@@PEAX@std@@@std@@@std@@@?$_Wrap_alloc@V?$allocator@U_Container_proxy@std@@@std@@@std@@QEAA@AEBU?$_Wrap_alloc@V?$allocator@U?$_Tree_node@U?$pair@$$CBV?$basic_string@DU?$char_traits@D@std@@V?$allocator@D@2@@std@@H@std@@PEAX@std@@@std@@@1@@Z 000000018003a0d0 f i IocpServer.obj
 0001:00039120       ??$?0V?$_Tree_iterator@V?$_Tree_val@U?$_Tree_simple_types@U?$pair@$$CBV?$basic_string@DU?$char_traits@D@std@@V?$allocator@D@2@@std@@H@std@@@std@@@std@@@std@@_NX@?$pair@V?$_Tree_iterator@V?$_Tree_val@U?$_Tree_simple_types@U?$pair@$$CBV?$basic_string@DU?$char_traits@D@std@@V?$allocator@D@2@@std@@H@std@@@std@@@std@@@std@@_N@std@@QEAA@$$QEAV?$_Tree_iterator@V?$_Tree_val@U?$_Tree_simple_types@U?$pair@$$CBV?$basic_string@DU?$char_traits@D@std@@V?$allocator@D@2@@std@@H@std@@@std@@@std@@@1@$$QEA_N@Z 000000018003a120 f i IocpServer.obj
 0001:000391b0       ??$?MDU?$char_traits@D@std@@V?$allocator@D@1@@std@@YA_NAEBV?$basic_string@DU?$char_traits@D@std@@V?$allocator@D@2@@0@0@Z 000000018003a1b0 f i IocpServer.obj
 0001:00039220       ??$_Allocate@U?$_Tree_node@U?$pair@$$CBV?$basic_string@DU?$char_traits@D@std@@V?$allocator@D@2@@std@@H@std@@PEAX@std@@@std@@YAPEAU?$_Tree_node@U?$pair@$$CBV?$basic_string@DU?$char_traits@D@std@@V?$allocator@D@2@@std@@H@std@@PEAX@0@_KPEAU10@@Z 000000018003a220 f i IocpServer.obj
 0001:000392b0       ??$_Buynode@AEAU?$pair@$$CBV?$basic_string@DU?$char_traits@D@std@@V?$allocator@D@2@@std@@H@std@@@?$_Tree_buy@U?$pair@$$CBV?$basic_string@DU?$char_traits@D@std@@V?$allocator@D@2@@std@@H@std@@V?$allocator@U?$pair@$$CBV?$basic_string@DU?$char_traits@D@std@@V?$allocator@D@2@@std@@H@std@@@2@@std@@QEAAPEAU?$_Tree_node@U?$pair@$$CBV?$basic_string@DU?$char_traits@D@std@@V?$allocator@D@2@@std@@H@std@@PEAX@1@AEAU?$pair@$$CBV?$basic_string@DU?$char_traits@D@std@@V?$allocator@D@2@@std@@H@1@@Z 000000018003a2b0 f i IocpServer.obj
 0001:00039390       ??$_Buynode@U?$pair@PEBDH@std@@@?$_Tree_buy@U?$pair@$$CBV?$basic_string@DU?$char_traits@D@std@@V?$allocator@D@2@@std@@H@std@@V?$allocator@U?$pair@$$CBV?$basic_string@DU?$char_traits@D@std@@V?$allocator@D@2@@std@@H@std@@@2@@std@@QEAAPEAU?$_Tree_node@U?$pair@$$CBV?$basic_string@DU?$char_traits@D@std@@V?$allocator@D@2@@std@@H@std@@PEAX@1@$$QEAU?$pair@PEBDH@1@@Z 000000018003a390 f i IocpServer.obj
 0001:00039470       ??$_Buynode_if_nil@AEAU?$pair@$$CBV?$basic_string@DU?$char_traits@D@std@@V?$allocator@D@2@@std@@H@std@@@?$_Tree@V?$_Tmap_traits@V?$basic_string@DU?$char_traits@D@std@@V?$allocator@D@2@@std@@HU?$less@V?$basic_string@DU?$char_traits@D@std@@V?$allocator@D@2@@std@@@2@V?$allocator@U?$pair@$$CBV?$basic_string@DU?$char_traits@D@std@@V?$allocator@D@2@@std@@H@std@@@2@$0A@@std@@@std@@IEAAPEAU?$_Tree_node@U?$pair@$$CBV?$basic_string@DU?$char_traits@D@std@@V?$allocator@D@2@@std@@H@std@@PEAX@1@PEAU21@AEAU?$pair@$$CBV?$basic_string@DU?$char_traits@D@std@@V?$allocator@D@2@@std@@H@1@@Z 000000018003a470 f i IocpServer.obj
 0001:00039490       ??$_Copy@U?$integral_constant@_N$0A@@std@@@?$_Tree@V?$_Tmap_traits@V?$basic_string@DU?$char_traits@D@std@@V?$allocator@D@2@@std@@HU?$less@V?$basic_string@DU?$char_traits@D@std@@V?$allocator@D@2@@std@@@2@V?$allocator@U?$pair@$$CBV?$basic_string@DU?$char_traits@D@std@@V?$allocator@D@2@@std@@H@std@@@2@$0A@@std@@@std@@IEAAXAEBV01@U?$integral_constant@_N$0A@@1@@Z 000000018003a490 f i IocpServer.obj
 0001:000395f0       ??$_Copy_nodes@U?$integral_constant@_N$0A@@std@@@?$_Tree@V?$_Tmap_traits@V?$basic_string@DU?$char_traits@D@std@@V?$allocator@D@2@@std@@HU?$less@V?$basic_string@DU?$char_traits@D@std@@V?$allocator@D@2@@std@@@2@V?$allocator@U?$pair@$$CBV?$basic_string@DU?$char_traits@D@std@@V?$allocator@D@2@@std@@H@std@@@2@$0A@@std@@@std@@IEAAPEAU?$_Tree_node@U?$pair@$$CBV?$basic_string@DU?$char_traits@D@std@@V?$allocator@D@2@@std@@H@std@@PEAX@1@PEAU21@0U?$integral_constant@_N$0A@@1@@Z 000000018003a5f0 f i IocpServer.obj
 0001:00039830       ??$_Copy_or_move@U?$integral_constant@_N$0A@@std@@U?$integral_constant@_N$00@2@U12@H@?$_Tree@V?$_Tmap_traits@V?$basic_string@DU?$char_traits@D@std@@V?$allocator@D@2@@std@@HU?$less@V?$basic_string@DU?$char_traits@D@std@@V?$allocator@D@2@@std@@@2@V?$allocator@U?$pair@$$CBV?$basic_string@DU?$char_traits@D@std@@V?$allocator@D@2@@std@@H@std@@@2@$0A@@std@@@std@@IEAAPEAU?$_Tree_node@U?$pair@$$CBV?$basic_string@DU?$char_traits@D@std@@V?$allocator@D@2@@std@@H@std@@PEAX@1@PEAU21@U?$integral_constant@_N$0A@@1@U?$integral_constant@_N$00@1@1H@Z 000000018003a830 f i IocpServer.obj
 0001:00039890       ??$_Debug_lt_pred@U?$less@V?$basic_string@DU?$char_traits@D@std@@V?$allocator@D@2@@std@@@std@@AEBV?$basic_string@DU?$char_traits@D@std@@V?$allocator@D@2@@2@AEBV32@@std@@YA_NU?$less@V?$basic_string@DU?$char_traits@D@std@@V?$allocator@D@2@@std@@@0@AEBV?$basic_string@DU?$char_traits@D@std@@V?$allocator@D@2@@0@1PEB_WI@Z 000000018003a890 f i IocpServer.obj
 0001:00039980       ??$_Distance2@V?$_Tree_iterator@V?$_Tree_val@U?$_Tree_simple_types@U?$pair@$$CBV?$basic_string@DU?$char_traits@D@std@@V?$allocator@D@2@@std@@H@std@@@std@@@std@@@std@@_K@std@@YAXV?$_Tree_iterator@V?$_Tree_val@U?$_Tree_simple_types@U?$pair@$$CBV?$basic_string@DU?$char_traits@D@std@@V?$allocator@D@2@@std@@H@std@@@std@@@std@@@0@0AEA_KUbidirectional_iterator_tag@0@@Z 000000018003a980 f i IocpServer.obj
 0001:00039a30       ??$_Distance@V?$_Tree_iterator@V?$_Tree_val@U?$_Tree_simple_types@U?$pair@$$CBV?$basic_string@DU?$char_traits@D@std@@V?$allocator@D@2@@std@@H@std@@@std@@@std@@@std@@_K@std@@YAXV?$_Tree_iterator@V?$_Tree_val@U?$_Tree_simple_types@U?$pair@$$CBV?$basic_string@DU?$char_traits@D@std@@V?$allocator@D@2@@std@@H@std@@@std@@@std@@@0@0AEA_K@Z 000000018003aa30 f i IocpServer.obj
 0001:00039b60       ??$_Insert_at@AEAU?$pair@$$CBV?$basic_string@DU?$char_traits@D@std@@V?$allocator@D@2@@std@@H@std@@PEAU?$_Tree_node@U?$pair@$$CBV?$basic_string@DU?$char_traits@D@std@@V?$allocator@D@2@@std@@H@std@@PEAX@2@@?$_Tree@V?$_Tmap_traits@V?$basic_string@DU?$char_traits@D@std@@V?$allocator@D@2@@std@@HU?$less@V?$basic_string@DU?$char_traits@D@std@@V?$allocator@D@2@@std@@@2@V?$allocator@U?$pair@$$CBV?$basic_string@DU?$char_traits@D@std@@V?$allocator@D@2@@std@@H@std@@@2@$0A@@std@@@std@@IEAA?AV?$_Tree_iterator@V?$_Tree_val@U?$_Tree_simple_types@U?$pair@$$CBV?$basic_string@DU?$char_traits@D@std@@V?$allocator@D@2@@std@@H@std@@@std@@@std@@@1@_NPEAU?$_Tree_node@U?$pair@$$CBV?$basic_string@DU?$char_traits@D@std@@V?$allocator@D@2@@std@@H@std@@PEAX@1@AEAU?$pair@$$CBV?$basic_string@DU?$char_traits@D@std@@V?$allocator@D@2@@std@@H@1@1@Z 000000018003ab60 f i IocpServer.obj
 0001:0003a0d0       ??$_Insert_nohint@AEAU?$pair@$$CBV?$basic_string@DU?$char_traits@D@std@@V?$allocator@D@2@@std@@H@std@@PEAU?$_Tree_node@U?$pair@$$CBV?$basic_string@DU?$char_traits@D@std@@V?$allocator@D@2@@std@@H@std@@PEAX@2@@?$_Tree@V?$_Tmap_traits@V?$basic_string@DU?$char_traits@D@std@@V?$allocator@D@2@@std@@HU?$less@V?$basic_string@DU?$char_traits@D@std@@V?$allocator@D@2@@std@@@2@V?$allocator@U?$pair@$$CBV?$basic_string@DU?$char_traits@D@std@@V?$allocator@D@2@@std@@H@std@@@2@$0A@@std@@@std@@IEAA?AU?$pair@V?$_Tree_iterator@V?$_Tree_val@U?$_Tree_simple_types@U?$pair@$$CBV?$basic_string@DU?$char_traits@D@std@@V?$allocator@D@2@@std@@H@std@@@std@@@std@@@std@@_N@1@_NAEAU?$pair@$$CBV?$basic_string@DU?$char_traits@D@std@@V?$allocator@D@2@@std@@H@1@PEAU?$_Tree_node@U?$pair@$$CBV?$basic_string@DU?$char_traits@D@std@@V?$allocator@D@2@@std@@H@std@@PEAX@1@@Z 000000018003b0d0 f i IocpServer.obj
 0001:0003a910       ??$_Iter_cat@V?$_Tree_iterator@V?$_Tree_val@U?$_Tree_simple_types@U?$pair@$$CBV?$basic_string@DU?$char_traits@D@std@@V?$allocator@D@2@@std@@H@std@@@std@@@std@@@std@@@std@@YA?AUbidirectional_iterator_tag@0@AEBV?$_Tree_iterator@V?$_Tree_val@U?$_Tree_simple_types@U?$pair@$$CBV?$basic_string@DU?$char_traits@D@std@@V?$allocator@D@2@@std@@H@std@@@std@@@std@@@0@@Z 000000018003b910 f i IocpServer.obj
 0001:0003a980       ??$_Kfn@$$CBV?$basic_string@DU?$char_traits@D@std@@V?$allocator@D@2@@std@@H@?$_Tmap_traits@V?$basic_string@DU?$char_traits@D@std@@V?$allocator@D@2@@std@@HU?$less@V?$basic_string@DU?$char_traits@D@std@@V?$allocator@D@2@@std@@@2@V?$allocator@U?$pair@$$CBV?$basic_string@DU?$char_traits@D@std@@V?$allocator@D@2@@std@@H@std@@@2@$0A@@std@@SAAEBV?$basic_string@DU?$char_traits@D@std@@V?$allocator@D@2@@1@AEBU?$pair@$$CBV?$basic_string@DU?$char_traits@D@std@@V?$allocator@D@2@@std@@H@1@@Z 000000018003b980 f i IocpServer.obj
 0001:0003a990       ??$addressof@PEAU?$_Tree_node@U?$pair@$$CBV?$basic_string@DU?$char_traits@D@std@@V?$allocator@D@2@@std@@H@std@@PEAX@std@@@std@@YAPEAPEAU?$_Tree_node@U?$pair@$$CBV?$basic_string@DU?$char_traits@D@std@@V?$allocator@D@2@@std@@H@std@@PEAX@0@AEAPEAU10@@Z 000000018003b990 f i IocpServer.obj
 0001:0003a9a0       ??$addressof@U?$pair@$$CBV?$basic_string@DU?$char_traits@D@std@@V?$allocator@D@2@@std@@H@std@@@std@@YAPEAU?$pair@$$CBV?$basic_string@DU?$char_traits@D@std@@V?$allocator@D@2@@std@@H@0@AEAU10@@Z 000000018003b9a0 f i IocpServer.obj
 0001:0003a9b0       ??$construct@PEAU?$_Tree_node@U?$pair@$$CBV?$basic_string@DU?$char_traits@D@std@@V?$allocator@D@2@@std@@H@std@@PEAX@std@@AEAPEAU12@@?$_Wrap_alloc@V?$allocator@U?$_Tree_node@U?$pair@$$CBV?$basic_string@DU?$char_traits@D@std@@V?$allocator@D@2@@std@@H@std@@PEAX@std@@@std@@@std@@QEAAXPEAPEAU?$_Tree_node@U?$pair@$$CBV?$basic_string@DU?$char_traits@D@std@@V?$allocator@D@2@@std@@H@std@@PEAX@1@AEAPEAU21@@Z 000000018003b9b0 f i IocpServer.obj
 0001:0003aa10       ??$construct@PEAU?$_Tree_node@U?$pair@$$CBV?$basic_string@DU?$char_traits@D@std@@V?$allocator@D@2@@std@@H@std@@PEAX@std@@AEAPEAU12@@?$allocator@U?$_Tree_node@U?$pair@$$CBV?$basic_string@DU?$char_traits@D@std@@V?$allocator@D@2@@std@@H@std@@PEAX@std@@@std@@QEAAXPEAPEAU?$_Tree_node@U?$pair@$$CBV?$basic_string@DU?$char_traits@D@std@@V?$allocator@D@2@@std@@H@std@@PEAX@1@AEAPEAU21@@Z 000000018003ba10 f i IocpServer.obj
 0001:0003aac0       ??$construct@PEAU?$_Tree_node@U?$pair@$$CBV?$basic_string@DU?$char_traits@D@std@@V?$allocator@D@2@@std@@H@std@@PEAX@std@@AEAPEAU12@@?$allocator_traits@V?$allocator@U?$_Tree_node@U?$pair@$$CBV?$basic_string@DU?$char_traits@D@std@@V?$allocator@D@2@@std@@H@std@@PEAX@std@@@std@@@std@@SAXAEAV?$allocator@U?$_Tree_node@U?$pair@$$CBV?$basic_string@DU?$char_traits@D@std@@V?$allocator@D@2@@std@@H@std@@PEAX@std@@@1@PEAPEAU?$_Tree_node@U?$pair@$$CBV?$basic_string@DU?$char_traits@D@std@@V?$allocator@D@2@@std@@H@std@@PEAX@1@AEAPEAU31@@Z 000000018003bac0 f i IocpServer.obj
 0001:0003ab20       ??$construct@U?$pair@$$CBV?$basic_string@DU?$char_traits@D@std@@V?$allocator@D@2@@std@@H@std@@AEAU12@@?$_Wrap_alloc@V?$allocator@U?$_Tree_node@U?$pair@$$CBV?$basic_string@DU?$char_traits@D@std@@V?$allocator@D@2@@std@@H@std@@PEAX@std@@@std@@@std@@QEAAXPEAU?$pair@$$CBV?$basic_string@DU?$char_traits@D@std@@V?$allocator@D@2@@std@@H@1@AEAU21@@Z 000000018003bb20 f i IocpServer.obj
 0001:0003ab80       ??$construct@U?$pair@$$CBV?$basic_string@DU?$char_traits@D@std@@V?$allocator@D@2@@std@@H@std@@AEAU12@@?$allocator@U?$_Tree_node@U?$pair@$$CBV?$basic_string@DU?$char_traits@D@std@@V?$allocator@D@2@@std@@H@std@@PEAX@std@@@std@@QEAAXPEAU?$pair@$$CBV?$basic_string@DU?$char_traits@D@std@@V?$allocator@D@2@@std@@H@1@AEAU21@@Z 000000018003bb80 f i IocpServer.obj
 0001:0003ac30       ??$construct@U?$pair@$$CBV?$basic_string@DU?$char_traits@D@std@@V?$allocator@D@2@@std@@H@std@@AEAU12@@?$allocator_traits@V?$allocator@U?$_Tree_node@U?$pair@$$CBV?$basic_string@DU?$char_traits@D@std@@V?$allocator@D@2@@std@@H@std@@PEAX@std@@@std@@@std@@SAXAEAV?$allocator@U?$_Tree_node@U?$pair@$$CBV?$basic_string@DU?$char_traits@D@std@@V?$allocator@D@2@@std@@H@std@@PEAX@std@@@1@PEAU?$pair@$$CBV?$basic_string@DU?$char_traits@D@std@@V?$allocator@D@2@@std@@H@1@AEAU31@@Z 000000018003bc30 f i IocpServer.obj
 0001:0003ac90       ??$construct@U?$pair@$$CBV?$basic_string@DU?$char_traits@D@std@@V?$allocator@D@2@@std@@H@std@@U?$pair@PEBDH@2@@?$_Wrap_alloc@V?$allocator@U?$_Tree_node@U?$pair@$$CBV?$basic_string@DU?$char_traits@D@std@@V?$allocator@D@2@@std@@H@std@@PEAX@std@@@std@@@std@@QEAAXPEAU?$pair@$$CBV?$basic_string@DU?$char_traits@D@std@@V?$allocator@D@2@@std@@H@1@$$QEAU?$pair@PEBDH@1@@Z 000000018003bc90 f i IocpServer.obj
 0001:0003acf0       ??$construct@U?$pair@$$CBV?$basic_string@DU?$char_traits@D@std@@V?$allocator@D@2@@std@@H@std@@U?$pair@PEBDH@2@@?$allocator@U?$_Tree_node@U?$pair@$$CBV?$basic_string@DU?$char_traits@D@std@@V?$allocator@D@2@@std@@H@std@@PEAX@std@@@std@@QEAAXPEAU?$pair@$$CBV?$basic_string@DU?$char_traits@D@std@@V?$allocator@D@2@@std@@H@1@$$QEAU?$pair@PEBDH@1@@Z 000000018003bcf0 f i IocpServer.obj
 0001:0003ada0       ??$construct@U?$pair@$$CBV?$basic_string@DU?$char_traits@D@std@@V?$allocator@D@2@@std@@H@std@@U?$pair@PEBDH@2@@?$allocator_traits@V?$allocator@U?$_Tree_node@U?$pair@$$CBV?$basic_string@DU?$char_traits@D@std@@V?$allocator@D@2@@std@@H@std@@PEAX@std@@@std@@@std@@SAXAEAV?$allocator@U?$_Tree_node@U?$pair@$$CBV?$basic_string@DU?$char_traits@D@std@@V?$allocator@D@2@@std@@H@std@@PEAX@std@@@1@PEAU?$pair@$$CBV?$basic_string@DU?$char_traits@D@std@@V?$allocator@D@2@@std@@H@1@$$QEAU?$pair@PEBDH@1@@Z 000000018003bda0 f i IocpServer.obj
 0001:0003ae00       ??$destroy@PEAU?$_Tree_node@U?$pair@$$CBV?$basic_string@DU?$char_traits@D@std@@V?$allocator@D@2@@std@@H@std@@PEAX@std@@@?$_Wrap_alloc@V?$allocator@U?$_Tree_node@U?$pair@$$CBV?$basic_string@DU?$char_traits@D@std@@V?$allocator@D@2@@std@@H@std@@PEAX@std@@@std@@@std@@QEAAXPEAPEAU?$_Tree_node@U?$pair@$$CBV?$basic_string@DU?$char_traits@D@std@@V?$allocator@D@2@@std@@H@std@@PEAX@1@@Z 000000018003be00 f i IocpServer.obj
 0001:0003ae50       ??$destroy@PEAU?$_Tree_node@U?$pair@$$CBV?$basic_string@DU?$char_traits@D@std@@V?$allocator@D@2@@std@@H@std@@PEAX@std@@@?$allocator@U?$_Tree_node@U?$pair@$$CBV?$basic_string@DU?$char_traits@D@std@@V?$allocator@D@2@@std@@H@std@@PEAX@std@@@std@@QEAAXPEAPEAU?$_Tree_node@U?$pair@$$CBV?$basic_string@DU?$char_traits@D@std@@V?$allocator@D@2@@std@@H@std@@PEAX@1@@Z 000000018003be50 f i IocpServer.obj
 0001:0003ae60       ??$destroy@PEAU?$_Tree_node@U?$pair@$$CBV?$basic_string@DU?$char_traits@D@std@@V?$allocator@D@2@@std@@H@std@@PEAX@std@@@?$allocator_traits@V?$allocator@U?$_Tree_node@U?$pair@$$CBV?$basic_string@DU?$char_traits@D@std@@V?$allocator@D@2@@std@@H@std@@PEAX@std@@@std@@@std@@SAXAEAV?$allocator@U?$_Tree_node@U?$pair@$$CBV?$basic_string@DU?$char_traits@D@std@@V?$allocator@D@2@@std@@H@std@@PEAX@std@@@1@PEAPEAU?$_Tree_node@U?$pair@$$CBV?$basic_string@DU?$char_traits@D@std@@V?$allocator@D@2@@std@@H@std@@PEAX@1@@Z 000000018003be60 f i IocpServer.obj
 0001:0003aeb0       ??$destroy@U?$pair@$$CBV?$basic_string@DU?$char_traits@D@std@@V?$allocator@D@2@@std@@H@std@@@?$_Wrap_alloc@V?$allocator@U?$_Tree_node@U?$pair@$$CBV?$basic_string@DU?$char_traits@D@std@@V?$allocator@D@2@@std@@H@std@@PEAX@std@@@std@@@std@@QEAAXPEAU?$pair@$$CBV?$basic_string@DU?$char_traits@D@std@@V?$allocator@D@2@@std@@H@1@@Z 000000018003beb0 f i IocpServer.obj
 0001:0003af00       ??$destroy@U?$pair@$$CBV?$basic_string@DU?$char_traits@D@std@@V?$allocator@D@2@@std@@H@std@@@?$allocator@U?$_Tree_node@U?$pair@$$CBV?$basic_string@DU?$char_traits@D@std@@V?$allocator@D@2@@std@@H@std@@PEAX@std@@@std@@QEAAXPEAU?$pair@$$CBV?$basic_string@DU?$char_traits@D@std@@V?$allocator@D@2@@std@@H@1@@Z 000000018003bf00 f i IocpServer.obj
 0001:0003af50       ??$destroy@U?$pair@$$CBV?$basic_string@DU?$char_traits@D@std@@V?$allocator@D@2@@std@@H@std@@@?$allocator_traits@V?$allocator@U?$_Tree_node@U?$pair@$$CBV?$basic_string@DU?$char_traits@D@std@@V?$allocator@D@2@@std@@H@std@@PEAX@std@@@std@@@std@@SAXAEAV?$allocator@U?$_Tree_node@U?$pair@$$CBV?$basic_string@DU?$char_traits@D@std@@V?$allocator@D@2@@std@@H@std@@PEAX@std@@@1@PEAU?$pair@$$CBV?$basic_string@DU?$char_traits@D@std@@V?$allocator@D@2@@std@@H@1@@Z 000000018003bf50 f i IocpServer.obj
 0001:0003afa0       ??$forward@AEAPEAU?$_Tree_node@U?$pair@$$CBV?$basic_string@DU?$char_traits@D@std@@V?$allocator@D@2@@std@@H@std@@PEAX@std@@@std@@YAAEAPEAU?$_Tree_node@U?$pair@$$CBV?$basic_string@DU?$char_traits@D@std@@V?$allocator@D@2@@std@@H@std@@PEAX@0@AEAPEAU10@@Z 000000018003bfa0 f i IocpServer.obj
 0001:0003afb0       ??$forward@AEAPEBD@std@@YAAEAPEBDAEAPEBD@Z 000000018003bfb0 f i IocpServer.obj
 0001:0003afc0       ??$forward@AEAU?$pair@$$CBV?$basic_string@DU?$char_traits@D@std@@V?$allocator@D@2@@std@@H@std@@@std@@YAAEAU?$pair@$$CBV?$basic_string@DU?$char_traits@D@std@@V?$allocator@D@2@@std@@H@0@AEAU10@@Z 000000018003bfc0 f i IocpServer.obj
 0001:0003afd0       ??$forward@AEAV?$_Tree_iterator@V?$_Tree_val@U?$_Tree_simple_types@U?$pair@$$CBV?$basic_string@DU?$char_traits@D@std@@V?$allocator@D@2@@std@@H@std@@@std@@@std@@@std@@@std@@YAAEAV?$_Tree_iterator@V?$_Tree_val@U?$_Tree_simple_types@U?$pair@$$CBV?$basic_string@DU?$char_traits@D@std@@V?$allocator@D@2@@std@@H@std@@@std@@@std@@@0@AEAV10@@Z 000000018003bfd0 f i IocpServer.obj
 0001:0003afe0       ??$forward@AEBV?$basic_string@DU?$char_traits@D@std@@V?$allocator@D@2@@std@@@std@@YAAEBV?$basic_string@DU?$char_traits@D@std@@V?$allocator@D@2@@0@AEBV10@@Z 000000018003bfe0 f i IocpServer.obj
 0001:0003aff0       ??$forward@PEBD@std@@YA$$QEAPEBDAEAPEBD@Z 000000018003bff0 f i IocpServer.obj
 0001:0003b000       ??$forward@U?$pair@PEBDH@std@@@std@@YA$$QEAU?$pair@PEBDH@0@AEAU10@@Z 000000018003c000 f i IocpServer.obj
 0001:0003b010       ??$forward@V?$_Tree_iterator@V?$_Tree_val@U?$_Tree_simple_types@U?$pair@$$CBV?$basic_string@DU?$char_traits@D@std@@V?$allocator@D@2@@std@@H@std@@@std@@@std@@@std@@@std@@YA$$QEAV?$_Tree_iterator@V?$_Tree_val@U?$_Tree_simple_types@U?$pair@$$CBV?$basic_string@DU?$char_traits@D@std@@V?$allocator@D@2@@std@@H@std@@@std@@@std@@@0@AEAV10@@Z 000000018003c010 f i IocpServer.obj
 0001:0003b020       ??$insert@U?$pair@PEBDH@std@@@?$_Tree@V?$_Tmap_traits@V?$basic_string@DU?$char_traits@D@std@@V?$allocator@D@2@@std@@HU?$less@V?$basic_string@DU?$char_traits@D@std@@V?$allocator@D@2@@std@@@2@V?$allocator@U?$pair@$$CBV?$basic_string@DU?$char_traits@D@std@@V?$allocator@D@2@@std@@H@std@@@2@$0A@@std@@@std@@QEAA?AU?$pair@V?$_Tree_iterator@V?$_Tree_val@U?$_Tree_simple_types@U?$pair@$$CBV?$basic_string@DU?$char_traits@D@std@@V?$allocator@D@2@@std@@H@std@@@std@@@std@@@std@@_N@1@$$QEAU?$pair@PEBDH@1@@Z 000000018003c020 f i IocpServer.obj
 0001:0003b0d0       ??$make_pair@AEAPEBDH@std@@YA?AU?$pair@PEBDH@0@AEAPEBD$$QEAH@Z 000000018003c0d0 f i IocpServer.obj
 0001:0003b150       ??0?$_Iterator012@Ubidirectional_iterator_tag@std@@U?$pair@$$CBV?$basic_string@DU?$char_traits@D@std@@V?$allocator@D@2@@std@@H@2@_JPEBU32@AEBU32@U_Iterator_base12@2@@std@@QEAA@AEBU01@@Z 000000018003c150 f i IocpServer.obj
 0001:0003b1a0       ??0?$_Iterator012@Ubidirectional_iterator_tag@std@@U?$pair@$$CBV?$basic_string@DU?$char_traits@D@std@@V?$allocator@D@2@@std@@H@2@_JPEBU32@AEBU32@U_Iterator_base12@2@@std@@QEAA@XZ 000000018003c1a0 f i IocpServer.obj
 0001:0003b1e0       ??0?$_Tree@V?$_Tmap_traits@V?$basic_string@DU?$char_traits@D@std@@V?$allocator@D@2@@std@@HU?$less@V?$basic_string@DU?$char_traits@D@std@@V?$allocator@D@2@@std@@@2@V?$allocator@U?$pair@$$CBV?$basic_string@DU?$char_traits@D@std@@V?$allocator@D@2@@std@@H@std@@@2@$0A@@std@@@std@@QEAA@AEBU?$less@V?$basic_string@DU?$char_traits@D@std@@V?$allocator@D@2@@std@@@1@AEBV?$allocator@U?$pair@$$CBV?$basic_string@DU?$char_traits@D@std@@V?$allocator@D@2@@std@@H@std@@@1@@Z 000000018003c1e0 f i IocpServer.obj
 0001:0003b240       ??0?$_Tree@V?$_Tmap_traits@V?$basic_string@DU?$char_traits@D@std@@V?$allocator@D@2@@std@@HU?$less@V?$basic_string@DU?$char_traits@D@std@@V?$allocator@D@2@@std@@@2@V?$allocator@U?$pair@$$CBV?$basic_string@DU?$char_traits@D@std@@V?$allocator@D@2@@std@@H@std@@@2@$0A@@std@@@std@@QEAA@AEBV01@AEBV?$allocator@U?$pair@$$CBV?$basic_string@DU?$char_traits@D@std@@V?$allocator@D@2@@std@@H@std@@@1@@Z 000000018003c240 f i IocpServer.obj
 0001:0003b2f0       ??0?$_Tree_alloc@$0A@U?$_Tree_base_types@U?$pair@$$CBV?$basic_string@DU?$char_traits@D@std@@V?$allocator@D@2@@std@@H@std@@V?$allocator@U?$pair@$$CBV?$basic_string@DU?$char_traits@D@std@@V?$allocator@D@2@@std@@H@std@@@2@@std@@@std@@QEAA@AEBV?$allocator@U?$pair@$$CBV?$basic_string@DU?$char_traits@D@std@@V?$allocator@D@2@@std@@H@std@@@1@@Z 000000018003c2f0 f i IocpServer.obj
 0001:0003b370       ??0?$_Tree_buy@U?$pair@$$CBV?$basic_string@DU?$char_traits@D@std@@V?$allocator@D@2@@std@@H@std@@V?$allocator@U?$pair@$$CBV?$basic_string@DU?$char_traits@D@std@@V?$allocator@D@2@@std@@H@std@@@2@@std@@QEAA@AEBV?$allocator@U?$pair@$$CBV?$basic_string@DU?$char_traits@D@std@@V?$allocator@D@2@@std@@H@std@@@1@@Z 000000018003c370 f i IocpServer.obj
 0001:0003b3c0       ??0?$_Tree_comp@$0A@V?$_Tmap_traits@V?$basic_string@DU?$char_traits@D@std@@V?$allocator@D@2@@std@@HU?$less@V?$basic_string@DU?$char_traits@D@std@@V?$allocator@D@2@@std@@@2@V?$allocator@U?$pair@$$CBV?$basic_string@DU?$char_traits@D@std@@V?$allocator@D@2@@std@@H@std@@@2@$0A@@std@@@std@@QEAA@AEBU?$less@V?$basic_string@DU?$char_traits@D@std@@V?$allocator@D@2@@std@@@1@AEBV?$allocator@U?$pair@$$CBV?$basic_string@DU?$char_traits@D@std@@V?$allocator@D@2@@std@@H@std@@@1@@Z 000000018003c3c0 f i IocpServer.obj
 0001:0003b420       ??0?$_Tree_const_iterator@V?$_Tree_val@U?$_Tree_simple_types@U?$pair@$$CBV?$basic_string@DU?$char_traits@D@std@@V?$allocator@D@2@@std@@H@std@@@std@@@std@@@std@@QEAA@AEBV01@@Z 000000018003c420 f i IocpServer.obj
 0001:0003b470       ??0?$_Tree_const_iterator@V?$_Tree_val@U?$_Tree_simple_types@U?$pair@$$CBV?$basic_string@DU?$char_traits@D@std@@V?$allocator@D@2@@std@@H@std@@@std@@@std@@@std@@QEAA@PEAU?$_Tree_node@U?$pair@$$CBV?$basic_string@DU?$char_traits@D@std@@V?$allocator@D@2@@std@@H@std@@PEAX@1@PEBV?$_Tree_val@U?$_Tree_simple_types@U?$pair@$$CBV?$basic_string@DU?$char_traits@D@std@@V?$allocator@D@2@@std@@H@std@@@std@@@1@@Z 000000018003c470 f i IocpServer.obj
 0001:0003b4d0       ??0?$_Tree_iterator@V?$_Tree_val@U?$_Tree_simple_types@U?$pair@$$CBV?$basic_string@DU?$char_traits@D@std@@V?$allocator@D@2@@std@@H@std@@@std@@@std@@@std@@QEAA@AEBV01@@Z 000000018003c4d0 f i IocpServer.obj
 0001:0003b520       ??0?$_Tree_iterator@V?$_Tree_val@U?$_Tree_simple_types@U?$pair@$$CBV?$basic_string@DU?$char_traits@D@std@@V?$allocator@D@2@@std@@H@std@@@std@@@std@@@std@@QEAA@PEAU?$_Tree_node@U?$pair@$$CBV?$basic_string@DU?$char_traits@D@std@@V?$allocator@D@2@@std@@H@std@@PEAX@1@PEBV?$_Tree_val@U?$_Tree_simple_types@U?$pair@$$CBV?$basic_string@DU?$char_traits@D@std@@V?$allocator@D@2@@std@@H@std@@@std@@@1@@Z 000000018003c520 f i IocpServer.obj
 0001:0003b580       ??0?$_Tree_unchecked_const_iterator@V?$_Tree_val@U?$_Tree_simple_types@U?$pair@$$CBV?$basic_string@DU?$char_traits@D@std@@V?$allocator@D@2@@std@@H@std@@@std@@@std@@U_Iterator_base12@2@@std@@QEAA@AEBV01@@Z 000000018003c580 f i IocpServer.obj
 0001:0003b5f0       ??0?$_Tree_unchecked_const_iterator@V?$_Tree_val@U?$_Tree_simple_types@U?$pair@$$CBV?$basic_string@DU?$char_traits@D@std@@V?$allocator@D@2@@std@@H@std@@@std@@@std@@U_Iterator_base12@2@@std@@QEAA@PEAU?$_Tree_node@U?$pair@$$CBV?$basic_string@DU?$char_traits@D@std@@V?$allocator@D@2@@std@@H@std@@PEAX@1@PEBV?$_Tree_val@U?$_Tree_simple_types@U?$pair@$$CBV?$basic_string@DU?$char_traits@D@std@@V?$allocator@D@2@@std@@H@std@@@std@@@1@@Z 000000018003c5f0 f i IocpServer.obj
 0001:0003b670       ??0?$_Tree_val@U?$_Tree_simple_types@U?$pair@$$CBV?$basic_string@DU?$char_traits@D@std@@V?$allocator@D@2@@std@@H@std@@@std@@@std@@QEAA@XZ 000000018003c670 f i IocpServer.obj
 0001:0003b6e0       ??0?$_Wrap_alloc@V?$allocator@D@std@@@std@@QEAA@AEBV?$allocator@D@1@@Z 000000018003c6e0 f i IocpServer.obj
 0001:0003b730       ??0?$_Wrap_alloc@V?$allocator@U?$_Tree_node@U?$pair@$$CBV?$basic_string@DU?$char_traits@D@std@@V?$allocator@D@2@@std@@H@std@@PEAX@std@@@std@@@std@@QEAA@AEBV?$allocator@U?$_Tree_node@U?$pair@$$CBV?$basic_string@DU?$char_traits@D@std@@V?$allocator@D@2@@std@@H@std@@PEAX@std@@@1@@Z 000000018003c730 f i IocpServer.obj
 0001:0003b780       ??0?$_Wrap_alloc@V?$allocator@U?$_Tree_node@U?$pair@$$CBV?$basic_string@DU?$char_traits@D@std@@V?$allocator@D@2@@std@@H@std@@PEAX@std@@@std@@@std@@QEAA@XZ 000000018003c780 f i IocpServer.obj
 0001:0003b7c0       ??0?$allocator@D@std@@QEAA@AEBV01@@Z 000000018003c7c0 f i IocpServer.obj
 0001:0003b7e0       ??0?$allocator@U?$_Tree_node@U?$pair@$$CBV?$basic_string@DU?$char_traits@D@std@@V?$allocator@D@2@@std@@H@std@@PEAX@std@@@std@@QEAA@AEBV01@@Z 000000018003c7e0 f i IocpServer.obj
 0001:0003b800       ??0?$allocator@U?$_Tree_node@U?$pair@$$CBV?$basic_string@DU?$char_traits@D@std@@V?$allocator@D@2@@std@@H@std@@PEAX@std@@@std@@QEAA@XZ 000000018003c800 f i IocpServer.obj
 0001:0003b810       ??0?$allocator@U?$pair@$$CBV?$basic_string@DU?$char_traits@D@std@@V?$allocator@D@2@@std@@H@std@@@std@@QEAA@XZ 000000018003c810 f i IocpServer.obj
 0001:0003b820       ??0?$basic_string@DU?$char_traits@D@std@@V?$allocator@D@2@@std@@QEAA@AEBV01@@Z 000000018003c820 f i IocpServer.obj
 0001:0003b8d0       ??0?$map@V?$basic_string@DU?$char_traits@D@std@@V?$allocator@D@2@@std@@HU?$less@V?$basic_string@DU?$char_traits@D@std@@V?$allocator@D@2@@std@@@2@V?$allocator@U?$pair@$$CBV?$basic_string@DU?$char_traits@D@std@@V?$allocator@D@2@@std@@H@std@@@2@@std@@QEAA@AEBV01@@Z 000000018003c8d0 f i IocpServer.obj
 0001:0003b960       ??0?$map@V?$basic_string@DU?$char_traits@D@std@@V?$allocator@D@2@@std@@HU?$less@V?$basic_string@DU?$char_traits@D@std@@V?$allocator@D@2@@std@@@2@V?$allocator@U?$pair@$$CBV?$basic_string@DU?$char_traits@D@std@@V?$allocator@D@2@@std@@H@std@@@2@@std@@QEAA@XZ 000000018003c960 f i IocpServer.obj
 0001:0003b9c0       ??0?$pair@$$CBV?$basic_string@DU?$char_traits@D@std@@V?$allocator@D@2@@std@@H@std@@QEAA@AEBU01@@Z 000000018003c9c0 f i IocpServer.obj
 0001:0003ba30       ??0CIocpServer@@QEAA@AEBV0@@Z 000000018003ca30 f i IocpServer.obj
 0001:0003ba60       ??0CIocpServerFactory@@QEAA@AEBV0@@Z 000000018003ca60 f i IocpServer.obj
 0001:0003ba90       ??1?$_Iterator012@Ubidirectional_iterator_tag@std@@U?$pair@$$CBV?$basic_string@DU?$char_traits@D@std@@V?$allocator@D@2@@std@@H@2@_JPEBU32@AEBU32@U_Iterator_base12@2@@std@@QEAA@XZ 000000018003ca90 f i IocpServer.obj
 0001:0003bad0       ??1?$_Tree@V?$_Tmap_traits@V?$basic_string@DU?$char_traits@D@std@@V?$allocator@D@2@@std@@HU?$less@V?$basic_string@DU?$char_traits@D@std@@V?$allocator@D@2@@std@@@2@V?$allocator@U?$pair@$$CBV?$basic_string@DU?$char_traits@D@std@@V?$allocator@D@2@@std@@H@std@@@2@$0A@@std@@@std@@QEAA@XZ 000000018003cad0 f i IocpServer.obj
 0001:0003bb20       ??1?$_Tree_alloc@$0A@U?$_Tree_base_types@U?$pair@$$CBV?$basic_string@DU?$char_traits@D@std@@V?$allocator@D@2@@std@@H@std@@V?$allocator@U?$pair@$$CBV?$basic_string@DU?$char_traits@D@std@@V?$allocator@D@2@@std@@H@std@@@2@@std@@@std@@QEAA@XZ 000000018003cb20 f i IocpServer.obj
 0001:0003bb80       ??1?$_Tree_buy@U?$pair@$$CBV?$basic_string@DU?$char_traits@D@std@@V?$allocator@D@2@@std@@H@std@@V?$allocator@U?$pair@$$CBV?$basic_string@DU?$char_traits@D@std@@V?$allocator@D@2@@std@@H@std@@@2@@std@@QEAA@XZ 000000018003cb80 f i IocpServer.obj
 0001:0003bbc0       ??1?$_Tree_comp@$0A@V?$_Tmap_traits@V?$basic_string@DU?$char_traits@D@std@@V?$allocator@D@2@@std@@HU?$less@V?$basic_string@DU?$char_traits@D@std@@V?$allocator@D@2@@std@@@2@V?$allocator@U?$pair@$$CBV?$basic_string@DU?$char_traits@D@std@@V?$allocator@D@2@@std@@H@std@@@2@$0A@@std@@@std@@QEAA@XZ 000000018003cbc0 f i IocpServer.obj
 0001:0003bc00       ??1?$_Tree_const_iterator@V?$_Tree_val@U?$_Tree_simple_types@U?$pair@$$CBV?$basic_string@DU?$char_traits@D@std@@V?$allocator@D@2@@std@@H@std@@@std@@@std@@@std@@QEAA@XZ 000000018003cc00 f i IocpServer.obj
 0001:0003bc40       ??1?$_Tree_iterator@V?$_Tree_val@U?$_Tree_simple_types@U?$pair@$$CBV?$basic_string@DU?$char_traits@D@std@@V?$allocator@D@2@@std@@H@std@@@std@@@std@@@std@@QEAA@XZ 000000018003cc40 f i IocpServer.obj
 0001:0003bc80       ??1?$_Tree_unchecked_const_iterator@V?$_Tree_val@U?$_Tree_simple_types@U?$pair@$$CBV?$basic_string@DU?$char_traits@D@std@@V?$allocator@D@2@@std@@H@std@@@std@@@std@@U_Iterator_base12@2@@std@@QEAA@XZ 000000018003cc80 f i IocpServer.obj
 0001:0003bcc0       ??1?$_Tree_val@U?$_Tree_simple_types@U?$pair@$$CBV?$basic_string@DU?$char_traits@D@std@@V?$allocator@D@2@@std@@H@std@@@std@@@std@@QEAA@XZ 000000018003ccc0 f i IocpServer.obj
 0001:0003bd00       ??1?$map@V?$basic_string@DU?$char_traits@D@std@@V?$allocator@D@2@@std@@HU?$less@V?$basic_string@DU?$char_traits@D@std@@V?$allocator@D@2@@std@@@2@V?$allocator@U?$pair@$$CBV?$basic_string@DU?$char_traits@D@std@@V?$allocator@D@2@@std@@H@std@@@2@@std@@QEAA@XZ 000000018003cd00 f i IocpServer.obj
 0001:0003bd40       ??1?$pair@$$CBV?$basic_string@DU?$char_traits@D@std@@V?$allocator@D@2@@std@@H@std@@QEAA@XZ 000000018003cd40 f i IocpServer.obj
 0001:0003bd80       ??1?$pair@V?$_Tree_iterator@V?$_Tree_val@U?$_Tree_simple_types@U?$pair@$$CBV?$basic_string@DU?$char_traits@D@std@@V?$allocator@D@2@@std@@H@std@@@std@@@std@@@std@@V12@@std@@QEAA@XZ 000000018003cd80 f i IocpServer.obj
 0001:0003bde0       ??1?$pair@V?$_Tree_iterator@V?$_Tree_val@U?$_Tree_simple_types@U?$pair@$$CBV?$basic_string@DU?$char_traits@D@std@@V?$allocator@D@2@@std@@H@std@@@std@@@std@@@std@@_N@std@@QEAA@XZ 000000018003cde0 f i IocpServer.obj
 0001:0003be20       ??4CIocpServer@@QEAAAEAV0@AEBV0@@Z 000000018003ce20 f i IocpServer.obj
 0001:0003be40       ??4CIocpServerFactory@@QEAAAEAV0@AEBV0@@Z 000000018003ce40 f i IocpServer.obj
 0001:0003be60       ??8?$_Tree_const_iterator@V?$_Tree_val@U?$_Tree_simple_types@U?$pair@$$CBV?$basic_string@DU?$char_traits@D@std@@V?$allocator@D@2@@std@@H@std@@@std@@@std@@@std@@QEBA_NAEBV01@@Z 000000018003ce60 f i IocpServer.obj
 0001:0003bfd0       ??9?$_Tree_const_iterator@V?$_Tree_val@U?$_Tree_simple_types@U?$pair@$$CBV?$basic_string@DU?$char_traits@D@std@@V?$allocator@D@2@@std@@H@std@@@std@@@std@@@std@@QEBA_NAEBV01@@Z 000000018003cfd0 f i IocpServer.obj
 0001:0003c040       ??E?$_Tree_const_iterator@V?$_Tree_val@U?$_Tree_simple_types@U?$pair@$$CBV?$basic_string@DU?$char_traits@D@std@@V?$allocator@D@2@@std@@H@std@@@std@@@std@@@std@@QEAA?AV01@H@Z 000000018003d040 f i IocpServer.obj
 0001:0003c100       ??E?$_Tree_const_iterator@V?$_Tree_val@U?$_Tree_simple_types@U?$pair@$$CBV?$basic_string@DU?$char_traits@D@std@@V?$allocator@D@2@@std@@H@std@@@std@@@std@@@std@@QEAAAEAV01@XZ 000000018003d100 f i IocpServer.obj
 0001:0003c240       ??E?$_Tree_iterator@V?$_Tree_val@U?$_Tree_simple_types@U?$pair@$$CBV?$basic_string@DU?$char_traits@D@std@@V?$allocator@D@2@@std@@H@std@@@std@@@std@@@std@@QEAAAEAV01@XZ 000000018003d240 f i IocpServer.obj
 0001:0003c280       ??E?$_Tree_unchecked_const_iterator@V?$_Tree_val@U?$_Tree_simple_types@U?$pair@$$CBV?$basic_string@DU?$char_traits@D@std@@V?$allocator@D@2@@std@@H@std@@@std@@@std@@U_Iterator_base12@2@@std@@QEAAAEAV01@XZ 000000018003d280 f i IocpServer.obj
 0001:0003c3a0       ??F?$_Tree_const_iterator@V?$_Tree_val@U?$_Tree_simple_types@U?$pair@$$CBV?$basic_string@DU?$char_traits@D@std@@V?$allocator@D@2@@std@@H@std@@@std@@@std@@@std@@QEAAAEAV01@XZ 000000018003d3a0 f i IocpServer.obj
 0001:0003c5a0       ??F?$_Tree_iterator@V?$_Tree_val@U?$_Tree_simple_types@U?$pair@$$CBV?$basic_string@DU?$char_traits@D@std@@V?$allocator@D@2@@std@@H@std@@@std@@@std@@@std@@QEAAAEAV01@XZ 000000018003d5a0 f i IocpServer.obj
 0001:0003c5e0       ??F?$_Tree_unchecked_const_iterator@V?$_Tree_val@U?$_Tree_simple_types@U?$pair@$$CBV?$basic_string@DU?$char_traits@D@std@@V?$allocator@D@2@@std@@H@std@@@std@@@std@@U_Iterator_base12@2@@std@@QEAAAEAV01@XZ 000000018003d5e0 f i IocpServer.obj
 0001:0003c740       ??R?$less@V?$basic_string@DU?$char_traits@D@std@@V?$allocator@D@2@@std@@@std@@QEBA_NAEBV?$basic_string@DU?$char_traits@D@std@@V?$allocator@D@2@@1@0@Z 000000018003d740 f i IocpServer.obj
 0001:0003c790       ??_ECIocpServer@@UEAAPEAXI@Z 000000018003d790 f i IocpServer.obj
 0001:0003c860       ??_ECIocpServerFactory@@UEAAPEAXI@Z 000000018003d860 f i IocpServer.obj
 0001:0003c930       ??_G?$pair@$$CBV?$basic_string@DU?$char_traits@D@std@@V?$allocator@D@2@@std@@H@std@@QEAAPEAXI@Z 000000018003d930 f i IocpServer.obj
 0001:0003c990       ??_GCIocpServer@@UEAAPEAXI@Z 000000018003d990 f i IocpServer.obj
 0001:0003c9f0       ??_GCIocpServerFactory@@UEAAPEAXI@Z 000000018003d9f0 f i IocpServer.obj
 0001:0003ca50       ?_Alloc_proxy@?$_Tree_alloc@$0A@U?$_Tree_base_types@U?$pair@$$CBV?$basic_string@DU?$char_traits@D@std@@V?$allocator@D@2@@std@@H@std@@V?$allocator@U?$pair@$$CBV?$basic_string@DU?$char_traits@D@std@@V?$allocator@D@2@@std@@H@std@@@2@@std@@@std@@QEAAXXZ 000000018003da50 f i IocpServer.obj
 0001:0003cb10       ?_Buyheadnode@?$_Tree_alloc@$0A@U?$_Tree_base_types@U?$pair@$$CBV?$basic_string@DU?$char_traits@D@std@@V?$allocator@D@2@@std@@H@std@@V?$allocator@U?$pair@$$CBV?$basic_string@DU?$char_traits@D@std@@V?$allocator@D@2@@std@@H@std@@@2@@std@@@std@@QEAAPEAU?$_Tree_node@U?$pair@$$CBV?$basic_string@DU?$char_traits@D@std@@V?$allocator@D@2@@std@@H@std@@PEAX@2@XZ 000000018003db10 f i IocpServer.obj
 0001:0003ccc0       ?_Buynode0@?$_Tree_buy@U?$pair@$$CBV?$basic_string@DU?$char_traits@D@std@@V?$allocator@D@2@@std@@H@std@@V?$allocator@U?$pair@$$CBV?$basic_string@DU?$char_traits@D@std@@V?$allocator@D@2@@std@@H@std@@@2@@std@@QEAAPEAU?$_Tree_node@U?$pair@$$CBV?$basic_string@DU?$char_traits@D@std@@V?$allocator@D@2@@std@@H@std@@PEAX@2@XZ 000000018003dcc0 f i IocpServer.obj
 0001:0003ce80       ?_Color@?$_Tree_val@U?$_Tree_simple_types@U?$pair@$$CBV?$basic_string@DU?$char_traits@D@std@@V?$allocator@D@2@@std@@H@std@@@std@@@std@@SAAEADPEAU?$_Tree_node@U?$pair@$$CBV?$basic_string@DU?$char_traits@D@std@@V?$allocator@D@2@@std@@H@std@@PEAX@2@@Z 000000018003de80 f i IocpServer.obj
 0001:0003cea0       ?_Destroy_if_not_nil@?$_Tree@V?$_Tmap_traits@V?$basic_string@DU?$char_traits@D@std@@V?$allocator@D@2@@std@@HU?$less@V?$basic_string@DU?$char_traits@D@std@@V?$allocator@D@2@@std@@@2@V?$allocator@U?$pair@$$CBV?$basic_string@DU?$char_traits@D@std@@V?$allocator@D@2@@std@@H@std@@@2@$0A@@std@@@std@@IEAAXPEAU?$_Tree_node@U?$pair@$$CBV?$basic_string@DU?$char_traits@D@std@@V?$allocator@D@2@@std@@H@std@@PEAX@2@@Z 000000018003dea0 f i IocpServer.obj
 0001:0003cf50       ?_Eqrange@?$_Tree@V?$_Tmap_traits@V?$basic_string@DU?$char_traits@D@std@@V?$allocator@D@2@@std@@HU?$less@V?$basic_string@DU?$char_traits@D@std@@V?$allocator@D@2@@std@@@2@V?$allocator@U?$pair@$$CBV?$basic_string@DU?$char_traits@D@std@@V?$allocator@D@2@@std@@H@std@@@2@$0A@@std@@@std@@IEAA?AU?$pair@V?$_Tree_iterator@V?$_Tree_val@U?$_Tree_simple_types@U?$pair@$$CBV?$basic_string@DU?$char_traits@D@std@@V?$allocator@D@2@@std@@H@std@@@std@@@std@@@std@@V12@@2@AEBV?$basic_string@DU?$char_traits@D@std@@V?$allocator@D@2@@2@@Z 000000018003df50 f i IocpServer.obj
 0001:0003d360       ?_Erase@?$_Tree@V?$_Tmap_traits@V?$basic_string@DU?$char_traits@D@std@@V?$allocator@D@2@@std@@HU?$less@V?$basic_string@DU?$char_traits@D@std@@V?$allocator@D@2@@std@@@2@V?$allocator@U?$pair@$$CBV?$basic_string@DU?$char_traits@D@std@@V?$allocator@D@2@@std@@H@std@@@2@$0A@@std@@@std@@IEAAXPEAU?$_Tree_node@U?$pair@$$CBV?$basic_string@DU?$char_traits@D@std@@V?$allocator@D@2@@std@@H@std@@PEAX@2@@Z 000000018003e360 f i IocpServer.obj
 0001:0003d470       ?_Free_proxy@?$_Tree_alloc@$0A@U?$_Tree_base_types@U?$pair@$$CBV?$basic_string@DU?$char_traits@D@std@@V?$allocator@D@2@@std@@H@std@@V?$allocator@U?$pair@$$CBV?$basic_string@DU?$char_traits@D@std@@V?$allocator@D@2@@std@@H@std@@@2@@std@@@std@@QEAAXXZ 000000018003e470 f i IocpServer.obj
 0001:0003d530       ?_Freeheadnode@?$_Tree_alloc@$0A@U?$_Tree_base_types@U?$pair@$$CBV?$basic_string@DU?$char_traits@D@std@@V?$allocator@D@2@@std@@H@std@@V?$allocator@U?$pair@$$CBV?$basic_string@DU?$char_traits@D@std@@V?$allocator@D@2@@std@@H@std@@@2@@std@@@std@@QEAAXPEAU?$_Tree_node@U?$pair@$$CBV?$basic_string@DU?$char_traits@D@std@@V?$allocator@D@2@@std@@H@std@@PEAX@2@@Z 000000018003e530 f i IocpServer.obj
 0001:0003d660       ?_Freenode0@?$_Tree_buy@U?$pair@$$CBV?$basic_string@DU?$char_traits@D@std@@V?$allocator@D@2@@std@@H@std@@V?$allocator@U?$pair@$$CBV?$basic_string@DU?$char_traits@D@std@@V?$allocator@D@2@@std@@H@std@@@2@@std@@QEAAXPEAU?$_Tree_node@U?$pair@$$CBV?$basic_string@DU?$char_traits@D@std@@V?$allocator@D@2@@std@@H@std@@PEAX@2@@Z 000000018003e660 f i IocpServer.obj
 0001:0003d790       ?_Getal@?$_Tree_alloc@$0A@U?$_Tree_base_types@U?$pair@$$CBV?$basic_string@DU?$char_traits@D@std@@V?$allocator@D@2@@std@@H@std@@V?$allocator@U?$pair@$$CBV?$basic_string@DU?$char_traits@D@std@@V?$allocator@D@2@@std@@H@std@@@2@@std@@@std@@QEBA?AU?$_Wrap_alloc@V?$allocator@U?$_Tree_node@U?$pair@$$CBV?$basic_string@DU?$char_traits@D@std@@V?$allocator@D@2@@std@@H@std@@PEAX@std@@@std@@@2@XZ 000000018003e790 f i IocpServer.obj
 0001:0003d7e0       ?_Getcomp@?$_Tree_comp@$0A@V?$_Tmap_traits@V?$basic_string@DU?$char_traits@D@std@@V?$allocator@D@2@@std@@HU?$less@V?$basic_string@DU?$char_traits@D@std@@V?$allocator@D@2@@std@@@2@V?$allocator@U?$pair@$$CBV?$basic_string@DU?$char_traits@D@std@@V?$allocator@D@2@@std@@H@std@@@2@$0A@@std@@@std@@QEBA?AU?$less@V?$basic_string@DU?$char_traits@D@std@@V?$allocator@D@2@@std@@@2@XZ 000000018003e7e0 f i IocpServer.obj
 0001:0003d820       ?_Isnil@?$_Tree_val@U?$_Tree_simple_types@U?$pair@$$CBV?$basic_string@DU?$char_traits@D@std@@V?$allocator@D@2@@std@@H@std@@@std@@@std@@SAAEADPEAU?$_Tree_node@U?$pair@$$CBV?$basic_string@DU?$char_traits@D@std@@V?$allocator@D@2@@std@@H@std@@PEAX@2@@Z 000000018003e820 f i IocpServer.obj
 0001:0003d840       ?_Key@?$_Tree@V?$_Tmap_traits@V?$basic_string@DU?$char_traits@D@std@@V?$allocator@D@2@@std@@HU?$less@V?$basic_string@DU?$char_traits@D@std@@V?$allocator@D@2@@std@@@2@V?$allocator@U?$pair@$$CBV?$basic_string@DU?$char_traits@D@std@@V?$allocator@D@2@@std@@H@std@@@2@$0A@@std@@@std@@IEBAAEBV?$basic_string@DU?$char_traits@D@std@@V?$allocator@D@2@@2@PEAU?$_Tree_node@U?$pair@$$CBV?$basic_string@DU?$char_traits@D@std@@V?$allocator@D@2@@std@@H@std@@PEAX@2@@Z 000000018003e840 f i IocpServer.obj
 0001:0003d890       ?_Kfn@?$_Tree@V?$_Tmap_traits@V?$basic_string@DU?$char_traits@D@std@@V?$allocator@D@2@@std@@HU?$less@V?$basic_string@DU?$char_traits@D@std@@V?$allocator@D@2@@std@@@2@V?$allocator@U?$pair@$$CBV?$basic_string@DU?$char_traits@D@std@@V?$allocator@D@2@@std@@H@std@@@2@$0A@@std@@@std@@IEBAAEBV?$basic_string@DU?$char_traits@D@std@@V?$allocator@D@2@@2@AEBU?$pair@$$CBV?$basic_string@DU?$char_traits@D@std@@V?$allocator@D@2@@std@@H@2@@Z 000000018003e890 f i IocpServer.obj
 0001:0003d8d0       ?_Left@?$_Tree_val@U?$_Tree_simple_types@U?$pair@$$CBV?$basic_string@DU?$char_traits@D@std@@V?$allocator@D@2@@std@@H@std@@@std@@@std@@SAAEAPEAU?$_Tree_node@U?$pair@$$CBV?$basic_string@DU?$char_traits@D@std@@V?$allocator@D@2@@std@@H@std@@PEAX@2@PEAU32@@Z 000000018003e8d0 f i IocpServer.obj
 0001:0003d8e0       ?_Lmost@?$_Tree@V?$_Tmap_traits@V?$basic_string@DU?$char_traits@D@std@@V?$allocator@D@2@@std@@HU?$less@V?$basic_string@DU?$char_traits@D@std@@V?$allocator@D@2@@std@@@2@V?$allocator@U?$pair@$$CBV?$basic_string@DU?$char_traits@D@std@@V?$allocator@D@2@@std@@H@std@@@2@$0A@@std@@@std@@IEBAAEAPEAU?$_Tree_node@U?$pair@$$CBV?$basic_string@DU?$char_traits@D@std@@V?$allocator@D@2@@std@@H@std@@PEAX@2@XZ 000000018003e8e0 f i IocpServer.obj
 0001:0003d920       ?_Lrotate@?$_Tree@V?$_Tmap_traits@V?$basic_string@DU?$char_traits@D@std@@V?$allocator@D@2@@std@@HU?$less@V?$basic_string@DU?$char_traits@D@std@@V?$allocator@D@2@@std@@@2@V?$allocator@U?$pair@$$CBV?$basic_string@DU?$char_traits@D@std@@V?$allocator@D@2@@std@@H@std@@@2@$0A@@std@@@std@@IEAAXPEAU?$_Tree_node@U?$pair@$$CBV?$basic_string@DU?$char_traits@D@std@@V?$allocator@D@2@@std@@H@std@@PEAX@2@@Z 000000018003e920 f i IocpServer.obj
 0001:0003dad0       ?_Max@?$_Tree_val@U?$_Tree_simple_types@U?$pair@$$CBV?$basic_string@DU?$char_traits@D@std@@V?$allocator@D@2@@std@@H@std@@@std@@@std@@SAPEAU?$_Tree_node@U?$pair@$$CBV?$basic_string@DU?$char_traits@D@std@@V?$allocator@D@2@@std@@H@std@@PEAX@2@PEAU32@@Z 000000018003ead0 f i IocpServer.obj
 0001:0003db40       ?_Min@?$_Tree_val@U?$_Tree_simple_types@U?$pair@$$CBV?$basic_string@DU?$char_traits@D@std@@V?$allocator@D@2@@std@@H@std@@@std@@@std@@SAPEAU?$_Tree_node@U?$pair@$$CBV?$basic_string@DU?$char_traits@D@std@@V?$allocator@D@2@@std@@H@std@@PEAX@2@PEAU32@@Z 000000018003eb40 f i IocpServer.obj
 0001:0003dbb0       ?_Mynode@?$_Tree_unchecked_const_iterator@V?$_Tree_val@U?$_Tree_simple_types@U?$pair@$$CBV?$basic_string@DU?$char_traits@D@std@@V?$allocator@D@2@@std@@H@std@@@std@@@std@@U_Iterator_base12@2@@std@@QEBAPEAU?$_Tree_node@U?$pair@$$CBV?$basic_string@DU?$char_traits@D@std@@V?$allocator@D@2@@std@@H@std@@PEAX@2@XZ 000000018003ebb0 f i IocpServer.obj
 0001:0003dbd0       ?_Myval@?$_Tree_val@U?$_Tree_simple_types@U?$pair@$$CBV?$basic_string@DU?$char_traits@D@std@@V?$allocator@D@2@@std@@H@std@@@std@@@std@@SAAEAU?$pair@$$CBV?$basic_string@DU?$char_traits@D@std@@V?$allocator@D@2@@std@@H@2@PEAU?$_Tree_node@U?$pair@$$CBV?$basic_string@DU?$char_traits@D@std@@V?$allocator@D@2@@std@@H@std@@PEAX@2@@Z 000000018003ebd0 f i IocpServer.obj
 0001:0003dbf0       ?_Orphan_ptr@?$_Tree@V?$_Tmap_traits@V?$basic_string@DU?$char_traits@D@std@@V?$allocator@D@2@@std@@HU?$less@V?$basic_string@DU?$char_traits@D@std@@V?$allocator@D@2@@std@@@2@V?$allocator@U?$pair@$$CBV?$basic_string@DU?$char_traits@D@std@@V?$allocator@D@2@@std@@H@std@@@2@$0A@@std@@@std@@IEBAXAEAV12@PEAU?$_Tree_node@U?$pair@$$CBV?$basic_string@DU?$char_traits@D@std@@V?$allocator@D@2@@std@@H@std@@PEAX@2@@Z 000000018003ebf0 f i IocpServer.obj
 0001:0003dd20       ?_Parent@?$_Tree_val@U?$_Tree_simple_types@U?$pair@$$CBV?$basic_string@DU?$char_traits@D@std@@V?$allocator@D@2@@std@@H@std@@@std@@@std@@SAAEAPEAU?$_Tree_node@U?$pair@$$CBV?$basic_string@DU?$char_traits@D@std@@V?$allocator@D@2@@std@@H@std@@PEAX@2@PEAU32@@Z 000000018003ed20 f i IocpServer.obj
 0001:0003dd40       ?_Right@?$_Tree_val@U?$_Tree_simple_types@U?$pair@$$CBV?$basic_string@DU?$char_traits@D@std@@V?$allocator@D@2@@std@@H@std@@@std@@@std@@SAAEAPEAU?$_Tree_node@U?$pair@$$CBV?$basic_string@DU?$char_traits@D@std@@V?$allocator@D@2@@std@@H@std@@PEAX@2@PEAU32@@Z 000000018003ed40 f i IocpServer.obj
 0001:0003dd60       ?_Rmost@?$_Tree@V?$_Tmap_traits@V?$basic_string@DU?$char_traits@D@std@@V?$allocator@D@2@@std@@HU?$less@V?$basic_string@DU?$char_traits@D@std@@V?$allocator@D@2@@std@@@2@V?$allocator@U?$pair@$$CBV?$basic_string@DU?$char_traits@D@std@@V?$allocator@D@2@@std@@H@std@@@2@$0A@@std@@@std@@IEBAAEAPEAU?$_Tree_node@U?$pair@$$CBV?$basic_string@DU?$char_traits@D@std@@V?$allocator@D@2@@std@@H@std@@PEAX@2@XZ 000000018003ed60 f i IocpServer.obj
 0001:0003dda0       ?_Root@?$_Tree@V?$_Tmap_traits@V?$basic_string@DU?$char_traits@D@std@@V?$allocator@D@2@@std@@HU?$less@V?$basic_string@DU?$char_traits@D@std@@V?$allocator@D@2@@std@@@2@V?$allocator@U?$pair@$$CBV?$basic_string@DU?$char_traits@D@std@@V?$allocator@D@2@@std@@H@std@@@2@$0A@@std@@@std@@IEBAAEAPEAU?$_Tree_node@U?$pair@$$CBV?$basic_string@DU?$char_traits@D@std@@V?$allocator@D@2@@std@@H@std@@PEAX@2@XZ 000000018003eda0 f i IocpServer.obj
 0001:0003dde0       ?_Rrotate@?$_Tree@V?$_Tmap_traits@V?$basic_string@DU?$char_traits@D@std@@V?$allocator@D@2@@std@@HU?$less@V?$basic_string@DU?$char_traits@D@std@@V?$allocator@D@2@@std@@@2@V?$allocator@U?$pair@$$CBV?$basic_string@DU?$char_traits@D@std@@V?$allocator@D@2@@std@@H@std@@@2@$0A@@std@@@std@@IEAAXPEAU?$_Tree_node@U?$pair@$$CBV?$basic_string@DU?$char_traits@D@std@@V?$allocator@D@2@@std@@H@std@@PEAX@2@@Z 000000018003ede0 f i IocpServer.obj
 0001:0003df90       ?_Tidy@?$_Tree@V?$_Tmap_traits@V?$basic_string@DU?$char_traits@D@std@@V?$allocator@D@2@@std@@HU?$less@V?$basic_string@DU?$char_traits@D@std@@V?$allocator@D@2@@std@@@2@V?$allocator@U?$pair@$$CBV?$basic_string@DU?$char_traits@D@std@@V?$allocator@D@2@@std@@H@std@@@2@$0A@@std@@@std@@IEAAXXZ 000000018003ef90 f i IocpServer.obj
 0001:0003e110       ?allocate@?$_Wrap_alloc@V?$allocator@U?$_Tree_node@U?$pair@$$CBV?$basic_string@DU?$char_traits@D@std@@V?$allocator@D@2@@std@@H@std@@PEAX@std@@@std@@@std@@QEAAPEAU?$_Tree_node@U?$pair@$$CBV?$basic_string@DU?$char_traits@D@std@@V?$allocator@D@2@@std@@H@std@@PEAX@2@_K@Z 000000018003f110 f i IocpServer.obj
 0001:0003e160       ?allocate@?$allocator@U?$_Tree_node@U?$pair@$$CBV?$basic_string@DU?$char_traits@D@std@@V?$allocator@D@2@@std@@H@std@@PEAX@std@@@std@@QEAAPEAU?$_Tree_node@U?$pair@$$CBV?$basic_string@DU?$char_traits@D@std@@V?$allocator@D@2@@std@@H@std@@PEAX@2@_K@Z 000000018003f160 f i IocpServer.obj
 0001:0003e1b0       ?begin@?$_Tree@V?$_Tmap_traits@V?$basic_string@DU?$char_traits@D@std@@V?$allocator@D@2@@std@@HU?$less@V?$basic_string@DU?$char_traits@D@std@@V?$allocator@D@2@@std@@@2@V?$allocator@U?$pair@$$CBV?$basic_string@DU?$char_traits@D@std@@V?$allocator@D@2@@std@@H@std@@@2@$0A@@std@@@std@@QEAA?AV?$_Tree_iterator@V?$_Tree_val@U?$_Tree_simple_types@U?$pair@$$CBV?$basic_string@DU?$char_traits@D@std@@V?$allocator@D@2@@std@@H@std@@@std@@@std@@@2@XZ 000000018003f1b0 f i IocpServer.obj
 0001:0003e210       ?clear@?$_Tree@V?$_Tmap_traits@V?$basic_string@DU?$char_traits@D@std@@V?$allocator@D@2@@std@@HU?$less@V?$basic_string@DU?$char_traits@D@std@@V?$allocator@D@2@@std@@@2@V?$allocator@U?$pair@$$CBV?$basic_string@DU?$char_traits@D@std@@V?$allocator@D@2@@std@@H@std@@@2@$0A@@std@@@std@@QEAAXXZ 000000018003f210 f i IocpServer.obj
 0001:0003e2e0       ?compare@?$basic_string@DU?$char_traits@D@std@@V?$allocator@D@2@@std@@QEBAHAEBV12@@Z 000000018003f2e0 f i IocpServer.obj
 0001:0003e360       ?compare@?$basic_string@DU?$char_traits@D@std@@V?$allocator@D@2@@std@@QEBAH_K0PEBD0@Z 000000018003f360 f i IocpServer.obj
 0001:0003e4f0       ?deallocate@?$_Wrap_alloc@V?$allocator@U?$_Tree_node@U?$pair@$$CBV?$basic_string@DU?$char_traits@D@std@@V?$allocator@D@2@@std@@H@std@@PEAX@std@@@std@@@std@@QEAAXPEAU?$_Tree_node@U?$pair@$$CBV?$basic_string@DU?$char_traits@D@std@@V?$allocator@D@2@@std@@H@std@@PEAX@2@_K@Z 000000018003f4f0 f i IocpServer.obj
 0001:0003e550       ?deallocate@?$allocator@U?$_Tree_node@U?$pair@$$CBV?$basic_string@DU?$char_traits@D@std@@V?$allocator@D@2@@std@@H@std@@PEAX@std@@@std@@QEAAXPEAU?$_Tree_node@U?$pair@$$CBV?$basic_string@DU?$char_traits@D@std@@V?$allocator@D@2@@std@@H@std@@PEAX@2@_K@Z 000000018003f550 f i IocpServer.obj
 0001:0003e5a0       ?end@?$_Tree@V?$_Tmap_traits@V?$basic_string@DU?$char_traits@D@std@@V?$allocator@D@2@@std@@HU?$less@V?$basic_string@DU?$char_traits@D@std@@V?$allocator@D@2@@std@@@2@V?$allocator@U?$pair@$$CBV?$basic_string@DU?$char_traits@D@std@@V?$allocator@D@2@@std@@H@std@@@2@$0A@@std@@@std@@QEAA?AV?$_Tree_iterator@V?$_Tree_val@U?$_Tree_simple_types@U?$pair@$$CBV?$basic_string@DU?$char_traits@D@std@@V?$allocator@D@2@@std@@H@std@@@std@@@std@@@2@XZ 000000018003f5a0 f i IocpServer.obj
 0001:0003e600       ?equal_range@?$_Tree@V?$_Tmap_traits@V?$basic_string@DU?$char_traits@D@std@@V?$allocator@D@2@@std@@HU?$less@V?$basic_string@DU?$char_traits@D@std@@V?$allocator@D@2@@std@@@2@V?$allocator@U?$pair@$$CBV?$basic_string@DU?$char_traits@D@std@@V?$allocator@D@2@@std@@H@std@@@2@$0A@@std@@@std@@QEAA?AU?$pair@V?$_Tree_iterator@V?$_Tree_val@U?$_Tree_simple_types@U?$pair@$$CBV?$basic_string@DU?$char_traits@D@std@@V?$allocator@D@2@@std@@H@std@@@std@@@std@@@std@@V12@@2@AEBV?$basic_string@DU?$char_traits@D@std@@V?$allocator@D@2@@2@@Z 000000018003f600 f i IocpServer.obj
 0001:0003e670       ?erase@?$_Tree@V?$_Tmap_traits@V?$basic_string@DU?$char_traits@D@std@@V?$allocator@D@2@@std@@HU?$less@V?$basic_string@DU?$char_traits@D@std@@V?$allocator@D@2@@std@@@2@V?$allocator@U?$pair@$$CBV?$basic_string@DU?$char_traits@D@std@@V?$allocator@D@2@@std@@H@std@@@2@$0A@@std@@@std@@QEAA?AV?$_Tree_iterator@V?$_Tree_val@U?$_Tree_simple_types@U?$pair@$$CBV?$basic_string@DU?$char_traits@D@std@@V?$allocator@D@2@@std@@H@std@@@std@@@std@@@2@V?$_Tree_const_iterator@V?$_Tree_val@U?$_Tree_simple_types@U?$pair@$$CBV?$basic_string@DU?$char_traits@D@std@@V?$allocator@D@2@@std@@H@std@@@std@@@std@@@2@0@Z 000000018003f670 f i IocpServer.obj
 0001:0003e9d0       ?erase@?$_Tree@V?$_Tmap_traits@V?$basic_string@DU?$char_traits@D@std@@V?$allocator@D@2@@std@@HU?$less@V?$basic_string@DU?$char_traits@D@std@@V?$allocator@D@2@@std@@@2@V?$allocator@U?$pair@$$CBV?$basic_string@DU?$char_traits@D@std@@V?$allocator@D@2@@std@@H@std@@@2@$0A@@std@@@std@@QEAA?AV?$_Tree_iterator@V?$_Tree_val@U?$_Tree_simple_types@U?$pair@$$CBV?$basic_string@DU?$char_traits@D@std@@V?$allocator@D@2@@std@@H@std@@@std@@@std@@@2@V?$_Tree_const_iterator@V?$_Tree_val@U?$_Tree_simple_types@U?$pair@$$CBV?$basic_string@DU?$char_traits@D@std@@V?$allocator@D@2@@std@@H@std@@@std@@@std@@@2@@Z 000000018003f9d0 f i IocpServer.obj
 0001:0003f4f0       ?erase@?$_Tree@V?$_Tmap_traits@V?$basic_string@DU?$char_traits@D@std@@V?$allocator@D@2@@std@@HU?$less@V?$basic_string@DU?$char_traits@D@std@@V?$allocator@D@2@@std@@@2@V?$allocator@U?$pair@$$CBV?$basic_string@DU?$char_traits@D@std@@V?$allocator@D@2@@std@@H@std@@@2@$0A@@std@@@std@@QEAA_KAEBV?$basic_string@DU?$char_traits@D@std@@V?$allocator@D@2@@2@@Z 00000001800404f0 f i IocpServer.obj
 0001:0003f710       ?key_comp@?$_Tree@V?$_Tmap_traits@V?$basic_string@DU?$char_traits@D@std@@V?$allocator@D@2@@std@@HU?$less@V?$basic_string@DU?$char_traits@D@std@@V?$allocator@D@2@@std@@@2@V?$allocator@U?$pair@$$CBV?$basic_string@DU?$char_traits@D@std@@V?$allocator@D@2@@std@@H@std@@@2@$0A@@std@@@std@@QEBA?AU?$less@V?$basic_string@DU?$char_traits@D@std@@V?$allocator@D@2@@std@@@2@XZ 0000000180040710 f i IocpServer.obj
 0001:0003f760       ?max_size@?$_Tree@V?$_Tmap_traits@V?$basic_string@DU?$char_traits@D@std@@V?$allocator@D@2@@std@@HU?$less@V?$basic_string@DU?$char_traits@D@std@@V?$allocator@D@2@@std@@@2@V?$allocator@U?$pair@$$CBV?$basic_string@DU?$char_traits@D@std@@V?$allocator@D@2@@std@@H@std@@@2@$0A@@std@@@std@@QEBA_KXZ 0000000180040760 f i IocpServer.obj
 0001:0003f7b0       ?max_size@?$_Wrap_alloc@V?$allocator@U?$_Tree_node@U?$pair@$$CBV?$basic_string@DU?$char_traits@D@std@@V?$allocator@D@2@@std@@H@std@@PEAX@std@@@std@@@std@@QEBA_KXZ 00000001800407b0 f i IocpServer.obj
 0001:0003f7f0       ?max_size@?$allocator@U?$_Tree_node@U?$pair@$$CBV?$basic_string@DU?$char_traits@D@std@@V?$allocator@D@2@@std@@H@std@@PEAX@std@@@std@@QEBA_KXZ 00000001800407f0 f i IocpServer.obj
 0001:0003f810       ?max_size@?$allocator_traits@V?$allocator@U?$_Tree_node@U?$pair@$$CBV?$basic_string@DU?$char_traits@D@std@@V?$allocator@D@2@@std@@H@std@@PEAX@std@@@std@@@std@@SA_KAEBV?$allocator@U?$_Tree_node@U?$pair@$$CBV?$basic_string@DU?$char_traits@D@std@@V?$allocator@D@2@@std@@H@std@@PEAX@std@@@2@@Z 0000000180040810 f i IocpServer.obj
 0001:0003f850       ?select_on_container_copy_construction@?$_Wrap_alloc@V?$allocator@D@std@@@std@@QEBA?AU12@XZ 0000000180040850 f i IocpServer.obj
 0001:0003f8b0       ?select_on_container_copy_construction@?$_Wrap_alloc@V?$allocator@U?$_Tree_node@U?$pair@$$CBV?$basic_string@DU?$char_traits@D@std@@V?$allocator@D@2@@std@@H@std@@PEAX@std@@@std@@@std@@QEBA?AU12@XZ 00000001800408b0 f i IocpServer.obj
 0001:0003f910       ?select_on_container_copy_construction@?$allocator@D@std@@QEBA?AV12@XZ 0000000180040910 f i IocpServer.obj
 0001:0003f960       ?select_on_container_copy_construction@?$allocator@U?$_Tree_node@U?$pair@$$CBV?$basic_string@DU?$char_traits@D@std@@V?$allocator@D@2@@std@@H@std@@PEAX@std@@@std@@QEBA?AV12@XZ 0000000180040960 f i IocpServer.obj
 0001:0003f9b0       ?select_on_container_copy_construction@?$allocator_traits@V?$allocator@D@std@@@std@@SA?AV?$allocator@D@2@AEBV32@@Z 00000001800409b0 f i IocpServer.obj
 0001:0003fa00       ?select_on_container_copy_construction@?$allocator_traits@V?$allocator@U?$_Tree_node@U?$pair@$$CBV?$basic_string@DU?$char_traits@D@std@@V?$allocator@D@2@@std@@H@std@@PEAX@std@@@std@@@std@@SA?AV?$allocator@U?$_Tree_node@U?$pair@$$CBV?$basic_string@DU?$char_traits@D@std@@V?$allocator@D@2@@std@@H@std@@PEAX@std@@@2@AEBV32@@Z 0000000180040a00 f i IocpServer.obj
 0001:0003fa50       ?size@?$_Tree@V?$_Tmap_traits@V?$basic_string@DU?$char_traits@D@std@@V?$allocator@D@2@@std@@HU?$less@V?$basic_string@DU?$char_traits@D@std@@V?$allocator@D@2@@std@@@2@V?$allocator@U?$pair@$$CBV?$basic_string@DU?$char_traits@D@std@@V?$allocator@D@2@@std@@H@std@@@2@$0A@@std@@@std@@QEBA_KXZ 0000000180040a50 f i IocpServer.obj
 0001:0003fab0       ??0CIocpServerImpl@@QEAA@XZ 0000000180040ab0 f   IocpServerImpl.obj
 0001:0003fc70       ??1CIocpServerImpl@@UEAA@XZ 0000000180040c70 f   IocpServerImpl.obj
 0001:0003fd90       ?SetParams@CIocpServerImpl@@UEAAXHHHH_N@Z 0000000180040d90 f   IocpServerImpl.obj
 0001:0003fe60       ?Init@CIocpServerImpl@@UEAAHJPEAXP6AHPEAUIOCPIO@@PEAUIOCPKEY@@H0H@Z@Z 0000000180040e60 f   IocpServerImpl.obj
 0001:00040440       ?Close@CIocpServerImpl@@UEAAXXZ 0000000180041440 f   IocpServerImpl.obj
 0001:00040570       ?SendIocp@CIocpServerImpl@@UEAAHHHPEBDHH@Z 0000000180041570 f   IocpServerImpl.obj
 0001:000405e0       ?UpdateKeyInfo@CIocpServerImpl@@UEAAHPEAUIOCPKEY@@HHHHEEPEBE@Z 00000001800415e0 f   IocpServerImpl.obj
 0001:00040670       ?ReportKeyInfo@CIocpServerImpl@@UEAAXAEAH0@Z 0000000180041670 f   IocpServerImpl.obj
 0001:000406e0       ?ReportIoInfo@CIocpServerImpl@@UEAAXAEAH0@Z 00000001800416e0 f   IocpServerImpl.obj
 0001:00040750       ?FindSockId@CIocpServerImpl@@UEAA_NH@Z 0000000180041750 f   IocpServerImpl.obj
 0001:000407b0       ?GetSockIdNum@CIocpServerImpl@@UEAAHXZ 00000001800417b0 f   IocpServerImpl.obj
 0001:000407f0       ?GetSockState@CIocpServerImpl@@UEAAHH@Z 00000001800417f0 f   IocpServerImpl.obj
 0001:00040840       ?GetAcceptConNum@CIocpServerImpl@@UEBAHXZ 0000000180041840 f   IocpServerImpl.obj
 0001:00040860       ?ResetAcceptConNum@CIocpServerImpl@@UEAAXXZ 0000000180041860 f   IocpServerImpl.obj
 0001:00040880       ?CloseSocketEx@CIocpServerImpl@@UEAAXAEA_KHPEAUIOCPKEY@@PEAUIOCPIO@@HHH@Z 0000000180041880 f   IocpServerImpl.obj
 0001:000408f0       ?NotifySocketSetDelay@CIocpServerImpl@@UEAAXHH@Z 00000001800418f0 f   IocpServerImpl.obj
 0001:00040b40       ?NotifySocketCancelDelay@CIocpServerImpl@@UEAAXH@Z 0000000180041b40 f   IocpServerImpl.obj
 0001:00040ce0       ?RegAcceptEvent@CIocpServerImpl@@AEAAHXZ 0000000180041ce0 f   IocpServerImpl.obj
 0001:00040e40       ?ReRegAcceptEvent@CIocpServerImpl@@AEAAHXZ 0000000180041e40 f   IocpServerImpl.obj
 0001:00040ee0       ?IsDisconnectEvent@CIocpServerImpl@@AEAAHHKPEAUIOCPIO@@@Z 0000000180041ee0 f   IocpServerImpl.obj
 0001:00040f50       ?CheckForInvalidConnection@CIocpServerImpl@@AEAA_JXZ 0000000180041f50 f   IocpServerImpl.obj
 0001:00041140       ?DataAction@CIocpServerImpl@@AEAAHPEAUIOCPIO@@@Z 0000000180042140 f   IocpServerImpl.obj
 0001:000414f0       ?HandleData@CIocpServerImpl@@AEAAHPEAUIOCPKEY@@PEAUIOCPIO@@H@Z 00000001800424f0 f   IocpServerImpl.obj
 0001:00041860       ?GetFunPointer@CIocpServerImpl@@AEAAHXZ 0000000180042860 f   IocpServerImpl.obj
 0001:00041db0       ?StartThread@CIocpServerImpl@@AEAAHXZ 0000000180042db0 f   IocpServerImpl.obj
 0001:00042080       ?StartThreadAcceptEx@CIocpServerImpl@@AEAAHXZ 0000000180043080 f   IocpServerImpl.obj
 0001:00042190       ?StartThreadCheckDelay@CIocpServerImpl@@AEAAHXZ 0000000180043190 f   IocpServerImpl.obj
 0001:000422a0       ?BindAndListenSocket@CIocpServerImpl@@AEAAHJ@Z 00000001800432a0 f   IocpServerImpl.obj
 0001:000424f0       ?InitSocket@CIocpServerImpl@@AEAAHXZ 00000001800434f0 f   IocpServerImpl.obj
 0001:000427d0       ?CheckBlackIP@CIocpServerImpl@@AEAA_NPEBD@Z 00000001800437d0 f   IocpServerImpl.obj
 0001:00042920       ?CompletionRoutine@CIocpServerImpl@@CAKPEAX@Z 0000000180043920 f   IocpServerImpl.obj
 0001:00042960       ?ThreadAcceptEx@CIocpServerImpl@@CAKPEAX@Z 0000000180043960 f   IocpServerImpl.obj
 0001:000429a0       ?ThreadCheckDelaySockId@CIocpServerImpl@@CAKPEAX@Z 00000001800439a0 f   IocpServerImpl.obj
 0001:000429e0       ?funcThreadAeecptEx@CIocpServerImpl@@AEAAXXZ 00000001800439e0 f   IocpServerImpl.obj
 0001:00042d00       ?funcCompletionRoutine@CIocpServerImpl@@AEAAXXZ 0000000180043d00 f   IocpServerImpl.obj
 0001:00043140       ?funcCheckDelaySockId@CIocpServerImpl@@AEAAXXZ 0000000180044140 f   IocpServerImpl.obj
 0001:00043280       ?PostAcceptEx@CIocpServerImpl@@AEAAHXZ 0000000180044280 f   IocpServerImpl.obj
 0001:00043630       ?GetAddrAndPort@CIocpServerImpl@@AEAAHPEAUIOCPKEY@@PEAUIOCPIO@@@Z 0000000180044630 f   IocpServerImpl.obj
 0001:000438c0       ?MainLoop@CIocpServerImpl@@AEAAHXZ 00000001800448c0 f   IocpServerImpl.obj
 0001:00043910       ?NotifyThreadExit@CIocpServerImpl@@AEAAXXZ 0000000180044910 f   IocpServerImpl.obj
 0001:00043a10       ?CheckBlackIP@CIocpServerImpl@@AEAA_NAEAUsockaddr_in@@AEA_KPEADAEAH@Z 0000000180044a10 f   IocpServerImpl.obj
 0001:00043c40       ?SetAcceptSocketOpt@CIocpServerImpl@@AEAAHPEAUIOCPIO@@@Z 0000000180044c40 f   IocpServerImpl.obj
 0001:00043d30       ?ApplyIocpKey@CIocpServerImpl@@AEAAPEAUIOCPKEY@@PEAUIOCPIO@@@Z 0000000180044d30 f   IocpServerImpl.obj
 0001:00043df0       ?BindAcceptSocketToIocp@CIocpServerImpl@@AEAAHPEAUIOCPKEY@@PEAUIOCPIO@@@Z 0000000180044df0 f   IocpServerImpl.obj
 0001:00043fb0       ?AcceptOrNot@CIocpServerImpl@@AEAAHPEAUIOCPIO@@@Z 0000000180044fb0 f   IocpServerImpl.obj
 0001:00044110       ?PostAcceptSocketWR@CIocpServerImpl@@AEAAHPEAUIOCPKEY@@PEAUIOCPIO@@K@Z 0000000180045110 f   IocpServerImpl.obj
 0001:000444d0       ?DealIocpRead@CIocpServerImpl@@AEAAHPEAUIOCPKEY@@PEAUIOCPIO@@K@Z 00000001800454d0 f   IocpServerImpl.obj
 0001:000446a0       ?DealIocpWriteOver@CIocpServerImpl@@AEAAHPEAUIOCPKEY@@PEAUIOCPIO@@K@Z 00000001800456a0 f   IocpServerImpl.obj
 0001:00044850       ?DealDisConEvent@CIocpServerImpl@@AEAAHPEAUIOCPKEY@@PEAUIOCPIO@@KH@Z 0000000180045850 f   IocpServerImpl.obj
 0001:00044a80       ?CheckIocpRetValue@CIocpServerImpl@@AEAAHPEAUIOCPKEY@@PEAUIOCPIO@@@Z 0000000180045a80 f   IocpServerImpl.obj
 0001:00044bb0       ?PostSomeAcceptEx@CIocpServerImpl@@AEAAXXZ 0000000180045bb0 f   IocpServerImpl.obj
 0001:00044c40       ?PostSomeAcceptEx@CIocpServerImpl@@AEAAXH@Z 0000000180045c40 f   IocpServerImpl.obj
 0001:00044cd0       ?IncIdleAcceptNum@CIocpServerImpl@@AEAAXXZ 0000000180045cd0 f   IocpServerImpl.obj
 0001:00044cf0       ?DecIdleAcceptNum@CIocpServerImpl@@AEAAXXZ 0000000180045cf0 f   IocpServerImpl.obj
 0001:00044d10       ?GetIdleAcceptNum@CIocpServerImpl@@AEAAHXZ 0000000180045d10 f   IocpServerImpl.obj
 0001:00044d70       ?DealAcceptIo@CIocpServerImpl@@AEAAXPEAUIOCPIO@@@Z 0000000180045d70 f   IocpServerImpl.obj
 0001:00044dd0       ?IsNeedDelay@CIocpServerImpl@@AEAA_NH@Z 0000000180045dd0 f   IocpServerImpl.obj
 0001:00044f10       ?DelDelayEndSockId@CIocpServerImpl@@AEAA_NXZ 0000000180045f10 f   IocpServerImpl.obj
 0001:00045360       ?TestMsg@@YAHXZ            0000000180046360 f   IocpServerImpl.obj
 0001:000469b0       ??$?0AEAHAEAUDELAYINFO@@X@?$pair@HUDELAYINFO@@@std@@QEAA@AEAHAEAUDELAYINFO@@@Z 00000001800479b0 f i IocpServerImpl.obj
 0001:00046a30       ??$?0AEAV?$_Tree_iterator@V?$_Tree_val@U?$_Tree_simple_types@U?$pair@$$CBHUDELAYINFO@@@std@@@std@@@std@@@std@@_NX@?$pair@V?$_Tree_iterator@V?$_Tree_val@U?$_Tree_simple_types@U?$pair@$$CBHUDELAYINFO@@@std@@@std@@@std@@@std@@_N@std@@QEAA@AEAV?$_Tree_iterator@V?$_Tree_val@U?$_Tree_simple_types@U?$pair@$$CBHUDELAYINFO@@@std@@@std@@@std@@@1@$$QEA_N@Z 0000000180047a30 f i IocpServerImpl.obj
 0001:00046ac0       ??$?0HAEAUDELAYINFO@@X@?$pair@HUDELAYINFO@@@std@@QEAA@$$QEAHAEAUDELAYINFO@@@Z 0000000180047ac0 f i IocpServerImpl.obj
 0001:00046b40       ??$?0HUDELAYINFO@@X@?$pair@$$CBHUDELAYINFO@@@std@@QEAA@$$QEAU?$pair@HUDELAYINFO@@@1@@Z 0000000180047b40 f i IocpServerImpl.obj
 0001:00046bd0       ??$?0U?$_Tree_node@U?$pair@$$CBHH@std@@PEAX@std@@@?$allocator@U_Container_proxy@std@@@std@@QEAA@AEBV?$allocator@U?$_Tree_node@U?$pair@$$CBHH@std@@PEAX@std@@@1@@Z 0000000180047bd0 f i IocpServerImpl.obj
 0001:00046bf0       ??$?0U?$_Tree_node@U?$pair@$$CBHUDELAYINFO@@@std@@PEAX@std@@@?$allocator@U_Container_proxy@std@@@std@@QEAA@AEBV?$allocator@U?$_Tree_node@U?$pair@$$CBHUDELAYINFO@@@std@@PEAX@std@@@1@@Z 0000000180047bf0 f i IocpServerImpl.obj
 0001:00046c10       ??$?0U?$_Wrap_alloc@V?$allocator@U?$_Tree_node@U?$pair@$$CBHH@std@@PEAX@std@@@std@@@std@@@?$_Wrap_alloc@V?$allocator@U_Container_proxy@std@@@std@@@std@@QEAA@AEBU?$_Wrap_alloc@V?$allocator@U?$_Tree_node@U?$pair@$$CBHH@std@@PEAX@std@@@std@@@1@@Z 0000000180047c10 f i IocpServerImpl.obj
 0001:00046c60       ??$?0U?$_Wrap_alloc@V?$allocator@U?$_Tree_node@U?$pair@$$CBHUDELAYINFO@@@std@@PEAX@std@@@std@@@std@@@?$_Wrap_alloc@V?$allocator@U_Container_proxy@std@@@std@@@std@@QEAA@AEBU?$_Wrap_alloc@V?$allocator@U?$_Tree_node@U?$pair@$$CBHUDELAYINFO@@@std@@PEAX@std@@@std@@@1@@Z 0000000180047c60 f i IocpServerImpl.obj
 0001:00046cb0       ??$?0V?$_Tree_iterator@V?$_Tree_val@U?$_Tree_simple_types@U?$pair@$$CBHUDELAYINFO@@@std@@@std@@@std@@@std@@_NX@?$pair@V?$_Tree_iterator@V?$_Tree_val@U?$_Tree_simple_types@U?$pair@$$CBHUDELAYINFO@@@std@@@std@@@std@@@std@@_N@std@@QEAA@$$QEAV?$_Tree_iterator@V?$_Tree_val@U?$_Tree_simple_types@U?$pair@$$CBHUDELAYINFO@@@std@@@std@@@std@@@1@$$QEA_N@Z 0000000180047cb0 f i IocpServerImpl.obj
 0001:00046d40       ??$_Allocate@U?$_Tree_node@U?$pair@$$CBHH@std@@PEAX@std@@@std@@YAPEAU?$_Tree_node@U?$pair@$$CBHH@std@@PEAX@0@_KPEAU10@@Z 0000000180047d40 f i IocpServerImpl.obj
 0001:00046dd0       ??$_Allocate@U?$_Tree_node@U?$pair@$$CBHUDELAYINFO@@@std@@PEAX@std@@@std@@YAPEAU?$_Tree_node@U?$pair@$$CBHUDELAYINFO@@@std@@PEAX@0@_KPEAU10@@Z 0000000180047dd0 f i IocpServerImpl.obj
 0001:00046e60       ??$_Buynode@U?$pair@HUDELAYINFO@@@std@@@?$_Tree_buy@U?$pair@$$CBHUDELAYINFO@@@std@@V?$allocator@U?$pair@$$CBHUDELAYINFO@@@std@@@2@@std@@QEAAPEAU?$_Tree_node@U?$pair@$$CBHUDELAYINFO@@@std@@PEAX@1@$$QEAU?$pair@HUDELAYINFO@@@1@@Z 0000000180047e60 f i IocpServerImpl.obj
 0001:00046f40       ??$_Buynode_if_nil@AEAU?$pair@$$CBHUDELAYINFO@@@std@@@?$_Tree@V?$_Tmap_traits@HUDELAYINFO@@U?$less@H@std@@V?$allocator@U?$pair@$$CBHUDELAYINFO@@@std@@@3@$00@std@@@std@@IEAAPEAU?$_Tree_node@U?$pair@$$CBHUDELAYINFO@@@std@@PEAX@1@PEAU21@AEAU?$pair@$$CBHUDELAYINFO@@@1@@Z 0000000180047f40 f i IocpServerImpl.obj
 0001:00046f60       ??$_Buynode_if_nil@AEAU?$pair@$$CBHUDELAYINFO@@@std@@@?$_Tree@V?$_Tmap_traits@HUDELAYINFO@@U?$less@H@std@@V?$allocator@U?$pair@$$CBHUDELAYINFO@@@std@@@3@$0A@@std@@@std@@IEAAPEAU?$_Tree_node@U?$pair@$$CBHUDELAYINFO@@@std@@PEAX@1@PEAU21@AEAU?$pair@$$CBHUDELAYINFO@@@1@@Z 0000000180047f60 f i IocpServerImpl.obj
 0001:00046f80       ??$_Insert_at@AEAU?$pair@$$CBHUDELAYINFO@@@std@@PEAU?$_Tree_node@U?$pair@$$CBHUDELAYINFO@@@std@@PEAX@2@@?$_Tree@V?$_Tmap_traits@HUDELAYINFO@@U?$less@H@std@@V?$allocator@U?$pair@$$CBHUDELAYINFO@@@std@@@3@$00@std@@@std@@IEAA?AV?$_Tree_iterator@V?$_Tree_val@U?$_Tree_simple_types@U?$pair@$$CBHUDELAYINFO@@@std@@@std@@@std@@@1@_NPEAU?$_Tree_node@U?$pair@$$CBHUDELAYINFO@@@std@@PEAX@1@AEAU?$pair@$$CBHUDELAYINFO@@@1@1@Z 0000000180047f80 f i IocpServerImpl.obj
 0001:000474f0       ??$_Insert_at@AEAU?$pair@$$CBHUDELAYINFO@@@std@@PEAU?$_Tree_node@U?$pair@$$CBHUDELAYINFO@@@std@@PEAX@2@@?$_Tree@V?$_Tmap_traits@HUDELAYINFO@@U?$less@H@std@@V?$allocator@U?$pair@$$CBHUDELAYINFO@@@std@@@3@$0A@@std@@@std@@IEAA?AV?$_Tree_iterator@V?$_Tree_val@U?$_Tree_simple_types@U?$pair@$$CBHUDELAYINFO@@@std@@@std@@@std@@@1@_NPEAU?$_Tree_node@U?$pair@$$CBHUDELAYINFO@@@std@@PEAX@1@AEAU?$pair@$$CBHUDELAYINFO@@@1@1@Z 00000001800484f0 f i IocpServerImpl.obj
 0001:00047a60       ??$_Insert_nohint@AEAU?$pair@$$CBHUDELAYINFO@@@std@@PEAU?$_Tree_node@U?$pair@$$CBHUDELAYINFO@@@std@@PEAX@2@@?$_Tree@V?$_Tmap_traits@HUDELAYINFO@@U?$less@H@std@@V?$allocator@U?$pair@$$CBHUDELAYINFO@@@std@@@3@$00@std@@@std@@IEAA?AU?$pair@V?$_Tree_iterator@V?$_Tree_val@U?$_Tree_simple_types@U?$pair@$$CBHUDELAYINFO@@@std@@@std@@@std@@@std@@_N@1@_NAEAU?$pair@$$CBHUDELAYINFO@@@1@PEAU?$_Tree_node@U?$pair@$$CBHUDELAYINFO@@@std@@PEAX@1@@Z 0000000180048a60 f i IocpServerImpl.obj
 0001:000482a0       ??$_Insert_nohint@AEAU?$pair@$$CBHUDELAYINFO@@@std@@PEAU?$_Tree_node@U?$pair@$$CBHUDELAYINFO@@@std@@PEAX@2@@?$_Tree@V?$_Tmap_traits@HUDELAYINFO@@U?$less@H@std@@V?$allocator@U?$pair@$$CBHUDELAYINFO@@@std@@@3@$0A@@std@@@std@@IEAA?AU?$pair@V?$_Tree_iterator@V?$_Tree_val@U?$_Tree_simple_types@U?$pair@$$CBHUDELAYINFO@@@std@@@std@@@std@@@std@@_N@1@_NAEAU?$pair@$$CBHUDELAYINFO@@@1@PEAU?$_Tree_node@U?$pair@$$CBHUDELAYINFO@@@std@@PEAX@1@@Z 00000001800492a0 f i IocpServerImpl.obj
 0001:00048ae0       ??$_Kfn@$$CBHUDELAYINFO@@@?$_Tmap_traits@HUDELAYINFO@@U?$less@H@std@@V?$allocator@U?$pair@$$CBHUDELAYINFO@@@std@@@3@$00@std@@SAAEBHAEBU?$pair@$$CBHUDELAYINFO@@@1@@Z 0000000180049ae0 f i IocpServerImpl.obj
 0001:00048af0       ??$_Kfn@$$CBHUDELAYINFO@@@?$_Tmap_traits@HUDELAYINFO@@U?$less@H@std@@V?$allocator@U?$pair@$$CBHUDELAYINFO@@@std@@@3@$0A@@std@@SAAEBHAEBU?$pair@$$CBHUDELAYINFO@@@1@@Z 0000000180049af0 f i IocpServerImpl.obj
 0001:00048b00       ??$addressof@PEAU?$_Tree_node@U?$pair@$$CBHH@std@@PEAX@std@@@std@@YAPEAPEAU?$_Tree_node@U?$pair@$$CBHH@std@@PEAX@0@AEAPEAU10@@Z 0000000180049b00 f i IocpServerImpl.obj
 0001:00048b10       ??$addressof@PEAU?$_Tree_node@U?$pair@$$CBHUDELAYINFO@@@std@@PEAX@std@@@std@@YAPEAPEAU?$_Tree_node@U?$pair@$$CBHUDELAYINFO@@@std@@PEAX@0@AEAPEAU10@@Z 0000000180049b10 f i IocpServerImpl.obj
 0001:00048b20       ??$addressof@U?$pair@$$CBHH@std@@@std@@YAPEAU?$pair@$$CBHH@0@AEAU10@@Z 0000000180049b20 f i IocpServerImpl.obj
 0001:00048b30       ??$addressof@U?$pair@$$CBHUDELAYINFO@@@std@@@std@@YAPEAU?$pair@$$CBHUDELAYINFO@@@0@AEAU10@@Z 0000000180049b30 f i IocpServerImpl.obj
 0001:00048b40       ??$construct@PEAU?$_Tree_node@U?$pair@$$CBHH@std@@PEAX@std@@AEAPEAU12@@?$_Wrap_alloc@V?$allocator@U?$_Tree_node@U?$pair@$$CBHH@std@@PEAX@std@@@std@@@std@@QEAAXPEAPEAU?$_Tree_node@U?$pair@$$CBHH@std@@PEAX@1@AEAPEAU21@@Z 0000000180049b40 f i IocpServerImpl.obj
 0001:00048ba0       ??$construct@PEAU?$_Tree_node@U?$pair@$$CBHH@std@@PEAX@std@@AEAPEAU12@@?$allocator@U?$_Tree_node@U?$pair@$$CBHH@std@@PEAX@std@@@std@@QEAAXPEAPEAU?$_Tree_node@U?$pair@$$CBHH@std@@PEAX@1@AEAPEAU21@@Z 0000000180049ba0 f i IocpServerImpl.obj
 0001:00048c50       ??$construct@PEAU?$_Tree_node@U?$pair@$$CBHH@std@@PEAX@std@@AEAPEAU12@@?$allocator_traits@V?$allocator@U?$_Tree_node@U?$pair@$$CBHH@std@@PEAX@std@@@std@@@std@@SAXAEAV?$allocator@U?$_Tree_node@U?$pair@$$CBHH@std@@PEAX@std@@@1@PEAPEAU?$_Tree_node@U?$pair@$$CBHH@std@@PEAX@1@AEAPEAU31@@Z 0000000180049c50 f i IocpServerImpl.obj
 0001:00048cb0       ??$construct@PEAU?$_Tree_node@U?$pair@$$CBHUDELAYINFO@@@std@@PEAX@std@@AEAPEAU12@@?$_Wrap_alloc@V?$allocator@U?$_Tree_node@U?$pair@$$CBHUDELAYINFO@@@std@@PEAX@std@@@std@@@std@@QEAAXPEAPEAU?$_Tree_node@U?$pair@$$CBHUDELAYINFO@@@std@@PEAX@1@AEAPEAU21@@Z 0000000180049cb0 f i IocpServerImpl.obj
 0001:00048d10       ??$construct@PEAU?$_Tree_node@U?$pair@$$CBHUDELAYINFO@@@std@@PEAX@std@@AEAPEAU12@@?$allocator@U?$_Tree_node@U?$pair@$$CBHUDELAYINFO@@@std@@PEAX@std@@@std@@QEAAXPEAPEAU?$_Tree_node@U?$pair@$$CBHUDELAYINFO@@@std@@PEAX@1@AEAPEAU21@@Z 0000000180049d10 f i IocpServerImpl.obj
 0001:00048dc0       ??$construct@PEAU?$_Tree_node@U?$pair@$$CBHUDELAYINFO@@@std@@PEAX@std@@AEAPEAU12@@?$allocator_traits@V?$allocator@U?$_Tree_node@U?$pair@$$CBHUDELAYINFO@@@std@@PEAX@std@@@std@@@std@@SAXAEAV?$allocator@U?$_Tree_node@U?$pair@$$CBHUDELAYINFO@@@std@@PEAX@std@@@1@PEAPEAU?$_Tree_node@U?$pair@$$CBHUDELAYINFO@@@std@@PEAX@1@AEAPEAU31@@Z 0000000180049dc0 f i IocpServerImpl.obj
 0001:00048e20       ??$construct@U?$pair@$$CBHUDELAYINFO@@@std@@U?$pair@HUDELAYINFO@@@2@@?$_Wrap_alloc@V?$allocator@U?$_Tree_node@U?$pair@$$CBHUDELAYINFO@@@std@@PEAX@std@@@std@@@std@@QEAAXPEAU?$pair@$$CBHUDELAYINFO@@@1@$$QEAU?$pair@HUDELAYINFO@@@1@@Z 0000000180049e20 f i IocpServerImpl.obj
 0001:00048e80       ??$construct@U?$pair@$$CBHUDELAYINFO@@@std@@U?$pair@HUDELAYINFO@@@2@@?$allocator@U?$_Tree_node@U?$pair@$$CBHUDELAYINFO@@@std@@PEAX@std@@@std@@QEAAXPEAU?$pair@$$CBHUDELAYINFO@@@1@$$QEAU?$pair@HUDELAYINFO@@@1@@Z 0000000180049e80 f i IocpServerImpl.obj
 0001:00048f30       ??$construct@U?$pair@$$CBHUDELAYINFO@@@std@@U?$pair@HUDELAYINFO@@@2@@?$allocator_traits@V?$allocator@U?$_Tree_node@U?$pair@$$CBHUDELAYINFO@@@std@@PEAX@std@@@std@@@std@@SAXAEAV?$allocator@U?$_Tree_node@U?$pair@$$CBHUDELAYINFO@@@std@@PEAX@std@@@1@PEAU?$pair@$$CBHUDELAYINFO@@@1@$$QEAU?$pair@HUDELAYINFO@@@1@@Z 0000000180049f30 f i IocpServerImpl.obj
 0001:00048f90       ??$destroy@PEAU?$_Tree_node@U?$pair@$$CBHH@std@@PEAX@std@@@?$_Wrap_alloc@V?$allocator@U?$_Tree_node@U?$pair@$$CBHH@std@@PEAX@std@@@std@@@std@@QEAAXPEAPEAU?$_Tree_node@U?$pair@$$CBHH@std@@PEAX@1@@Z 0000000180049f90 f i IocpServerImpl.obj
 0001:00048fe0       ??$destroy@PEAU?$_Tree_node@U?$pair@$$CBHH@std@@PEAX@std@@@?$allocator@U?$_Tree_node@U?$pair@$$CBHH@std@@PEAX@std@@@std@@QEAAXPEAPEAU?$_Tree_node@U?$pair@$$CBHH@std@@PEAX@1@@Z 0000000180049fe0 f i IocpServerImpl.obj
 0001:00048ff0       ??$destroy@PEAU?$_Tree_node@U?$pair@$$CBHH@std@@PEAX@std@@@?$allocator_traits@V?$allocator@U?$_Tree_node@U?$pair@$$CBHH@std@@PEAX@std@@@std@@@std@@SAXAEAV?$allocator@U?$_Tree_node@U?$pair@$$CBHH@std@@PEAX@std@@@1@PEAPEAU?$_Tree_node@U?$pair@$$CBHH@std@@PEAX@1@@Z 0000000180049ff0 f i IocpServerImpl.obj
 0001:00049040       ??$destroy@PEAU?$_Tree_node@U?$pair@$$CBHUDELAYINFO@@@std@@PEAX@std@@@?$_Wrap_alloc@V?$allocator@U?$_Tree_node@U?$pair@$$CBHUDELAYINFO@@@std@@PEAX@std@@@std@@@std@@QEAAXPEAPEAU?$_Tree_node@U?$pair@$$CBHUDELAYINFO@@@std@@PEAX@1@@Z 000000018004a040 f i IocpServerImpl.obj
 0001:00049090       ??$destroy@PEAU?$_Tree_node@U?$pair@$$CBHUDELAYINFO@@@std@@PEAX@std@@@?$allocator@U?$_Tree_node@U?$pair@$$CBHUDELAYINFO@@@std@@PEAX@std@@@std@@QEAAXPEAPEAU?$_Tree_node@U?$pair@$$CBHUDELAYINFO@@@std@@PEAX@1@@Z 000000018004a090 f i IocpServerImpl.obj
 0001:000490a0       ??$destroy@PEAU?$_Tree_node@U?$pair@$$CBHUDELAYINFO@@@std@@PEAX@std@@@?$allocator_traits@V?$allocator@U?$_Tree_node@U?$pair@$$CBHUDELAYINFO@@@std@@PEAX@std@@@std@@@std@@SAXAEAV?$allocator@U?$_Tree_node@U?$pair@$$CBHUDELAYINFO@@@std@@PEAX@std@@@1@PEAPEAU?$_Tree_node@U?$pair@$$CBHUDELAYINFO@@@std@@PEAX@1@@Z 000000018004a0a0 f i IocpServerImpl.obj
 0001:000490f0       ??$destroy@U?$pair@$$CBHH@std@@@?$_Wrap_alloc@V?$allocator@U?$_Tree_node@U?$pair@$$CBHH@std@@PEAX@std@@@std@@@std@@QEAAXPEAU?$pair@$$CBHH@1@@Z 000000018004a0f0 f i IocpServerImpl.obj
 0001:00049140       ??$destroy@U?$pair@$$CBHH@std@@@?$allocator@U?$_Tree_node@U?$pair@$$CBHH@std@@PEAX@std@@@std@@QEAAXPEAU?$pair@$$CBHH@1@@Z 000000018004a140 f i IocpServerImpl.obj
 0001:00049150       ??$destroy@U?$pair@$$CBHH@std@@@?$allocator_traits@V?$allocator@U?$_Tree_node@U?$pair@$$CBHH@std@@PEAX@std@@@std@@@std@@SAXAEAV?$allocator@U?$_Tree_node@U?$pair@$$CBHH@std@@PEAX@std@@@1@PEAU?$pair@$$CBHH@1@@Z 000000018004a150 f i IocpServerImpl.obj
 0001:000491a0       ??$destroy@U?$pair@$$CBHUDELAYINFO@@@std@@@?$_Wrap_alloc@V?$allocator@U?$_Tree_node@U?$pair@$$CBHUDELAYINFO@@@std@@PEAX@std@@@std@@@std@@QEAAXPEAU?$pair@$$CBHUDELAYINFO@@@1@@Z 000000018004a1a0 f i IocpServerImpl.obj
 0001:000491f0       ??$destroy@U?$pair@$$CBHUDELAYINFO@@@std@@@?$allocator@U?$_Tree_node@U?$pair@$$CBHUDELAYINFO@@@std@@PEAX@std@@@std@@QEAAXPEAU?$pair@$$CBHUDELAYINFO@@@1@@Z 000000018004a1f0 f i IocpServerImpl.obj
 0001:00049200       ??$destroy@U?$pair@$$CBHUDELAYINFO@@@std@@@?$allocator_traits@V?$allocator@U?$_Tree_node@U?$pair@$$CBHUDELAYINFO@@@std@@PEAX@std@@@std@@@std@@SAXAEAV?$allocator@U?$_Tree_node@U?$pair@$$CBHUDELAYINFO@@@std@@PEAX@std@@@1@PEAU?$pair@$$CBHUDELAYINFO@@@1@@Z 000000018004a200 f i IocpServerImpl.obj
 0001:00049250       ??$forward@AEAPEAU?$_Tree_node@U?$pair@$$CBHH@std@@PEAX@std@@@std@@YAAEAPEAU?$_Tree_node@U?$pair@$$CBHH@std@@PEAX@0@AEAPEAU10@@Z 000000018004a250 f i IocpServerImpl.obj
 0001:00049260       ??$forward@AEAPEAU?$_Tree_node@U?$pair@$$CBHUDELAYINFO@@@std@@PEAX@std@@@std@@YAAEAPEAU?$_Tree_node@U?$pair@$$CBHUDELAYINFO@@@std@@PEAX@0@AEAPEAU10@@Z 000000018004a260 f i IocpServerImpl.obj
 0001:00049270       ??$forward@AEAU?$pair@$$CBHUDELAYINFO@@@std@@@std@@YAAEAU?$pair@$$CBHUDELAYINFO@@@0@AEAU10@@Z 000000018004a270 f i IocpServerImpl.obj
 0001:00049280       ??$forward@AEAUDELAYINFO@@@std@@YAAEAUDELAYINFO@@AEAU1@@Z 000000018004a280 f i IocpServerImpl.obj
 0001:00049290       ??$forward@AEAV?$_Tree_iterator@V?$_Tree_val@U?$_Tree_simple_types@U?$pair@$$CBHUDELAYINFO@@@std@@@std@@@std@@@std@@@std@@YAAEAV?$_Tree_iterator@V?$_Tree_val@U?$_Tree_simple_types@U?$pair@$$CBHUDELAYINFO@@@std@@@std@@@std@@@0@AEAV10@@Z 000000018004a290 f i IocpServerImpl.obj
 0001:000492a0       ??$forward@U?$pair@HUDELAYINFO@@@std@@@std@@YA$$QEAU?$pair@HUDELAYINFO@@@0@AEAU10@@Z 000000018004a2a0 f i IocpServerImpl.obj
 0001:000492b0       ??$forward@UDELAYINFO@@@std@@YA$$QEAUDELAYINFO@@AEAU1@@Z 000000018004a2b0 f i IocpServerImpl.obj
 0001:000492c0       ??$forward@V?$_Tree_iterator@V?$_Tree_val@U?$_Tree_simple_types@U?$pair@$$CBHUDELAYINFO@@@std@@@std@@@std@@@std@@@std@@YA$$QEAV?$_Tree_iterator@V?$_Tree_val@U?$_Tree_simple_types@U?$pair@$$CBHUDELAYINFO@@@std@@@std@@@std@@@0@AEAV10@@Z 000000018004a2c0 f i IocpServerImpl.obj
 0001:000492d0       ??$insert@U?$pair@HUDELAYINFO@@@std@@@?$_Tree@V?$_Tmap_traits@HUDELAYINFO@@U?$less@H@std@@V?$allocator@U?$pair@$$CBHUDELAYINFO@@@std@@@3@$00@std@@@std@@QEAA?AU?$pair@V?$_Tree_iterator@V?$_Tree_val@U?$_Tree_simple_types@U?$pair@$$CBHUDELAYINFO@@@std@@@std@@@std@@@std@@_N@1@$$QEAU?$pair@HUDELAYINFO@@@1@@Z 000000018004a2d0 f i IocpServerImpl.obj
 0001:00049380       ??$insert@U?$pair@HUDELAYINFO@@@std@@@?$_Tree@V?$_Tmap_traits@HUDELAYINFO@@U?$less@H@std@@V?$allocator@U?$pair@$$CBHUDELAYINFO@@@std@@@3@$0A@@std@@@std@@QEAA?AU?$pair@V?$_Tree_iterator@V?$_Tree_val@U?$_Tree_simple_types@U?$pair@$$CBHUDELAYINFO@@@std@@@std@@@std@@@std@@_N@1@$$QEAU?$pair@HUDELAYINFO@@@1@@Z 000000018004a380 f i IocpServerImpl.obj
 0001:00049430       ??$insert@U?$pair@HUDELAYINFO@@@std@@@?$multimap@HUDELAYINFO@@U?$less@H@std@@V?$allocator@U?$pair@$$CBHUDELAYINFO@@@std@@@3@@std@@QEAA?AV?$_Tree_iterator@V?$_Tree_val@U?$_Tree_simple_types@U?$pair@$$CBHUDELAYINFO@@@std@@@std@@@std@@@1@$$QEAU?$pair@HUDELAYINFO@@@1@@Z 000000018004a430 f i IocpServerImpl.obj
 0001:000494f0       ??$make_pair@AEAHAEAUDELAYINFO@@@std@@YA?AU?$pair@HUDELAYINFO@@@0@AEAHAEAUDELAYINFO@@@Z 000000018004a4f0 f i IocpServerImpl.obj
 0001:00049570       ??$make_pair@HAEAUDELAYINFO@@@std@@YA?AU?$pair@HUDELAYINFO@@@0@$$QEAHAEAUDELAYINFO@@@Z 000000018004a570 f i IocpServerImpl.obj
 0001:000495f0       ??0?$_Iterator012@Ubidirectional_iterator_tag@std@@U?$pair@$$CBHH@2@_JPEBU32@AEBU32@U_Iterator_base12@2@@std@@QEAA@AEBU01@@Z 000000018004a5f0 f i IocpServerImpl.obj
 0001:00049640       ??0?$_Iterator012@Ubidirectional_iterator_tag@std@@U?$pair@$$CBHH@2@_JPEBU32@AEBU32@U_Iterator_base12@2@@std@@QEAA@XZ 000000018004a640 f i IocpServerImpl.obj
 0001:00049680       ??0?$_Iterator012@Ubidirectional_iterator_tag@std@@U?$pair@$$CBHUDELAYINFO@@@2@_JPEBU32@AEBU32@U_Iterator_base12@2@@std@@QEAA@AEBU01@@Z 000000018004a680 f i IocpServerImpl.obj
 0001:000496d0       ??0?$_Iterator012@Ubidirectional_iterator_tag@std@@U?$pair@$$CBHUDELAYINFO@@@2@_JPEBU32@AEBU32@U_Iterator_base12@2@@std@@QEAA@XZ 000000018004a6d0 f i IocpServerImpl.obj
 0001:00049710       ??0?$_Tree@V?$_Tmap_traits@HHU?$less@H@std@@V?$allocator@U?$pair@$$CBHH@std@@@2@$0A@@std@@@std@@QEAA@AEBU?$less@H@1@AEBV?$allocator@U?$pair@$$CBHH@std@@@1@@Z 000000018004a710 f i IocpServerImpl.obj
 0001:00049770       ??0?$_Tree@V?$_Tmap_traits@HUDELAYINFO@@U?$less@H@std@@V?$allocator@U?$pair@$$CBHUDELAYINFO@@@std@@@3@$00@std@@@std@@QEAA@AEBU?$less@H@1@AEBV?$allocator@U?$pair@$$CBHUDELAYINFO@@@std@@@1@@Z 000000018004a770 f i IocpServerImpl.obj
 0001:000497d0       ??0?$_Tree@V?$_Tmap_traits@HUDELAYINFO@@U?$less@H@std@@V?$allocator@U?$pair@$$CBHUDELAYINFO@@@std@@@3@$0A@@std@@@std@@QEAA@AEBU?$less@H@1@AEBV?$allocator@U?$pair@$$CBHUDELAYINFO@@@std@@@1@@Z 000000018004a7d0 f i IocpServerImpl.obj
 0001:00049830       ??0?$_Tree_alloc@$0A@U?$_Tree_base_types@U?$pair@$$CBHH@std@@V?$allocator@U?$pair@$$CBHH@std@@@2@@std@@@std@@QEAA@AEBV?$allocator@U?$pair@$$CBHH@std@@@1@@Z 000000018004a830 f i IocpServerImpl.obj
 0001:000498b0       ??0?$_Tree_alloc@$0A@U?$_Tree_base_types@U?$pair@$$CBHUDELAYINFO@@@std@@V?$allocator@U?$pair@$$CBHUDELAYINFO@@@std@@@2@@std@@@std@@QEAA@AEBV?$allocator@U?$pair@$$CBHUDELAYINFO@@@std@@@1@@Z 000000018004a8b0 f i IocpServerImpl.obj
 0001:00049930       ??0?$_Tree_buy@U?$pair@$$CBHH@std@@V?$allocator@U?$pair@$$CBHH@std@@@2@@std@@QEAA@AEBV?$allocator@U?$pair@$$CBHH@std@@@1@@Z 000000018004a930 f i IocpServerImpl.obj
 0001:00049980       ??0?$_Tree_buy@U?$pair@$$CBHUDELAYINFO@@@std@@V?$allocator@U?$pair@$$CBHUDELAYINFO@@@std@@@2@@std@@QEAA@AEBV?$allocator@U?$pair@$$CBHUDELAYINFO@@@std@@@1@@Z 000000018004a980 f i IocpServerImpl.obj
 0001:000499d0       ??0?$_Tree_comp@$0A@V?$_Tmap_traits@HHU?$less@H@std@@V?$allocator@U?$pair@$$CBHH@std@@@2@$0A@@std@@@std@@QEAA@AEBU?$less@H@1@AEBV?$allocator@U?$pair@$$CBHH@std@@@1@@Z 000000018004a9d0 f i IocpServerImpl.obj
 0001:00049a30       ??0?$_Tree_comp@$0A@V?$_Tmap_traits@HUDELAYINFO@@U?$less@H@std@@V?$allocator@U?$pair@$$CBHUDELAYINFO@@@std@@@3@$00@std@@@std@@QEAA@AEBU?$less@H@1@AEBV?$allocator@U?$pair@$$CBHUDELAYINFO@@@std@@@1@@Z 000000018004aa30 f i IocpServerImpl.obj
 0001:00049a90       ??0?$_Tree_comp@$0A@V?$_Tmap_traits@HUDELAYINFO@@U?$less@H@std@@V?$allocator@U?$pair@$$CBHUDELAYINFO@@@std@@@3@$0A@@std@@@std@@QEAA@AEBU?$less@H@1@AEBV?$allocator@U?$pair@$$CBHUDELAYINFO@@@std@@@1@@Z 000000018004aa90 f i IocpServerImpl.obj
 0001:00049af0       ??0?$_Tree_const_iterator@V?$_Tree_val@U?$_Tree_simple_types@U?$pair@$$CBHH@std@@@std@@@std@@@std@@QEAA@AEBV01@@Z 000000018004aaf0 f i IocpServerImpl.obj
 0001:00049b40       ??0?$_Tree_const_iterator@V?$_Tree_val@U?$_Tree_simple_types@U?$pair@$$CBHH@std@@@std@@@std@@@std@@QEAA@PEAU?$_Tree_node@U?$pair@$$CBHH@std@@PEAX@1@PEBV?$_Tree_val@U?$_Tree_simple_types@U?$pair@$$CBHH@std@@@std@@@1@@Z 000000018004ab40 f i IocpServerImpl.obj
 0001:00049ba0       ??0?$_Tree_const_iterator@V?$_Tree_val@U?$_Tree_simple_types@U?$pair@$$CBHUDELAYINFO@@@std@@@std@@@std@@@std@@QEAA@AEBV01@@Z 000000018004aba0 f i IocpServerImpl.obj
 0001:00049bf0       ??0?$_Tree_const_iterator@V?$_Tree_val@U?$_Tree_simple_types@U?$pair@$$CBHUDELAYINFO@@@std@@@std@@@std@@@std@@QEAA@PEAU?$_Tree_node@U?$pair@$$CBHUDELAYINFO@@@std@@PEAX@1@PEBV?$_Tree_val@U?$_Tree_simple_types@U?$pair@$$CBHUDELAYINFO@@@std@@@std@@@1@@Z 000000018004abf0 f i IocpServerImpl.obj
 0001:00049c50       ??0?$_Tree_iterator@V?$_Tree_val@U?$_Tree_simple_types@U?$pair@$$CBHH@std@@@std@@@std@@@std@@QEAA@PEAU?$_Tree_node@U?$pair@$$CBHH@std@@PEAX@1@PEBV?$_Tree_val@U?$_Tree_simple_types@U?$pair@$$CBHH@std@@@std@@@1@@Z 000000018004ac50 f i IocpServerImpl.obj
 0001:00049cb0       ??0?$_Tree_iterator@V?$_Tree_val@U?$_Tree_simple_types@U?$pair@$$CBHUDELAYINFO@@@std@@@std@@@std@@@std@@QEAA@AEBV01@@Z 000000018004acb0 f i IocpServerImpl.obj
 0001:00049d00       ??0?$_Tree_iterator@V?$_Tree_val@U?$_Tree_simple_types@U?$pair@$$CBHUDELAYINFO@@@std@@@std@@@std@@@std@@QEAA@PEAU?$_Tree_node@U?$pair@$$CBHUDELAYINFO@@@std@@PEAX@1@PEBV?$_Tree_val@U?$_Tree_simple_types@U?$pair@$$CBHUDELAYINFO@@@std@@@std@@@1@@Z 000000018004ad00 f i IocpServerImpl.obj
 0001:00049d60       ??0?$_Tree_unchecked_const_iterator@V?$_Tree_val@U?$_Tree_simple_types@U?$pair@$$CBHH@std@@@std@@@std@@U_Iterator_base12@2@@std@@QEAA@AEBV01@@Z 000000018004ad60 f i IocpServerImpl.obj
 0001:00049dd0       ??0?$_Tree_unchecked_const_iterator@V?$_Tree_val@U?$_Tree_simple_types@U?$pair@$$CBHH@std@@@std@@@std@@U_Iterator_base12@2@@std@@QEAA@PEAU?$_Tree_node@U?$pair@$$CBHH@std@@PEAX@1@PEBV?$_Tree_val@U?$_Tree_simple_types@U?$pair@$$CBHH@std@@@std@@@1@@Z 000000018004add0 f i IocpServerImpl.obj
 0001:00049e50       ??0?$_Tree_unchecked_const_iterator@V?$_Tree_val@U?$_Tree_simple_types@U?$pair@$$CBHUDELAYINFO@@@std@@@std@@@std@@U_Iterator_base12@2@@std@@QEAA@AEBV01@@Z 000000018004ae50 f i IocpServerImpl.obj
 0001:00049ec0       ??0?$_Tree_unchecked_const_iterator@V?$_Tree_val@U?$_Tree_simple_types@U?$pair@$$CBHUDELAYINFO@@@std@@@std@@@std@@U_Iterator_base12@2@@std@@QEAA@PEAU?$_Tree_node@U?$pair@$$CBHUDELAYINFO@@@std@@PEAX@1@PEBV?$_Tree_val@U?$_Tree_simple_types@U?$pair@$$CBHUDELAYINFO@@@std@@@std@@@1@@Z 000000018004aec0 f i IocpServerImpl.obj
 0001:00049f40       ??0?$_Tree_val@U?$_Tree_simple_types@U?$pair@$$CBHH@std@@@std@@@std@@QEAA@XZ 000000018004af40 f i IocpServerImpl.obj
 0001:00049fb0       ??0?$_Tree_val@U?$_Tree_simple_types@U?$pair@$$CBHUDELAYINFO@@@std@@@std@@@std@@QEAA@XZ 000000018004afb0 f i IocpServerImpl.obj
 0001:0004a020       ??0?$_Wrap_alloc@V?$allocator@U?$_Tree_node@U?$pair@$$CBHH@std@@PEAX@std@@@std@@@std@@QEAA@XZ 000000018004b020 f i IocpServerImpl.obj
 0001:0004a060       ??0?$_Wrap_alloc@V?$allocator@U?$_Tree_node@U?$pair@$$CBHUDELAYINFO@@@std@@PEAX@std@@@std@@@std@@QEAA@XZ 000000018004b060 f i IocpServerImpl.obj
 0001:0004a0a0       ??0?$allocator@U?$_Tree_node@U?$pair@$$CBHH@std@@PEAX@std@@@std@@QEAA@XZ 000000018004b0a0 f i IocpServerImpl.obj
 0001:0004a0b0       ??0?$allocator@U?$_Tree_node@U?$pair@$$CBHUDELAYINFO@@@std@@PEAX@std@@@std@@QEAA@XZ 000000018004b0b0 f i IocpServerImpl.obj
 0001:0004a0c0       ??0?$allocator@U?$pair@$$CBHH@std@@@std@@QEAA@XZ 000000018004b0c0 f i IocpServerImpl.obj
 0001:0004a0d0       ??0?$allocator@U?$pair@$$CBHUDELAYINFO@@@std@@@std@@QEAA@XZ 000000018004b0d0 f i IocpServerImpl.obj
 0001:0004a0e0       ??0?$map@HHU?$less@H@std@@V?$allocator@U?$pair@$$CBHH@std@@@2@@std@@QEAA@XZ 000000018004b0e0 f i IocpServerImpl.obj
 0001:0004a140       ??0?$map@HUDELAYINFO@@U?$less@H@std@@V?$allocator@U?$pair@$$CBHUDELAYINFO@@@std@@@3@@std@@QEAA@XZ 000000018004b140 f i IocpServerImpl.obj
 0001:0004a1a0       ??0?$multimap@HUDELAYINFO@@U?$less@H@std@@V?$allocator@U?$pair@$$CBHUDELAYINFO@@@std@@@3@@std@@QEAA@XZ 000000018004b1a0 f i IocpServerImpl.obj
 0001:0004a200       ??1?$_Iterator012@Ubidirectional_iterator_tag@std@@U?$pair@$$CBHH@2@_JPEBU32@AEBU32@U_Iterator_base12@2@@std@@QEAA@XZ 000000018004b200 f i IocpServerImpl.obj
 0001:0004a240       ??1?$_Iterator012@Ubidirectional_iterator_tag@std@@U?$pair@$$CBHUDELAYINFO@@@2@_JPEBU32@AEBU32@U_Iterator_base12@2@@std@@QEAA@XZ 000000018004b240 f i IocpServerImpl.obj
 0001:0004a280       ??1?$_Tree@V?$_Tmap_traits@HHU?$less@H@std@@V?$allocator@U?$pair@$$CBHH@std@@@2@$0A@@std@@@std@@QEAA@XZ 000000018004b280 f i IocpServerImpl.obj
 0001:0004a2d0       ??1?$_Tree@V?$_Tmap_traits@HUDELAYINFO@@U?$less@H@std@@V?$allocator@U?$pair@$$CBHUDELAYINFO@@@std@@@3@$00@std@@@std@@QEAA@XZ 000000018004b2d0 f i IocpServerImpl.obj
 0001:0004a320       ??1?$_Tree@V?$_Tmap_traits@HUDELAYINFO@@U?$less@H@std@@V?$allocator@U?$pair@$$CBHUDELAYINFO@@@std@@@3@$0A@@std@@@std@@QEAA@XZ 000000018004b320 f i IocpServerImpl.obj
 0001:0004a370       ??1?$_Tree_alloc@$0A@U?$_Tree_base_types@U?$pair@$$CBHH@std@@V?$allocator@U?$pair@$$CBHH@std@@@2@@std@@@std@@QEAA@XZ 000000018004b370 f i IocpServerImpl.obj
 0001:0004a3d0       ??1?$_Tree_alloc@$0A@U?$_Tree_base_types@U?$pair@$$CBHUDELAYINFO@@@std@@V?$allocator@U?$pair@$$CBHUDELAYINFO@@@std@@@2@@std@@@std@@QEAA@XZ 000000018004b3d0 f i IocpServerImpl.obj
 0001:0004a430       ??1?$_Tree_buy@U?$pair@$$CBHH@std@@V?$allocator@U?$pair@$$CBHH@std@@@2@@std@@QEAA@XZ 000000018004b430 f i IocpServerImpl.obj
 0001:0004a470       ??1?$_Tree_buy@U?$pair@$$CBHUDELAYINFO@@@std@@V?$allocator@U?$pair@$$CBHUDELAYINFO@@@std@@@2@@std@@QEAA@XZ 000000018004b470 f i IocpServerImpl.obj
 0001:0004a4b0       ??1?$_Tree_comp@$0A@V?$_Tmap_traits@HHU?$less@H@std@@V?$allocator@U?$pair@$$CBHH@std@@@2@$0A@@std@@@std@@QEAA@XZ 000000018004b4b0 f i IocpServerImpl.obj
 0001:0004a4f0       ??1?$_Tree_comp@$0A@V?$_Tmap_traits@HUDELAYINFO@@U?$less@H@std@@V?$allocator@U?$pair@$$CBHUDELAYINFO@@@std@@@3@$00@std@@@std@@QEAA@XZ 000000018004b4f0 f i IocpServerImpl.obj
 0001:0004a530       ??1?$_Tree_comp@$0A@V?$_Tmap_traits@HUDELAYINFO@@U?$less@H@std@@V?$allocator@U?$pair@$$CBHUDELAYINFO@@@std@@@3@$0A@@std@@@std@@QEAA@XZ 000000018004b530 f i IocpServerImpl.obj
 0001:0004a570       ??1?$_Tree_const_iterator@V?$_Tree_val@U?$_Tree_simple_types@U?$pair@$$CBHH@std@@@std@@@std@@@std@@QEAA@XZ 000000018004b570 f i IocpServerImpl.obj
 0001:0004a5b0       ??1?$_Tree_const_iterator@V?$_Tree_val@U?$_Tree_simple_types@U?$pair@$$CBHUDELAYINFO@@@std@@@std@@@std@@@std@@QEAA@XZ 000000018004b5b0 f i IocpServerImpl.obj
 0001:0004a5f0       ??1?$_Tree_iterator@V?$_Tree_val@U?$_Tree_simple_types@U?$pair@$$CBHH@std@@@std@@@std@@@std@@QEAA@XZ 000000018004b5f0 f i IocpServerImpl.obj
 0001:0004a630       ??1?$_Tree_iterator@V?$_Tree_val@U?$_Tree_simple_types@U?$pair@$$CBHUDELAYINFO@@@std@@@std@@@std@@@std@@QEAA@XZ 000000018004b630 f i IocpServerImpl.obj
 0001:0004a670       ??1?$_Tree_unchecked_const_iterator@V?$_Tree_val@U?$_Tree_simple_types@U?$pair@$$CBHH@std@@@std@@@std@@U_Iterator_base12@2@@std@@QEAA@XZ 000000018004b670 f i IocpServerImpl.obj
 0001:0004a6b0       ??1?$_Tree_unchecked_const_iterator@V?$_Tree_val@U?$_Tree_simple_types@U?$pair@$$CBHUDELAYINFO@@@std@@@std@@@std@@U_Iterator_base12@2@@std@@QEAA@XZ 000000018004b6b0 f i IocpServerImpl.obj
 0001:0004a6f0       ??1?$_Tree_val@U?$_Tree_simple_types@U?$pair@$$CBHH@std@@@std@@@std@@QEAA@XZ 000000018004b6f0 f i IocpServerImpl.obj
 0001:0004a730       ??1?$_Tree_val@U?$_Tree_simple_types@U?$pair@$$CBHUDELAYINFO@@@std@@@std@@@std@@QEAA@XZ 000000018004b730 f i IocpServerImpl.obj
 0001:0004a770       ??1?$map@HHU?$less@H@std@@V?$allocator@U?$pair@$$CBHH@std@@@2@@std@@QEAA@XZ 000000018004b770 f i IocpServerImpl.obj
 0001:0004a7b0       ??1?$map@HUDELAYINFO@@U?$less@H@std@@V?$allocator@U?$pair@$$CBHUDELAYINFO@@@std@@@3@@std@@QEAA@XZ 000000018004b7b0 f i IocpServerImpl.obj
 0001:0004a7f0       ??1?$multimap@HUDELAYINFO@@U?$less@H@std@@V?$allocator@U?$pair@$$CBHUDELAYINFO@@@std@@@3@@std@@QEAA@XZ 000000018004b7f0 f i IocpServerImpl.obj
 0001:0004a830       ??1?$pair@V?$_Tree_iterator@V?$_Tree_val@U?$_Tree_simple_types@U?$pair@$$CBHUDELAYINFO@@@std@@@std@@@std@@@std@@_N@std@@QEAA@XZ 000000018004b830 f i IocpServerImpl.obj
 0001:0004a870       ??8?$_Tree_const_iterator@V?$_Tree_val@U?$_Tree_simple_types@U?$pair@$$CBHH@std@@@std@@@std@@@std@@QEBA_NAEBV01@@Z 000000018004b870 f i IocpServerImpl.obj
 0001:0004a9e0       ??8?$_Tree_const_iterator@V?$_Tree_val@U?$_Tree_simple_types@U?$pair@$$CBHUDELAYINFO@@@std@@@std@@@std@@@std@@QEBA_NAEBV01@@Z 000000018004b9e0 f i IocpServerImpl.obj
 0001:0004ab50       ??9?$_Tree_const_iterator@V?$_Tree_val@U?$_Tree_simple_types@U?$pair@$$CBHH@std@@@std@@@std@@@std@@QEBA_NAEBV01@@Z 000000018004bb50 f i IocpServerImpl.obj
 0001:0004abc0       ??9?$_Tree_const_iterator@V?$_Tree_val@U?$_Tree_simple_types@U?$pair@$$CBHUDELAYINFO@@@std@@@std@@@std@@@std@@QEBA_NAEBV01@@Z 000000018004bbc0 f i IocpServerImpl.obj
 0001:0004ac30       ??C?$_Tree_iterator@V?$_Tree_val@U?$_Tree_simple_types@U?$pair@$$CBHUDELAYINFO@@@std@@@std@@@std@@@std@@QEBAPEAU?$pair@$$CBHUDELAYINFO@@@1@XZ 000000018004bc30 f i IocpServerImpl.obj
 0001:0004ac80       ??D?$_Tree_const_iterator@V?$_Tree_val@U?$_Tree_simple_types@U?$pair@$$CBHUDELAYINFO@@@std@@@std@@@std@@@std@@QEBAAEBU?$pair@$$CBHUDELAYINFO@@@1@XZ 000000018004bc80 f i IocpServerImpl.obj
 0001:0004adc0       ??D?$_Tree_iterator@V?$_Tree_val@U?$_Tree_simple_types@U?$pair@$$CBHUDELAYINFO@@@std@@@std@@@std@@@std@@QEBAAEAU?$pair@$$CBHUDELAYINFO@@@1@XZ 000000018004bdc0 f i IocpServerImpl.obj
 0001:0004ae00       ??E?$_Tree_const_iterator@V?$_Tree_val@U?$_Tree_simple_types@U?$pair@$$CBHH@std@@@std@@@std@@@std@@QEAA?AV01@H@Z 000000018004be00 f i IocpServerImpl.obj
 0001:0004aec0       ??E?$_Tree_const_iterator@V?$_Tree_val@U?$_Tree_simple_types@U?$pair@$$CBHH@std@@@std@@@std@@@std@@QEAAAEAV01@XZ 000000018004bec0 f i IocpServerImpl.obj
 0001:0004b000       ??E?$_Tree_const_iterator@V?$_Tree_val@U?$_Tree_simple_types@U?$pair@$$CBHUDELAYINFO@@@std@@@std@@@std@@@std@@QEAA?AV01@H@Z 000000018004c000 f i IocpServerImpl.obj
 0001:0004b0c0       ??E?$_Tree_const_iterator@V?$_Tree_val@U?$_Tree_simple_types@U?$pair@$$CBHUDELAYINFO@@@std@@@std@@@std@@@std@@QEAAAEAV01@XZ 000000018004c0c0 f i IocpServerImpl.obj
 0001:0004b200       ??E?$_Tree_unchecked_const_iterator@V?$_Tree_val@U?$_Tree_simple_types@U?$pair@$$CBHH@std@@@std@@@std@@U_Iterator_base12@2@@std@@QEAAAEAV01@XZ 000000018004c200 f i IocpServerImpl.obj
 0001:0004b320       ??E?$_Tree_unchecked_const_iterator@V?$_Tree_val@U?$_Tree_simple_types@U?$pair@$$CBHUDELAYINFO@@@std@@@std@@@std@@U_Iterator_base12@2@@std@@QEAAAEAV01@XZ 000000018004c320 f i IocpServerImpl.obj
 0001:0004b440       ??F?$_Tree_const_iterator@V?$_Tree_val@U?$_Tree_simple_types@U?$pair@$$CBHUDELAYINFO@@@std@@@std@@@std@@@std@@QEAAAEAV01@XZ 000000018004c440 f i IocpServerImpl.obj
 0001:0004b640       ??F?$_Tree_iterator@V?$_Tree_val@U?$_Tree_simple_types@U?$pair@$$CBHUDELAYINFO@@@std@@@std@@@std@@@std@@QEAAAEAV01@XZ 000000018004c640 f i IocpServerImpl.obj
 0001:0004b680       ??F?$_Tree_unchecked_const_iterator@V?$_Tree_val@U?$_Tree_simple_types@U?$pair@$$CBHUDELAYINFO@@@std@@@std@@@std@@U_Iterator_base12@2@@std@@QEAAAEAV01@XZ 000000018004c680 f i IocpServerImpl.obj
 0001:0004b7e0       ??_GCIocpServerImpl@@UEAAPEAXI@Z 000000018004c7e0 f i IocpServerImpl.obj
 0001:0004b7e0       ??_ECIocpServerImpl@@UEAAPEAXI@Z 000000018004c7e0 f i IocpServerImpl.obj
 0001:0004b840       ?_Alloc_proxy@?$_Tree_alloc@$0A@U?$_Tree_base_types@U?$pair@$$CBHH@std@@V?$allocator@U?$pair@$$CBHH@std@@@2@@std@@@std@@QEAAXXZ 000000018004c840 f i IocpServerImpl.obj
 0001:0004b900       ?_Alloc_proxy@?$_Tree_alloc@$0A@U?$_Tree_base_types@U?$pair@$$CBHUDELAYINFO@@@std@@V?$allocator@U?$pair@$$CBHUDELAYINFO@@@std@@@2@@std@@@std@@QEAAXXZ 000000018004c900 f i IocpServerImpl.obj
 0001:0004b9c0       ?_Buyheadnode@?$_Tree_alloc@$0A@U?$_Tree_base_types@U?$pair@$$CBHH@std@@V?$allocator@U?$pair@$$CBHH@std@@@2@@std@@@std@@QEAAPEAU?$_Tree_node@U?$pair@$$CBHH@std@@PEAX@2@XZ 000000018004c9c0 f i IocpServerImpl.obj
 0001:0004bb70       ?_Buyheadnode@?$_Tree_alloc@$0A@U?$_Tree_base_types@U?$pair@$$CBHUDELAYINFO@@@std@@V?$allocator@U?$pair@$$CBHUDELAYINFO@@@std@@@2@@std@@@std@@QEAAPEAU?$_Tree_node@U?$pair@$$CBHUDELAYINFO@@@std@@PEAX@2@XZ 000000018004cb70 f i IocpServerImpl.obj
 0001:0004bd20       ?_Buynode0@?$_Tree_buy@U?$pair@$$CBHUDELAYINFO@@@std@@V?$allocator@U?$pair@$$CBHUDELAYINFO@@@std@@@2@@std@@QEAAPEAU?$_Tree_node@U?$pair@$$CBHUDELAYINFO@@@std@@PEAX@2@XZ 000000018004cd20 f i IocpServerImpl.obj
 0001:0004bee0       ?_Color@?$_Tree_val@U?$_Tree_simple_types@U?$pair@$$CBHH@std@@@std@@@std@@SAAEADPEAU?$_Tree_node@U?$pair@$$CBHH@std@@PEAX@2@@Z 000000018004cee0 f i IocpServerImpl.obj
 0001:0004bf00       ?_Color@?$_Tree_val@U?$_Tree_simple_types@U?$pair@$$CBHUDELAYINFO@@@std@@@std@@@std@@SAAEADPEAU?$_Tree_node@U?$pair@$$CBHUDELAYINFO@@@std@@PEAX@2@@Z 000000018004cf00 f i IocpServerImpl.obj
 0001:0004bf20       ?_Destroy_if_not_nil@?$_Tree@V?$_Tmap_traits@HUDELAYINFO@@U?$less@H@std@@V?$allocator@U?$pair@$$CBHUDELAYINFO@@@std@@@3@$00@std@@@std@@IEAAXPEAU?$_Tree_node@U?$pair@$$CBHUDELAYINFO@@@std@@PEAX@2@@Z 000000018004cf20 f i IocpServerImpl.obj
 0001:0004bfd0       ?_Destroy_if_not_nil@?$_Tree@V?$_Tmap_traits@HUDELAYINFO@@U?$less@H@std@@V?$allocator@U?$pair@$$CBHUDELAYINFO@@@std@@@3@$0A@@std@@@std@@IEAAXPEAU?$_Tree_node@U?$pair@$$CBHUDELAYINFO@@@std@@PEAX@2@@Z 000000018004cfd0 f i IocpServerImpl.obj
 0001:0004c080       ?_Erase@?$_Tree@V?$_Tmap_traits@HHU?$less@H@std@@V?$allocator@U?$pair@$$CBHH@std@@@2@$0A@@std@@@std@@IEAAXPEAU?$_Tree_node@U?$pair@$$CBHH@std@@PEAX@2@@Z 000000018004d080 f i IocpServerImpl.obj
 0001:0004c190       ?_Erase@?$_Tree@V?$_Tmap_traits@HUDELAYINFO@@U?$less@H@std@@V?$allocator@U?$pair@$$CBHUDELAYINFO@@@std@@@3@$00@std@@@std@@IEAAXPEAU?$_Tree_node@U?$pair@$$CBHUDELAYINFO@@@std@@PEAX@2@@Z 000000018004d190 f i IocpServerImpl.obj
 0001:0004c2a0       ?_Erase@?$_Tree@V?$_Tmap_traits@HUDELAYINFO@@U?$less@H@std@@V?$allocator@U?$pair@$$CBHUDELAYINFO@@@std@@@3@$0A@@std@@@std@@IEAAXPEAU?$_Tree_node@U?$pair@$$CBHUDELAYINFO@@@std@@PEAX@2@@Z 000000018004d2a0 f i IocpServerImpl.obj
 0001:0004c3b0       ?_Free_proxy@?$_Tree_alloc@$0A@U?$_Tree_base_types@U?$pair@$$CBHH@std@@V?$allocator@U?$pair@$$CBHH@std@@@2@@std@@@std@@QEAAXXZ 000000018004d3b0 f i IocpServerImpl.obj
 0001:0004c470       ?_Free_proxy@?$_Tree_alloc@$0A@U?$_Tree_base_types@U?$pair@$$CBHUDELAYINFO@@@std@@V?$allocator@U?$pair@$$CBHUDELAYINFO@@@std@@@2@@std@@@std@@QEAAXXZ 000000018004d470 f i IocpServerImpl.obj
 0001:0004c530       ?_Freeheadnode@?$_Tree_alloc@$0A@U?$_Tree_base_types@U?$pair@$$CBHH@std@@V?$allocator@U?$pair@$$CBHH@std@@@2@@std@@@std@@QEAAXPEAU?$_Tree_node@U?$pair@$$CBHH@std@@PEAX@2@@Z 000000018004d530 f i IocpServerImpl.obj
 0001:0004c660       ?_Freeheadnode@?$_Tree_alloc@$0A@U?$_Tree_base_types@U?$pair@$$CBHUDELAYINFO@@@std@@V?$allocator@U?$pair@$$CBHUDELAYINFO@@@std@@@2@@std@@@std@@QEAAXPEAU?$_Tree_node@U?$pair@$$CBHUDELAYINFO@@@std@@PEAX@2@@Z 000000018004d660 f i IocpServerImpl.obj
 0001:0004c790       ?_Freenode0@?$_Tree_buy@U?$pair@$$CBHUDELAYINFO@@@std@@V?$allocator@U?$pair@$$CBHUDELAYINFO@@@std@@@2@@std@@QEAAXPEAU?$_Tree_node@U?$pair@$$CBHUDELAYINFO@@@std@@PEAX@2@@Z 000000018004d790 f i IocpServerImpl.obj
 0001:0004c8c0       ?_Getal@?$_Tree_alloc@$0A@U?$_Tree_base_types@U?$pair@$$CBHH@std@@V?$allocator@U?$pair@$$CBHH@std@@@2@@std@@@std@@QEBA?AU?$_Wrap_alloc@V?$allocator@U?$_Tree_node@U?$pair@$$CBHH@std@@PEAX@std@@@std@@@2@XZ 000000018004d8c0 f i IocpServerImpl.obj
 0001:0004c910       ?_Getal@?$_Tree_alloc@$0A@U?$_Tree_base_types@U?$pair@$$CBHUDELAYINFO@@@std@@V?$allocator@U?$pair@$$CBHUDELAYINFO@@@std@@@2@@std@@@std@@QEBA?AU?$_Wrap_alloc@V?$allocator@U?$_Tree_node@U?$pair@$$CBHUDELAYINFO@@@std@@PEAX@std@@@std@@@2@XZ 000000018004d910 f i IocpServerImpl.obj
 0001:0004c960       ?_Getcomp@?$_Tree_comp@$0A@V?$_Tmap_traits@HUDELAYINFO@@U?$less@H@std@@V?$allocator@U?$pair@$$CBHUDELAYINFO@@@std@@@3@$00@std@@@std@@QEBA?AU?$less@H@2@XZ 000000018004d960 f i IocpServerImpl.obj
 0001:0004c9a0       ?_Getcomp@?$_Tree_comp@$0A@V?$_Tmap_traits@HUDELAYINFO@@U?$less@H@std@@V?$allocator@U?$pair@$$CBHUDELAYINFO@@@std@@@3@$0A@@std@@@std@@QEBA?AU?$less@H@2@XZ 000000018004d9a0 f i IocpServerImpl.obj
 0001:0004c9e0       ?_Isnil@?$_Tree_val@U?$_Tree_simple_types@U?$pair@$$CBHH@std@@@std@@@std@@SAAEADPEAU?$_Tree_node@U?$pair@$$CBHH@std@@PEAX@2@@Z 000000018004d9e0 f i IocpServerImpl.obj
 0001:0004ca00       ?_Isnil@?$_Tree_val@U?$_Tree_simple_types@U?$pair@$$CBHUDELAYINFO@@@std@@@std@@@std@@SAAEADPEAU?$_Tree_node@U?$pair@$$CBHUDELAYINFO@@@std@@PEAX@2@@Z 000000018004da00 f i IocpServerImpl.obj
 0001:0004ca20       ?_Key@?$_Tree@V?$_Tmap_traits@HUDELAYINFO@@U?$less@H@std@@V?$allocator@U?$pair@$$CBHUDELAYINFO@@@std@@@3@$00@std@@@std@@IEBAAEBHPEAU?$_Tree_node@U?$pair@$$CBHUDELAYINFO@@@std@@PEAX@2@@Z 000000018004da20 f i IocpServerImpl.obj
 0001:0004ca70       ?_Key@?$_Tree@V?$_Tmap_traits@HUDELAYINFO@@U?$less@H@std@@V?$allocator@U?$pair@$$CBHUDELAYINFO@@@std@@@3@$0A@@std@@@std@@IEBAAEBHPEAU?$_Tree_node@U?$pair@$$CBHUDELAYINFO@@@std@@PEAX@2@@Z 000000018004da70 f i IocpServerImpl.obj
 0001:0004cac0       ?_Kfn@?$_Tree@V?$_Tmap_traits@HUDELAYINFO@@U?$less@H@std@@V?$allocator@U?$pair@$$CBHUDELAYINFO@@@std@@@3@$00@std@@@std@@IEBAAEBHAEBU?$pair@$$CBHUDELAYINFO@@@2@@Z 000000018004dac0 f i IocpServerImpl.obj
 0001:0004cb00       ?_Kfn@?$_Tree@V?$_Tmap_traits@HUDELAYINFO@@U?$less@H@std@@V?$allocator@U?$pair@$$CBHUDELAYINFO@@@std@@@3@$0A@@std@@@std@@IEBAAEBHAEBU?$pair@$$CBHUDELAYINFO@@@2@@Z 000000018004db00 f i IocpServerImpl.obj
 0001:0004cb40       ?_Lbound@?$_Tree@V?$_Tmap_traits@HUDELAYINFO@@U?$less@H@std@@V?$allocator@U?$pair@$$CBHUDELAYINFO@@@std@@@3@$0A@@std@@@std@@IEAAPEAU?$_Tree_node@U?$pair@$$CBHUDELAYINFO@@@std@@PEAX@2@AEBH@Z 000000018004db40 f i IocpServerImpl.obj
 0001:0004cc60       ?_Lbound@?$_Tree@V?$_Tmap_traits@V?$basic_string@DU?$char_traits@D@std@@V?$allocator@D@2@@std@@HU?$less@V?$basic_string@DU?$char_traits@D@std@@V?$allocator@D@2@@std@@@2@V?$allocator@U?$pair@$$CBV?$basic_string@DU?$char_traits@D@std@@V?$allocator@D@2@@std@@H@std@@@2@$0A@@std@@@std@@IEAAPEAU?$_Tree_node@U?$pair@$$CBV?$basic_string@DU?$char_traits@D@std@@V?$allocator@D@2@@std@@H@std@@PEAX@2@AEBV?$basic_string@DU?$char_traits@D@std@@V?$allocator@D@2@@2@@Z 000000018004dc60 f i IocpServerImpl.obj
 0001:0004cd80       ?_Left@?$_Tree_val@U?$_Tree_simple_types@U?$pair@$$CBHH@std@@@std@@@std@@SAAEAPEAU?$_Tree_node@U?$pair@$$CBHH@std@@PEAX@2@PEAU32@@Z 000000018004dd80 f i IocpServerImpl.obj
 0001:0004cd90       ?_Left@?$_Tree_val@U?$_Tree_simple_types@U?$pair@$$CBHUDELAYINFO@@@std@@@std@@@std@@SAAEAPEAU?$_Tree_node@U?$pair@$$CBHUDELAYINFO@@@std@@PEAX@2@PEAU32@@Z 000000018004dd90 f i IocpServerImpl.obj
 0001:0004cda0       ?_Lmost@?$_Tree@V?$_Tmap_traits@HHU?$less@H@std@@V?$allocator@U?$pair@$$CBHH@std@@@2@$0A@@std@@@std@@IEBAAEAPEAU?$_Tree_node@U?$pair@$$CBHH@std@@PEAX@2@XZ 000000018004dda0 f i IocpServerImpl.obj
 0001:0004cde0       ?_Lmost@?$_Tree@V?$_Tmap_traits@HUDELAYINFO@@U?$less@H@std@@V?$allocator@U?$pair@$$CBHUDELAYINFO@@@std@@@3@$00@std@@@std@@IEBAAEAPEAU?$_Tree_node@U?$pair@$$CBHUDELAYINFO@@@std@@PEAX@2@XZ 000000018004dde0 f i IocpServerImpl.obj
 0001:0004ce20       ?_Lmost@?$_Tree@V?$_Tmap_traits@HUDELAYINFO@@U?$less@H@std@@V?$allocator@U?$pair@$$CBHUDELAYINFO@@@std@@@3@$0A@@std@@@std@@IEBAAEAPEAU?$_Tree_node@U?$pair@$$CBHUDELAYINFO@@@std@@PEAX@2@XZ 000000018004de20 f i IocpServerImpl.obj
 0001:0004ce60       ?_Lrotate@?$_Tree@V?$_Tmap_traits@HHU?$less@H@std@@V?$allocator@U?$pair@$$CBHH@std@@@2@$0A@@std@@@std@@IEAAXPEAU?$_Tree_node@U?$pair@$$CBHH@std@@PEAX@2@@Z 000000018004de60 f i IocpServerImpl.obj
 0001:0004d010       ?_Lrotate@?$_Tree@V?$_Tmap_traits@HUDELAYINFO@@U?$less@H@std@@V?$allocator@U?$pair@$$CBHUDELAYINFO@@@std@@@3@$00@std@@@std@@IEAAXPEAU?$_Tree_node@U?$pair@$$CBHUDELAYINFO@@@std@@PEAX@2@@Z 000000018004e010 f i IocpServerImpl.obj
 0001:0004d1c0       ?_Lrotate@?$_Tree@V?$_Tmap_traits@HUDELAYINFO@@U?$less@H@std@@V?$allocator@U?$pair@$$CBHUDELAYINFO@@@std@@@3@$0A@@std@@@std@@IEAAXPEAU?$_Tree_node@U?$pair@$$CBHUDELAYINFO@@@std@@PEAX@2@@Z 000000018004e1c0 f i IocpServerImpl.obj
 0001:0004d370       ?_Max@?$_Tree_val@U?$_Tree_simple_types@U?$pair@$$CBHH@std@@@std@@@std@@SAPEAU?$_Tree_node@U?$pair@$$CBHH@std@@PEAX@2@PEAU32@@Z 000000018004e370 f i IocpServerImpl.obj
 0001:0004d3e0       ?_Max@?$_Tree_val@U?$_Tree_simple_types@U?$pair@$$CBHUDELAYINFO@@@std@@@std@@@std@@SAPEAU?$_Tree_node@U?$pair@$$CBHUDELAYINFO@@@std@@PEAX@2@PEAU32@@Z 000000018004e3e0 f i IocpServerImpl.obj
 0001:0004d450       ?_Min@?$_Tree_val@U?$_Tree_simple_types@U?$pair@$$CBHH@std@@@std@@@std@@SAPEAU?$_Tree_node@U?$pair@$$CBHH@std@@PEAX@2@PEAU32@@Z 000000018004e450 f i IocpServerImpl.obj
 0001:0004d4c0       ?_Min@?$_Tree_val@U?$_Tree_simple_types@U?$pair@$$CBHUDELAYINFO@@@std@@@std@@@std@@SAPEAU?$_Tree_node@U?$pair@$$CBHUDELAYINFO@@@std@@PEAX@2@PEAU32@@Z 000000018004e4c0 f i IocpServerImpl.obj
 0001:0004d530       ?_Mynode@?$_Tree_unchecked_const_iterator@V?$_Tree_val@U?$_Tree_simple_types@U?$pair@$$CBHH@std@@@std@@@std@@U_Iterator_base12@2@@std@@QEBAPEAU?$_Tree_node@U?$pair@$$CBHH@std@@PEAX@2@XZ 000000018004e530 f i IocpServerImpl.obj
 0001:0004d550       ?_Mynode@?$_Tree_unchecked_const_iterator@V?$_Tree_val@U?$_Tree_simple_types@U?$pair@$$CBHUDELAYINFO@@@std@@@std@@@std@@U_Iterator_base12@2@@std@@QEBAPEAU?$_Tree_node@U?$pair@$$CBHUDELAYINFO@@@std@@PEAX@2@XZ 000000018004e550 f i IocpServerImpl.obj
 0001:0004d570       ?_Myval@?$_Tree_val@U?$_Tree_simple_types@U?$pair@$$CBHH@std@@@std@@@std@@SAAEAU?$pair@$$CBHH@2@PEAU?$_Tree_node@U?$pair@$$CBHH@std@@PEAX@2@@Z 000000018004e570 f i IocpServerImpl.obj
 0001:0004d590       ?_Myval@?$_Tree_val@U?$_Tree_simple_types@U?$pair@$$CBHUDELAYINFO@@@std@@@std@@@std@@SAAEAU?$pair@$$CBHUDELAYINFO@@@2@PEAU?$_Tree_node@U?$pair@$$CBHUDELAYINFO@@@std@@PEAX@2@@Z 000000018004e590 f i IocpServerImpl.obj
 0001:0004d5b0       ?_Orphan_ptr@?$_Tree@V?$_Tmap_traits@HHU?$less@H@std@@V?$allocator@U?$pair@$$CBHH@std@@@2@$0A@@std@@@std@@IEBAXAEAV12@PEAU?$_Tree_node@U?$pair@$$CBHH@std@@PEAX@2@@Z 000000018004e5b0 f i IocpServerImpl.obj
 0001:0004d6e0       ?_Orphan_ptr@?$_Tree@V?$_Tmap_traits@HUDELAYINFO@@U?$less@H@std@@V?$allocator@U?$pair@$$CBHUDELAYINFO@@@std@@@3@$00@std@@@std@@IEBAXAEAV12@PEAU?$_Tree_node@U?$pair@$$CBHUDELAYINFO@@@std@@PEAX@2@@Z 000000018004e6e0 f i IocpServerImpl.obj
 0001:0004d810       ?_Orphan_ptr@?$_Tree@V?$_Tmap_traits@HUDELAYINFO@@U?$less@H@std@@V?$allocator@U?$pair@$$CBHUDELAYINFO@@@std@@@3@$0A@@std@@@std@@IEBAXAEAV12@PEAU?$_Tree_node@U?$pair@$$CBHUDELAYINFO@@@std@@PEAX@2@@Z 000000018004e810 f i IocpServerImpl.obj
 0001:0004d940       ?_Parent@?$_Tree_val@U?$_Tree_simple_types@U?$pair@$$CBHH@std@@@std@@@std@@SAAEAPEAU?$_Tree_node@U?$pair@$$CBHH@std@@PEAX@2@PEAU32@@Z 000000018004e940 f i IocpServerImpl.obj
 0001:0004d960       ?_Parent@?$_Tree_val@U?$_Tree_simple_types@U?$pair@$$CBHUDELAYINFO@@@std@@@std@@@std@@SAAEAPEAU?$_Tree_node@U?$pair@$$CBHUDELAYINFO@@@std@@PEAX@2@PEAU32@@Z 000000018004e960 f i IocpServerImpl.obj
 0001:0004d980       ?_Right@?$_Tree_val@U?$_Tree_simple_types@U?$pair@$$CBHH@std@@@std@@@std@@SAAEAPEAU?$_Tree_node@U?$pair@$$CBHH@std@@PEAX@2@PEAU32@@Z 000000018004e980 f i IocpServerImpl.obj
 0001:0004d9a0       ?_Right@?$_Tree_val@U?$_Tree_simple_types@U?$pair@$$CBHUDELAYINFO@@@std@@@std@@@std@@SAAEAPEAU?$_Tree_node@U?$pair@$$CBHUDELAYINFO@@@std@@PEAX@2@PEAU32@@Z 000000018004e9a0 f i IocpServerImpl.obj
 0001:0004d9c0       ?_Rmost@?$_Tree@V?$_Tmap_traits@HHU?$less@H@std@@V?$allocator@U?$pair@$$CBHH@std@@@2@$0A@@std@@@std@@IEBAAEAPEAU?$_Tree_node@U?$pair@$$CBHH@std@@PEAX@2@XZ 000000018004e9c0 f i IocpServerImpl.obj
 0001:0004da00       ?_Rmost@?$_Tree@V?$_Tmap_traits@HUDELAYINFO@@U?$less@H@std@@V?$allocator@U?$pair@$$CBHUDELAYINFO@@@std@@@3@$00@std@@@std@@IEBAAEAPEAU?$_Tree_node@U?$pair@$$CBHUDELAYINFO@@@std@@PEAX@2@XZ 000000018004ea00 f i IocpServerImpl.obj
 0001:0004da40       ?_Rmost@?$_Tree@V?$_Tmap_traits@HUDELAYINFO@@U?$less@H@std@@V?$allocator@U?$pair@$$CBHUDELAYINFO@@@std@@@3@$0A@@std@@@std@@IEBAAEAPEAU?$_Tree_node@U?$pair@$$CBHUDELAYINFO@@@std@@PEAX@2@XZ 000000018004ea40 f i IocpServerImpl.obj
 0001:0004da80       ?_Root@?$_Tree@V?$_Tmap_traits@HHU?$less@H@std@@V?$allocator@U?$pair@$$CBHH@std@@@2@$0A@@std@@@std@@IEBAAEAPEAU?$_Tree_node@U?$pair@$$CBHH@std@@PEAX@2@XZ 000000018004ea80 f i IocpServerImpl.obj
 0001:0004dac0       ?_Root@?$_Tree@V?$_Tmap_traits@HUDELAYINFO@@U?$less@H@std@@V?$allocator@U?$pair@$$CBHUDELAYINFO@@@std@@@3@$00@std@@@std@@IEBAAEAPEAU?$_Tree_node@U?$pair@$$CBHUDELAYINFO@@@std@@PEAX@2@XZ 000000018004eac0 f i IocpServerImpl.obj
 0001:0004db00       ?_Root@?$_Tree@V?$_Tmap_traits@HUDELAYINFO@@U?$less@H@std@@V?$allocator@U?$pair@$$CBHUDELAYINFO@@@std@@@3@$0A@@std@@@std@@IEBAAEAPEAU?$_Tree_node@U?$pair@$$CBHUDELAYINFO@@@std@@PEAX@2@XZ 000000018004eb00 f i IocpServerImpl.obj
 0001:0004db40       ?_Rrotate@?$_Tree@V?$_Tmap_traits@HHU?$less@H@std@@V?$allocator@U?$pair@$$CBHH@std@@@2@$0A@@std@@@std@@IEAAXPEAU?$_Tree_node@U?$pair@$$CBHH@std@@PEAX@2@@Z 000000018004eb40 f i IocpServerImpl.obj
 0001:0004dcf0       ?_Rrotate@?$_Tree@V?$_Tmap_traits@HUDELAYINFO@@U?$less@H@std@@V?$allocator@U?$pair@$$CBHUDELAYINFO@@@std@@@3@$00@std@@@std@@IEAAXPEAU?$_Tree_node@U?$pair@$$CBHUDELAYINFO@@@std@@PEAX@2@@Z 000000018004ecf0 f i IocpServerImpl.obj
 0001:0004dea0       ?_Rrotate@?$_Tree@V?$_Tmap_traits@HUDELAYINFO@@U?$less@H@std@@V?$allocator@U?$pair@$$CBHUDELAYINFO@@@std@@@3@$0A@@std@@@std@@IEAAXPEAU?$_Tree_node@U?$pair@$$CBHUDELAYINFO@@@std@@PEAX@2@@Z 000000018004eea0 f i IocpServerImpl.obj
 0001:0004e050       ?_Tidy@?$_Tree@V?$_Tmap_traits@HHU?$less@H@std@@V?$allocator@U?$pair@$$CBHH@std@@@2@$0A@@std@@@std@@IEAAXXZ 000000018004f050 f i IocpServerImpl.obj
 0001:0004e1d0       ?_Tidy@?$_Tree@V?$_Tmap_traits@HUDELAYINFO@@U?$less@H@std@@V?$allocator@U?$pair@$$CBHUDELAYINFO@@@std@@@3@$00@std@@@std@@IEAAXXZ 000000018004f1d0 f i IocpServerImpl.obj
 0001:0004e350       ?_Tidy@?$_Tree@V?$_Tmap_traits@HUDELAYINFO@@U?$less@H@std@@V?$allocator@U?$pair@$$CBHUDELAYINFO@@@std@@@3@$0A@@std@@@std@@IEAAXXZ 000000018004f350 f i IocpServerImpl.obj
 0001:0004e4d0       ?allocate@?$_Wrap_alloc@V?$allocator@U?$_Tree_node@U?$pair@$$CBHH@std@@PEAX@std@@@std@@@std@@QEAAPEAU?$_Tree_node@U?$pair@$$CBHH@std@@PEAX@2@_K@Z 000000018004f4d0 f i IocpServerImpl.obj
 0001:0004e520       ?allocate@?$_Wrap_alloc@V?$allocator@U?$_Tree_node@U?$pair@$$CBHUDELAYINFO@@@std@@PEAX@std@@@std@@@std@@QEAAPEAU?$_Tree_node@U?$pair@$$CBHUDELAYINFO@@@std@@PEAX@2@_K@Z 000000018004f520 f i IocpServerImpl.obj
 0001:0004e570       ?allocate@?$allocator@U?$_Tree_node@U?$pair@$$CBHH@std@@PEAX@std@@@std@@QEAAPEAU?$_Tree_node@U?$pair@$$CBHH@std@@PEAX@2@_K@Z 000000018004f570 f i IocpServerImpl.obj
 0001:0004e5c0       ?allocate@?$allocator@U?$_Tree_node@U?$pair@$$CBHUDELAYINFO@@@std@@PEAX@std@@@std@@QEAAPEAU?$_Tree_node@U?$pair@$$CBHUDELAYINFO@@@std@@PEAX@2@_K@Z 000000018004f5c0 f i IocpServerImpl.obj
 0001:0004e610       ?begin@?$_Tree@V?$_Tmap_traits@HHU?$less@H@std@@V?$allocator@U?$pair@$$CBHH@std@@@2@$0A@@std@@@std@@QEAA?AV?$_Tree_iterator@V?$_Tree_val@U?$_Tree_simple_types@U?$pair@$$CBHH@std@@@std@@@std@@@2@XZ 000000018004f610 f i IocpServerImpl.obj
 0001:0004e670       ?begin@?$_Tree@V?$_Tmap_traits@HUDELAYINFO@@U?$less@H@std@@V?$allocator@U?$pair@$$CBHUDELAYINFO@@@std@@@3@$00@std@@@std@@QEAA?AV?$_Tree_iterator@V?$_Tree_val@U?$_Tree_simple_types@U?$pair@$$CBHUDELAYINFO@@@std@@@std@@@std@@@2@XZ 000000018004f670 f i IocpServerImpl.obj
 0001:0004e6d0       ?begin@?$_Tree@V?$_Tmap_traits@HUDELAYINFO@@U?$less@H@std@@V?$allocator@U?$pair@$$CBHUDELAYINFO@@@std@@@3@$0A@@std@@@std@@QEAA?AV?$_Tree_iterator@V?$_Tree_val@U?$_Tree_simple_types@U?$pair@$$CBHUDELAYINFO@@@std@@@std@@@std@@@2@XZ 000000018004f6d0 f i IocpServerImpl.obj
 0001:0004e730       ?clear@?$_Tree@V?$_Tmap_traits@HHU?$less@H@std@@V?$allocator@U?$pair@$$CBHH@std@@@2@$0A@@std@@@std@@QEAAXXZ 000000018004f730 f i IocpServerImpl.obj
 0001:0004e800       ?clear@?$_Tree@V?$_Tmap_traits@HUDELAYINFO@@U?$less@H@std@@V?$allocator@U?$pair@$$CBHUDELAYINFO@@@std@@@3@$00@std@@@std@@QEAAXXZ 000000018004f800 f i IocpServerImpl.obj
 0001:0004e8d0       ?clear@?$_Tree@V?$_Tmap_traits@HUDELAYINFO@@U?$less@H@std@@V?$allocator@U?$pair@$$CBHUDELAYINFO@@@std@@@3@$0A@@std@@@std@@QEAAXXZ 000000018004f8d0 f i IocpServerImpl.obj
 0001:0004e9a0       ?deallocate@?$_Wrap_alloc@V?$allocator@U?$_Tree_node@U?$pair@$$CBHH@std@@PEAX@std@@@std@@@std@@QEAAXPEAU?$_Tree_node@U?$pair@$$CBHH@std@@PEAX@2@_K@Z 000000018004f9a0 f i IocpServerImpl.obj
 0001:0004ea00       ?deallocate@?$_Wrap_alloc@V?$allocator@U?$_Tree_node@U?$pair@$$CBHUDELAYINFO@@@std@@PEAX@std@@@std@@@std@@QEAAXPEAU?$_Tree_node@U?$pair@$$CBHUDELAYINFO@@@std@@PEAX@2@_K@Z 000000018004fa00 f i IocpServerImpl.obj
 0001:0004ea60       ?deallocate@?$allocator@U?$_Tree_node@U?$pair@$$CBHH@std@@PEAX@std@@@std@@QEAAXPEAU?$_Tree_node@U?$pair@$$CBHH@std@@PEAX@2@_K@Z 000000018004fa60 f i IocpServerImpl.obj
 0001:0004eab0       ?deallocate@?$allocator@U?$_Tree_node@U?$pair@$$CBHUDELAYINFO@@@std@@PEAX@std@@@std@@QEAAXPEAU?$_Tree_node@U?$pair@$$CBHUDELAYINFO@@@std@@PEAX@2@_K@Z 000000018004fab0 f i IocpServerImpl.obj
 0001:0004eb00       ?end@?$_Tree@V?$_Tmap_traits@HHU?$less@H@std@@V?$allocator@U?$pair@$$CBHH@std@@@2@$0A@@std@@@std@@QEAA?AV?$_Tree_iterator@V?$_Tree_val@U?$_Tree_simple_types@U?$pair@$$CBHH@std@@@std@@@std@@@2@XZ 000000018004fb00 f i IocpServerImpl.obj
 0001:0004eb60       ?end@?$_Tree@V?$_Tmap_traits@HUDELAYINFO@@U?$less@H@std@@V?$allocator@U?$pair@$$CBHUDELAYINFO@@@std@@@3@$00@std@@@std@@QEAA?AV?$_Tree_iterator@V?$_Tree_val@U?$_Tree_simple_types@U?$pair@$$CBHUDELAYINFO@@@std@@@std@@@std@@@2@XZ 000000018004fb60 f i IocpServerImpl.obj
 0001:0004ebc0       ?end@?$_Tree@V?$_Tmap_traits@HUDELAYINFO@@U?$less@H@std@@V?$allocator@U?$pair@$$CBHUDELAYINFO@@@std@@@3@$0A@@std@@@std@@QEAA?AV?$_Tree_iterator@V?$_Tree_val@U?$_Tree_simple_types@U?$pair@$$CBHUDELAYINFO@@@std@@@std@@@std@@@2@XZ 000000018004fbc0 f i IocpServerImpl.obj
 0001:0004ec20       ?erase@?$_Tree@V?$_Tmap_traits@HHU?$less@H@std@@V?$allocator@U?$pair@$$CBHH@std@@@2@$0A@@std@@@std@@QEAA?AV?$_Tree_iterator@V?$_Tree_val@U?$_Tree_simple_types@U?$pair@$$CBHH@std@@@std@@@std@@@2@V?$_Tree_const_iterator@V?$_Tree_val@U?$_Tree_simple_types@U?$pair@$$CBHH@std@@@std@@@std@@@2@0@Z 000000018004fc20 f i IocpServerImpl.obj
 0001:0004ef80       ?erase@?$_Tree@V?$_Tmap_traits@HHU?$less@H@std@@V?$allocator@U?$pair@$$CBHH@std@@@2@$0A@@std@@@std@@QEAA?AV?$_Tree_iterator@V?$_Tree_val@U?$_Tree_simple_types@U?$pair@$$CBHH@std@@@std@@@std@@@2@V?$_Tree_const_iterator@V?$_Tree_val@U?$_Tree_simple_types@U?$pair@$$CBHH@std@@@std@@@std@@@2@@Z 000000018004ff80 f i IocpServerImpl.obj
 0001:0004faa0       ?erase@?$_Tree@V?$_Tmap_traits@HUDELAYINFO@@U?$less@H@std@@V?$allocator@U?$pair@$$CBHUDELAYINFO@@@std@@@3@$00@std@@@std@@QEAA?AV?$_Tree_iterator@V?$_Tree_val@U?$_Tree_simple_types@U?$pair@$$CBHUDELAYINFO@@@std@@@std@@@std@@@2@V?$_Tree_const_iterator@V?$_Tree_val@U?$_Tree_simple_types@U?$pair@$$CBHUDELAYINFO@@@std@@@std@@@std@@@2@0@Z 0000000180050aa0 f i IocpServerImpl.obj
 0001:0004fe00       ?erase@?$_Tree@V?$_Tmap_traits@HUDELAYINFO@@U?$less@H@std@@V?$allocator@U?$pair@$$CBHUDELAYINFO@@@std@@@3@$00@std@@@std@@QEAA?AV?$_Tree_iterator@V?$_Tree_val@U?$_Tree_simple_types@U?$pair@$$CBHUDELAYINFO@@@std@@@std@@@std@@@2@V?$_Tree_const_iterator@V?$_Tree_val@U?$_Tree_simple_types@U?$pair@$$CBHUDELAYINFO@@@std@@@std@@@std@@@2@@Z 0000000180050e00 f i IocpServerImpl.obj
 0001:00050920       ?erase@?$_Tree@V?$_Tmap_traits@HUDELAYINFO@@U?$less@H@std@@V?$allocator@U?$pair@$$CBHUDELAYINFO@@@std@@@3@$0A@@std@@@std@@QEAA?AV?$_Tree_iterator@V?$_Tree_val@U?$_Tree_simple_types@U?$pair@$$CBHUDELAYINFO@@@std@@@std@@@std@@@2@V?$_Tree_const_iterator@V?$_Tree_val@U?$_Tree_simple_types@U?$pair@$$CBHUDELAYINFO@@@std@@@std@@@std@@@2@0@Z 0000000180051920 f i IocpServerImpl.obj
 0001:00050c80       ?erase@?$_Tree@V?$_Tmap_traits@HUDELAYINFO@@U?$less@H@std@@V?$allocator@U?$pair@$$CBHUDELAYINFO@@@std@@@3@$0A@@std@@@std@@QEAA?AV?$_Tree_iterator@V?$_Tree_val@U?$_Tree_simple_types@U?$pair@$$CBHUDELAYINFO@@@std@@@std@@@std@@@2@V?$_Tree_const_iterator@V?$_Tree_val@U?$_Tree_simple_types@U?$pair@$$CBHUDELAYINFO@@@std@@@std@@@std@@@2@@Z 0000000180051c80 f i IocpServerImpl.obj
 0001:000517a0       ?find@?$_Tree@V?$_Tmap_traits@HUDELAYINFO@@U?$less@H@std@@V?$allocator@U?$pair@$$CBHUDELAYINFO@@@std@@@3@$0A@@std@@@std@@QEAA?AV?$_Tree_iterator@V?$_Tree_val@U?$_Tree_simple_types@U?$pair@$$CBHUDELAYINFO@@@std@@@std@@@std@@@2@AEBH@Z 00000001800527a0 f i IocpServerImpl.obj
 0001:00051ad0       ?find@?$_Tree@V?$_Tmap_traits@V?$basic_string@DU?$char_traits@D@std@@V?$allocator@D@2@@std@@HU?$less@V?$basic_string@DU?$char_traits@D@std@@V?$allocator@D@2@@std@@@2@V?$allocator@U?$pair@$$CBV?$basic_string@DU?$char_traits@D@std@@V?$allocator@D@2@@std@@H@std@@@2@$0A@@std@@@std@@QEAA?AV?$_Tree_iterator@V?$_Tree_val@U?$_Tree_simple_types@U?$pair@$$CBV?$basic_string@DU?$char_traits@D@std@@V?$allocator@D@2@@std@@H@std@@@std@@@std@@@2@AEBV?$basic_string@DU?$char_traits@D@std@@V?$allocator@D@2@@2@@Z 0000000180052ad0 f i IocpServerImpl.obj
 0001:00051e00       ?lower_bound@?$_Tree@V?$_Tmap_traits@HUDELAYINFO@@U?$less@H@std@@V?$allocator@U?$pair@$$CBHUDELAYINFO@@@std@@@3@$0A@@std@@@std@@QEAA?AV?$_Tree_iterator@V?$_Tree_val@U?$_Tree_simple_types@U?$pair@$$CBHUDELAYINFO@@@std@@@std@@@std@@@2@AEBH@Z 0000000180052e00 f i IocpServerImpl.obj
 0001:00051e80       ?lower_bound@?$_Tree@V?$_Tmap_traits@V?$basic_string@DU?$char_traits@D@std@@V?$allocator@D@2@@std@@HU?$less@V?$basic_string@DU?$char_traits@D@std@@V?$allocator@D@2@@std@@@2@V?$allocator@U?$pair@$$CBV?$basic_string@DU?$char_traits@D@std@@V?$allocator@D@2@@std@@H@std@@@2@$0A@@std@@@std@@QEAA?AV?$_Tree_iterator@V?$_Tree_val@U?$_Tree_simple_types@U?$pair@$$CBV?$basic_string@DU?$char_traits@D@std@@V?$allocator@D@2@@std@@H@std@@@std@@@std@@@2@AEBV?$basic_string@DU?$char_traits@D@std@@V?$allocator@D@2@@2@@Z 0000000180052e80 f i IocpServerImpl.obj
 0001:00051f00       ?max_size@?$_Tree@V?$_Tmap_traits@HUDELAYINFO@@U?$less@H@std@@V?$allocator@U?$pair@$$CBHUDELAYINFO@@@std@@@3@$00@std@@@std@@QEBA_KXZ 0000000180052f00 f i IocpServerImpl.obj
 0001:00051f50       ?max_size@?$_Tree@V?$_Tmap_traits@HUDELAYINFO@@U?$less@H@std@@V?$allocator@U?$pair@$$CBHUDELAYINFO@@@std@@@3@$0A@@std@@@std@@QEBA_KXZ 0000000180052f50 f i IocpServerImpl.obj
 0001:00051fa0       ?max_size@?$_Wrap_alloc@V?$allocator@U?$_Tree_node@U?$pair@$$CBHUDELAYINFO@@@std@@PEAX@std@@@std@@@std@@QEBA_KXZ 0000000180052fa0 f i IocpServerImpl.obj
 0001:00051fe0       ?max_size@?$allocator@U?$_Tree_node@U?$pair@$$CBHUDELAYINFO@@@std@@PEAX@std@@@std@@QEBA_KXZ 0000000180052fe0 f i IocpServerImpl.obj
 0001:00052000       ?max_size@?$allocator_traits@V?$allocator@U?$_Tree_node@U?$pair@$$CBHUDELAYINFO@@@std@@PEAX@std@@@std@@@std@@SA_KAEBV?$allocator@U?$_Tree_node@U?$pair@$$CBHUDELAYINFO@@@std@@PEAX@std@@@2@@Z 0000000180053000 f i IocpServerImpl.obj
 0001:00052040       ?pointer_to@?$pointer_traits@PEAU?$pair@$$CBHUDELAYINFO@@@std@@@std@@SAPEAU?$pair@$$CBHUDELAYINFO@@@2@AEAU32@@Z 0000000180053040 f i IocpServerImpl.obj
 0001:00052080       ??0LockBase@@QEAA@XZ       0000000180053080 f   LockBase.obj
 0001:000520b0       ??1LockBase@@UEAA@XZ       00000001800530b0 f   LockBase.obj
 0001:000520e0       ??_ELockBase@@UEAAPEAXI@Z  00000001800530e0 f i LockBase.obj
 0001:000520e0       ??_GLockBase@@UEAAPEAXI@Z  00000001800530e0 f i LockBase.obj
 0001:00052140       ?GetMD5@@YAXPEAEI0@Z       0000000180053140 f   md5.obj
 0001:00052220       ?InitMd5Var@@YAXPEAEPEAK1@Z 0000000180053220 f   md5.obj
 0001:000522f0       ?Transform@@YAXQEAEPEAK@Z  00000001800532f0 f   md5.obj
 0001:00053510       ?Update@@YAXPEAEKPEAK01@Z  0000000180054510 f   md5.obj
 0001:000536e0       ?Final@@YAXPEAEPEAK10@Z    00000001800546e0 f   md5.obj
 0001:00053840       ?ULongToUInt8@@YAXPEAEPEAKI@Z 0000000180054840 f   md5.obj
 0001:00053940       ?ByteToDWord@@YAXPEAKPEAEI@Z 0000000180054940 f   md5.obj
 0001:00054030       ?FF@@YAXAEAKKKKKKK@Z       0000000180055030 f i md5.obj
 0001:000540f0       ?GG@@YAXAEAKKKKKKK@Z       00000001800550f0 f i md5.obj
 0001:000541b0       ?HH@@YAXAEAKKKKKKK@Z       00000001800551b0 f i md5.obj
 0001:00054260       ?II@@YAXAEAKKKKKKK@Z       0000000180055260 f i md5.obj
 0001:00054320       ?RotateLeft@@YAKKH@Z       0000000180055320 f i md5.obj
 0001:00054360       ??0SafeLock@@QEAA@XZ       0000000180055360 f   SafeLock.obj
 0001:00054390       ??0SafeLock@@QEAA@PEAVLockBase@@@Z 0000000180055390 f   SafeLock.obj
 0001:00054410       ??1SafeLock@@UEAA@XZ       0000000180055410 f   SafeLock.obj
 0001:000544c0       ??_ESafeLock@@UEAAPEAXI@Z  00000001800554c0 f i SafeLock.obj
 0001:000544c0       ??_GSafeLock@@UEAAPEAXI@Z  00000001800554c0 f i SafeLock.obj
 0001:00054520       ?UTF_8ToUnicode@@YAXPEA_WPEAD@Z 0000000180055520 f   UTF-8.obj
 0001:000545e0       ?UnicodeToUTF_8@@YAXPEADPEA_W@Z 00000001800555e0 f   UTF-8.obj
 0001:000546c0       ?UnicodeToGB2312@@YAXPEADG@Z 00000001800556c0 f   UTF-8.obj
 0001:00054730       ?Gb2312ToUnicode@@YAXPEA_WPEAD@Z 0000000180055730 f   UTF-8.obj
 0001:00054790       ?GB2312ToUTF_8@@YAPEADPEAD0H@Z 0000000180055790 f   UTF-8.obj
 0001:00054a30       ?UTF_8ToGB2312@@YAPEADPEAD0H@Z 0000000180055a30 f   UTF-8.obj
 0001:00054bd0       ?ConvertGBKToUtf8@@YAXAEAV?$basic_string@DU?$char_traits@D@std@@V?$allocator@D@2@@std@@@Z 0000000180055bd0 f   UTF-8.obj
 0001:00054e30       ?u2s@@YAPEADPEAEGPEAD@Z    0000000180055e30 f   UTF-8.obj
 0001:00055060       ?utf82ascii@@YAPEADPEAEGPEAD@Z 0000000180056060 f   UTF-8.obj
 0001:000556f0       ??$_Allocate@_W@std@@YAPEA_W_KPEA_W@Z 00000001800566f0 f i UTF-8.obj
 0001:00055790       ??$_Destroy_range@U?$_Wrap_alloc@V?$allocator@_W@std@@@std@@@std@@YAXPEA_W0AEAU?$_Wrap_alloc@V?$allocator@_W@std@@@0@@Z 0000000180056790 f i UTF-8.obj
 0001:00055810       ??$_Destroy_range@U?$_Wrap_alloc@V?$allocator@_W@std@@@std@@@std@@YAXPEA_W0AEAU?$_Wrap_alloc@V?$allocator@_W@std@@@0@U_Scalar_ptr_iterator_tag@0@@Z 0000000180056810 f i UTF-8.obj
 0001:00055830       ??$_Fill_n@PEA_W_K_W@std@@YAPEA_WPEA_W_KAEB_W@Z 0000000180056830 f i UTF-8.obj
 0001:000558a0       ??$_Ptr_cat@_W_W@std@@YA?AU_Scalar_ptr_iterator_tag@0@PEA_W0@Z 00000001800568a0 f i UTF-8.obj
 0001:00055900       ??$_Uninit_fill_n@_W_K_W_W@std@@YAXPEA_W_KPEB_WAEAU?$_Wrap_alloc@V?$allocator@_W@std@@@0@0U_Scalar_ptr_iterator_tag@0@@Z 0000000180056900 f i UTF-8.obj
 0001:00055960       ??$_Uninitialized_fill_n@PEA_W_K_WU?$_Wrap_alloc@V?$allocator@_W@std@@@std@@@std@@YAXPEA_W_KPEB_WAEAU?$_Wrap_alloc@V?$allocator@_W@std@@@0@@Z 0000000180056960 f i UTF-8.obj
 0001:00055a00       ??$_Val_type@PEA_W@std@@YAPEA_WPEA_W@Z 0000000180056a00 f i UTF-8.obj
 0001:00055a10       ??$addressof@$$CB_W@std@@YAPEB_WAEB_W@Z 0000000180056a10 f i UTF-8.obj
 0001:00055a20       ??0?$_Vector_alloc@$0A@U?$_Vec_base_types@_WV?$allocator@_W@std@@@std@@@std@@QEAA@AEBV?$allocator@_W@1@@Z 0000000180056a20 f i UTF-8.obj
 0001:00055a80       ??0?$_Vector_val@U?$_Simple_types@_W@std@@@std@@QEAA@XZ 0000000180056a80 f i UTF-8.obj
 0001:00055b00       ??0?$_Wrap_alloc@V?$allocator@_W@std@@@std@@QEAA@XZ 0000000180056b00 f i UTF-8.obj
 0001:00055b40       ??0?$allocator@_W@std@@QEAA@XZ 0000000180056b40 f i UTF-8.obj
 0001:00055b50       ??0?$vector@_WV?$allocator@_W@std@@@std@@QEAA@_KAEB_W@Z 0000000180056b50 f i UTF-8.obj
 0001:00055be0       ??1?$_Vector_alloc@$0A@U?$_Vec_base_types@_WV?$allocator@_W@std@@@std@@@std@@QEAA@XZ 0000000180056be0 f i UTF-8.obj
 0001:00055c30       ??1?$_Vector_val@U?$_Simple_types@_W@std@@@std@@QEAA@XZ 0000000180056c30 f i UTF-8.obj
 0001:00055c70       ??1?$vector@_WV?$allocator@_W@std@@@std@@QEAA@XZ 0000000180056c70 f i UTF-8.obj
 0001:00055cc0       ??A?$vector@_WV?$allocator@_W@std@@@std@@QEAAAEA_W_K@Z 0000000180056cc0 f i UTF-8.obj
 0001:00055de0       ?_Alloc_proxy@?$_Vector_alloc@$0A@U?$_Vec_base_types@_WV?$allocator@_W@std@@@std@@@std@@QEAAXXZ 0000000180056de0 f i UTF-8.obj
 0001:00055e90       ?_Buy@?$vector@_WV?$allocator@_W@std@@@std@@IEAA_N_K@Z 0000000180056e90 f i UTF-8.obj
 0001:00055fa0       ?_Construct_n@?$vector@_WV?$allocator@_W@std@@@std@@QEAAX_KPEB_W@Z 0000000180056fa0 f i UTF-8.obj
 0001:00056040       ?_Destroy@?$vector@_WV?$allocator@_W@std@@@std@@IEAAXPEA_W0@Z 0000000180057040 f i UTF-8.obj
 0001:000560c0       ?_Free_proxy@?$_Vector_alloc@$0A@U?$_Vec_base_types@_WV?$allocator@_W@std@@@std@@@std@@QEAAXXZ 00000001800570c0 f i UTF-8.obj
 0001:00056160       ?_Getal@?$_Vector_alloc@$0A@U?$_Vec_base_types@_WV?$allocator@_W@std@@@std@@@std@@QEBA?AU?$_Wrap_alloc@V?$allocator@_W@std@@@2@XZ 0000000180057160 f i UTF-8.obj
 0001:000561b0       ?_Tidy@?$vector@_WV?$allocator@_W@std@@@std@@IEAAXXZ 00000001800571b0 f i UTF-8.obj
 0001:000562b0       ?_Ufill@?$vector@_WV?$allocator@_W@std@@@std@@IEAAPEA_WPEA_W_KPEB_W@Z 00000001800572b0 f i UTF-8.obj
 0001:00056350       ?_Xlen@?$vector@_WV?$allocator@_W@std@@@std@@IEBAXXZ 0000000180057350 f i UTF-8.obj
 0001:00056390       ?allocate@?$_Wrap_alloc@V?$allocator@_W@std@@@std@@QEAAPEA_W_K@Z 0000000180057390 f i UTF-8.obj
 0001:000563e0       ?allocate@?$allocator@_W@std@@QEAAPEA_W_K@Z 00000001800573e0 f i UTF-8.obj
 0001:00056430       ?deallocate@?$_Wrap_alloc@V?$allocator@_W@std@@@std@@QEAAXPEA_W_K@Z 0000000180057430 f i UTF-8.obj
 0001:00056490       ?deallocate@?$allocator@_W@std@@QEAAXPEA_W_K@Z 0000000180057490 f i UTF-8.obj
 0001:000564e0       ?max_size@?$_Wrap_alloc@V?$allocator@_W@std@@@std@@QEBA_KXZ 00000001800574e0 f i UTF-8.obj
 0001:00056520       ?max_size@?$allocator@_W@std@@QEBA_KXZ 0000000180057520 f i UTF-8.obj
 0001:00056540       ?max_size@?$allocator_traits@V?$allocator@_W@std@@@std@@SA_KAEBV?$allocator@_W@2@@Z 0000000180057540 f i UTF-8.obj
 0001:00056580       ?max_size@?$vector@_WV?$allocator@_W@std@@@std@@QEBA_KXZ 0000000180057580 f i UTF-8.obj
 0001:000565d0       ?size@?$vector@_WV?$allocator@_W@std@@@std@@QEBA_KXZ 00000001800575d0 f i UTF-8.obj
 0001:000565f8       PlaySoundA                 00000001800575f8 f   winmm:WINMM.dll
 0001:000565fe       ??3@YAXPEAX@Z              00000001800575fe f   mfc120d:mfc120d.dll
 0001:00056604       ??2@YAPEAX_K@Z             0000000180057604 f   mfc120d:mfc120d.dll
 0001:0005660a       ?AfxThrowMemoryException@@YAXXZ 000000018005760a f   mfc120d:mfc120d.dll
 0001:00056610       ?AfxThrowOleException@@YAXJ@Z 0000000180057610 f   mfc120d:mfc120d.dll
 0001:00056616       ??B?$CSimpleStringT@D$00@ATL@@QEBAPEBDXZ 0000000180057616 f   mfc120d:mfc120d.dll
 0001:0005661c       ??0?$CStringT@DV?$StrTraitMFC_DLL@DV?$ChTraitsCRT@D@ATL@@@@@ATL@@QEAA@PEBD@Z 000000018005761c f   mfc120d:mfc120d.dll
 0001:00056622       ??1?$CStringT@DV?$StrTraitMFC_DLL@DV?$ChTraitsCRT@D@ATL@@@@@ATL@@QEAA@XZ 0000000180057622 f   mfc120d:mfc120d.dll
 0001:00056628       ?CompareNoCase@?$CStringT@DV?$StrTraitMFC_DLL@DV?$ChTraitsCRT@D@ATL@@@@@ATL@@QEBAHPEBD@Z 0000000180057628 f   mfc120d:mfc120d.dll
 0001:0005662e       ?Replace@?$CStringT@DV?$StrTraitMFC_DLL@DV?$ChTraitsCRT@D@ATL@@@@@ATL@@QEAAHDD@Z 000000018005762e f   mfc120d:mfc120d.dll
 0001:00056634       ?Right@?$CStringT@DV?$StrTraitMFC_DLL@DV?$ChTraitsCRT@D@ATL@@@@@ATL@@QEBA?AV12@H@Z 0000000180057634 f   mfc120d:mfc120d.dll
 0001:0005663a       ??0CFileFind@@QEAA@XZ      000000018005763a f   mfc120d:mfc120d.dll
 0001:00056640       ??1CFileFind@@UEAA@XZ      0000000180057640 f   mfc120d:mfc120d.dll
 0001:00056646       ?GetFilePath@CFileFind@@UEBA?AV?$CStringT@DV?$StrTraitMFC_DLL@DV?$ChTraitsCRT@D@ATL@@@@@ATL@@XZ 0000000180057646 f   mfc120d:mfc120d.dll
 0001:0005664c       ?GetCreationTime@CFileFind@@UEBAHAEAVCTime@ATL@@@Z 000000018005764c f   mfc120d:mfc120d.dll
 0001:00056652       ?IsDots@CFileFind@@UEBAHXZ 0000000180057652 f   mfc120d:mfc120d.dll
 0001:00056658       ?IsDirectory@CFileFind@@QEBAHXZ 0000000180057658 f   mfc120d:mfc120d.dll
 0001:0005665e       ?IsSystem@CFileFind@@QEBAHXZ 000000018005765e f   mfc120d:mfc120d.dll
 0001:00056664       ?IsHidden@CFileFind@@QEBAHXZ 0000000180057664 f   mfc120d:mfc120d.dll
 0001:0005666a       ?IsTemporary@CFileFind@@QEBAHXZ 000000018005766a f   mfc120d:mfc120d.dll
 0001:00056670       ?Close@CFileFind@@QEAAXXZ  0000000180057670 f   mfc120d:mfc120d.dll
 0001:00056676       ?FindFile@CFileFind@@UEAAHPEBDK@Z 0000000180057676 f   mfc120d:mfc120d.dll
 0001:0005667c       ?FindNextFileA@CFileFind@@UEAAHXZ 000000018005767c f   mfc120d:mfc120d.dll
 0001:00056682       ??_U@YAPEAX_K@Z            0000000180057682 f   mfc120d:mfc120d.dll
 0001:00056688       ??_V@YAXPEAX@Z             0000000180057688 f   mfc120d:mfc120d.dll
 0001:0005668e       ?Format@?$CStringT@DV?$StrTraitMFC_DLL@DV?$ChTraitsCRT@D@ATL@@@@@ATL@@QEAAXPEBDZZ 000000018005768e f   mfc120d:mfc120d.dll
 0001:00056694       ??0?$CStringT@DV?$StrTraitMFC_DLL@DV?$ChTraitsCRT@D@ATL@@@@@ATL@@QEAA@XZ 0000000180057694 f   mfc120d:mfc120d.dll
 0001:000566a0       ??1CComBSTR@ATL@@QEAA@XZ   00000001800576a0 f i mfcs120d:nolib.obj
 0001:000566e0       ??1stringdispid@CComTypeInfoHolder@ATL@@QEAA@XZ 00000001800576e0 f i mfcs120d:nolib.obj
 0001:00056720       ??_Estringdispid@CComTypeInfoHolder@ATL@@QEAAPEAXI@Z 0000000180057720 f i mfcs120d:nolib.obj
 0001:000567c0       IsolationAwareActivateActCtx 00000001800577c0 f i mfcs120d:nolib.obj
 0001:00056800       IsolationAwareCreateActCtxW 0000000180057800 f i mfcs120d:nolib.obj
 0001:00056830       IsolationAwareDeactivateActCtx 0000000180057830 f i mfcs120d:nolib.obj
 0001:00056870       IsolationAwareFindActCtxSectionStringW 0000000180057870 f i mfcs120d:nolib.obj
 0001:000568d0       IsolationAwarePrivatenPgViNgRzlnPgpgk 00000001800578d0 f i mfcs120d:nolib.obj
 0001:00056950       IsolationAwareQueryActCtxW 0000000180057950 f i mfcs120d:nolib.obj
 0001:000569c0       IsolationAwareUnregisterClassA 00000001800579c0 f i mfcs120d:nolib.obj
 0001:00056ab0       WinbaseIsolationAwarePrivatetRgzlnPgpgk 0000000180057ab0 f i mfcs120d:nolib.obj
 0001:00056d40       RawDllMain                 0000000180057d40 f   mfcs120d:dllmodul.obj
 0001:00056e00       ??0_AFX_DLL_MODULE_STATE@@QEAA@XZ 0000000180057e00 f i mfcs120d:dllmodul.obj
 0001:00056e60       ??1_AFX_DLL_MODULE_STATE@@UEAA@XZ 0000000180057e60 f i mfcs120d:dllmodul.obj
 0001:00056e90       ??B?$CTraceCategoryEx@$0IAAAA@$0A@@ATL@@QEAAIXZ 0000000180057e90 f i mfcs120d:dllmodul.obj
 0001:00056ea0       ??_G_AFX_DLL_MODULE_STATE@@UEAAPEAXI@Z 0000000180057ea0 f i mfcs120d:dllmodul.obj
 0001:00056ea0       ??_E_AFX_DLL_MODULE_STATE@@UEAAPEAXI@Z 0000000180057ea0 f i mfcs120d:dllmodul.obj
 0001:00056ef0       ?AfxGetStaticModuleState@@YAPEAVAFX_MODULE_STATE@@XZ 0000000180057ef0 f   mfcs120d:dllmodul.obj
 0001:00056f20       ?AfxWndProcDllStatic@@YA_JPEAUHWND__@@I_K_J@Z 0000000180057f20 f   mfcs120d:dllmodul.obj
 0001:00056fc0       DllMain                    0000000180057fc0 f   mfcs120d:dllmodul.obj
 0001:00057090       InternalDllMain            0000000180058090 f   mfcs120d:dllmodul.obj
 0001:00057452       _purecall                  0000000180058452 f   msvcrtd:MSVCR120D.dll
 0001:00057460       __atonexitinit             0000000180058460 f   msvcrtd:atonexit.obj
 0001:00057550       _onexit                    0000000180058550 f   msvcrtd:atonexit.obj
 0001:00057620       atexit                     0000000180058620 f   msvcrtd:atonexit.obj
 0001:00057660       __raise_securityfailure    0000000180058660 f   msvcrtd:gs_report.obj
 0001:000576b0       __report_gsfailure         00000001800586b0 f   msvcrtd:gs_report.obj
 0001:00057790       __report_rangecheckfailure 0000000180058790 f   msvcrtd:gs_report.obj
 0001:000577b0       __report_securityfailure   00000001800587b0 f   msvcrtd:gs_report.obj
 0001:00057850       __report_securityfailureEx 0000000180058850 f   msvcrtd:gs_report.obj
 0001:0005795e       toupper                    000000018005895e f   msvcrtd:MSVCR120D.dll
 0001:00057964       tolower                    0000000180058964 f   msvcrtd:MSVCR120D.dll
 0001:0005796a       memchr                     000000018005896a f   msvcrtd:MSVCR120D.dll
 0001:00057970       memcpy                     0000000180058970 f   msvcrtd:MSVCR120D.dll
 0001:00057976       memset                     0000000180058976 f   msvcrtd:MSVCR120D.dll
 0001:0005797c       strcpy                     000000018005897c f   msvcrtd:MSVCR120D.dll
 0001:00057982       strlen                     0000000180058982 f   msvcrtd:MSVCR120D.dll
 0001:00057988       memmove                    0000000180058988 f   msvcrtd:MSVCR120D.dll
 0001:0005798e       wcscpy_s                   000000018005898e f   msvcrtd:MSVCR120D.dll
 0001:00057994       wcslen                     0000000180058994 f   msvcrtd:MSVCR120D.dll
 0001:0005799a       fgets                      000000018005899a f   msvcrtd:MSVCR120D.dll
 0001:000579a0       _vsnprintf_s               00000001800589a0 f   msvcrtd:MSVCR120D.dll
 0001:000579a6       sprintf                    00000001800589a6 f   msvcrtd:MSVCR120D.dll
 0001:000579ac       swprintf_s                 00000001800589ac f   msvcrtd:MSVCR120D.dll
 0001:000579b2       _i64toa                    00000001800589b2 f   msvcrtd:MSVCR120D.dll
 0001:000579b8       _ui64toa                   00000001800589b8 f   msvcrtd:MSVCR120D.dll
 0001:000579be       free                       00000001800589be f   msvcrtd:MSVCR120D.dll
 0001:000579c4       _time64                    00000001800589c4 f   msvcrtd:MSVCR120D.dll
 0001:000579ca       _CrtDbgReportW             00000001800589ca f   msvcrtd:MSVCR120D.dll
 0001:000579d0       _hypot                     00000001800589d0 f   msvcrtd:MSVCR120D.dll
 0001:000579d6       _CxxThrowException         00000001800589d6 f   msvcrtd:MSVCR120D.dll
 0001:000579e0       _RTC_AllocaHelper          00000001800589e0 f   msvcrtd:stack.obj
 0001:00057a20       _RTC_CheckStackVars        0000000180058a20 f   msvcrtd:stack.obj
 0001:00057ab0       _RTC_CheckStackVars2       0000000180058ab0 f   msvcrtd:stack.obj
 0001:00057bc0       _RTC_InitBase              0000000180058bc0 f   msvcrtd:init.obj
 0001:00057c00       _RTC_Shutdown              0000000180058c00 f   msvcrtd:init.obj
 0001:00057c24       __CxxFrameHandler3         0000000180058c24 f   msvcrtd:MSVCR120D.dll
 0001:00057c30       __GSHandlerCheck           0000000180058c30 f   msvcrtd:gshandler.obj
 0001:00057c70       __GSHandlerCheckCommon     0000000180058c70 f   msvcrtd:gshandler.obj
 0001:00057d70       __GSHandlerCheck_EH        0000000180058d70 f   msvcrtd:gshandlereh.obj
 0001:00057e30       __chkstk                   0000000180058e30 f   msvcrtd:chkstk.obj
 0001:00057e30       _alloca_probe              0000000180058e30 f   msvcrtd:chkstk.obj
 0001:00057e90       __security_check_cookie    0000000180058e90 f   msvcrtd:amdsecgs.obj
 0001:00057eb0       ??0type_info@@AEAA@AEBV0@@Z 0000000180058eb0 f   msvcrtd:ti_inst.obj
 0001:00057ed0       ??4type_info@@AEAAAEAV0@AEBV0@@Z 0000000180058ed0 f   msvcrtd:ti_inst.obj
 0001:00057ee0       ??_Etype_info@@UEAAPEAXI@Z 0000000180058ee0 f i msvcrtd:ti_inst.obj
 0001:00057f68       _beginthreadex             0000000180058f68 f   msvcrtd:MSVCR120D.dll
 0001:00057f6e       _invalid_parameter         0000000180058f6e f   msvcrtd:MSVCR120D.dll
 0001:00057f74       isdigit                    0000000180058f74 f   msvcrtd:MSVCR120D.dll
 0001:00057f7a       isalnum                    0000000180058f7a f   msvcrtd:MSVCR120D.dll
 0001:00057f80       memcmp                     0000000180058f80 f   msvcrtd:MSVCR120D.dll
 0001:00057f86       strcat                     0000000180058f86 f   msvcrtd:MSVCR120D.dll
 0001:00057f8c       strncpy                    0000000180058f8c f   msvcrtd:MSVCR120D.dll
 0001:00057f92       strstr                     0000000180058f92 f   msvcrtd:MSVCR120D.dll
 0001:00057f98       wcsncpy                    0000000180058f98 f   msvcrtd:MSVCR120D.dll
 0001:00057f9e       sscanf                     0000000180058f9e f   msvcrtd:MSVCR120D.dll
 0001:00057fa4       atoi                       0000000180058fa4 f   msvcrtd:MSVCR120D.dll
 0001:00057faa       _localtime64               0000000180058faa f   msvcrtd:MSVCR120D.dll
 0001:00057fb0       _mktime64                  0000000180058fb0 f   msvcrtd:MSVCR120D.dll
 0001:00057fc0       ??_M@YAXPEAX_KHP6AX0@Z@Z   0000000180058fc0 f   msvcrtd:ehvecdtr.obj
 0001:000580a0       ?__ArrayUnwind@@YAXPEAX_KHP6AX0@Z@Z 00000001800590a0 f   msvcrtd:ehvecdtr.obj
 0001:00058180       NtCurrentTeb               0000000180059180 f i msvcrtd:crtdll.obj
 0001:00058190       _CRT_INIT                  0000000180059190 f   msvcrtd:crtdll.obj
 0001:00058540       _DllMainCRTStartup         0000000180059540 f   msvcrtd:crtdll.obj
 0001:000586f2       __C_specific_handler       00000001800596f2 f   msvcrtd:MSVCR120D.dll
 0001:00058700       __GSHandlerCheck_SEH       0000000180059700 f   msvcrtd:gshandlerseh.obj
 0001:000587be       _lock                      00000001800597be f   msvcrtd:MSVCR120D.dll
 0001:000587c4       _unlock                    00000001800597c4 f   msvcrtd:MSVCR120D.dll
 0001:000587ca       _calloc_dbg                00000001800597ca f   msvcrtd:MSVCR120D.dll
 0001:000587d0       __dllonexit                00000001800597d0 f   msvcrtd:MSVCR120D.dll
 0001:000587d6       __crt_debugger_hook        00000001800597d6 f   msvcrtd:MSVCR120D.dll
 0001:000587dc       __crtUnhandledException    00000001800597dc f   msvcrtd:MSVCR120D.dll
 0001:000587e2       __crtTerminateProcess      00000001800597e2 f   msvcrtd:MSVCR120D.dll
 0001:000587e8       __crtCaptureCurrentContext 00000001800597e8 f   msvcrtd:MSVCR120D.dll
 0001:000587ee       __crtCapturePreviousContext 00000001800597ee f   msvcrtd:MSVCR120D.dll
 0001:000588a0       ?_RTC_AllocaFailure@@YAXPEAXPEAU_RTC_ALLOCA_NODE@@H@Z 00000001800598a0 f   msvcrtd:error.obj
 0001:00058a60       ?_RTC_Failure@@YAXPEAXH@Z  0000000180059a60 f   msvcrtd:error.obj
 0001:00058ab0       ?_RTC_StackFailure@@YAXPEAXPEBD@Z 0000000180059ab0 f   msvcrtd:error.obj
 0001:00058f10       _RTC_UninitUse             0000000180059f10 f   msvcrtd:error.obj
 0001:00059030       ?_RTC_GetErrorFunc@@YAP6AHHPEBDH00ZZPEBX@Z 000000018005a030 f   msvcrtd:userapi.obj
 0001:00059040       ?_RTC_GetErrorFuncW@@YAP6AHHPEB_WH00ZZPEBX@Z 000000018005a040 f   msvcrtd:userapi.obj
 0001:00059050       _RTC_GetErrDesc            000000018005a050 f   msvcrtd:userapi.obj
 0001:00059070       _RTC_NumErrors             000000018005a070 f   msvcrtd:userapi.obj
 0001:00059080       _RTC_SetErrorFunc          000000018005a080 f   msvcrtd:userapi.obj
 0001:000590a0       _RTC_SetErrorFuncW         000000018005a0a0 f   msvcrtd:userapi.obj
 0001:000590c0       _RTC_SetErrorType          000000018005a0c0 f   msvcrtd:userapi.obj
 0001:000590de       _CRT_RTC_INITW             000000018005a0de f   msvcrtd:MSVCR120D.dll
 0001:000590e4       ?terminate@@YAXXZ          000000018005a0e4 f   msvcrtd:MSVCR120D.dll
 0001:000590ea       __CppXcptFilter            000000018005a0ea f   msvcrtd:MSVCR120D.dll
 0001:000590f0       _amsg_exit                 000000018005a0f0 f   msvcrtd:MSVCR120D.dll
 0001:000590f6       _malloc_dbg                000000018005a0f6 f   msvcrtd:MSVCR120D.dll
 0001:000590fc       _free_dbg                  000000018005a0fc f   msvcrtd:MSVCR120D.dll
 0001:00059102       _CrtSetCheckCount          000000018005a102 f   msvcrtd:MSVCR120D.dll
 0001:00059110       _FindPESection             000000018005a110 f   msvcrtd:pesect.obj
 0001:000591c0       _IsNonwritableInCurrentImage 000000018005a1c0 f   msvcrtd:pesect.obj
 0001:00059250       _ValidateImageBase         000000018005a250 f   msvcrtd:pesect.obj
 0001:000592d0       __security_init_cookie     000000018005a2d0 f   msvcrtd:gs_support.obj
 0001:000593f0       _RTC_Initialize            000000018005a3f0 f   msvcrtd:initsect.obj
 0001:00059430       _RTC_Terminate             000000018005a430 f   msvcrtd:initsect.obj
 0001:0005946e       _initterm                  000000018005a46e f   msvcrtd:MSVCR120D.dll
 0001:00059474       _initterm_e                000000018005a474 f   msvcrtd:MSVCR120D.dll
 0001:00059480       __clean_type_info_names    000000018005a480 f   msvcrtd:tncleanup.obj
 0001:00059960       ?_RTC_GetSrcLine@@YAHPEAEPEA_WKPEAH1K@Z 000000018005a960 f   msvcrtd:pdblkup.obj
 0001:00059cea       ?_type_info_dtor_internal_method@type_info@@QEAAXXZ 000000018005acea f   msvcrtd:MSVCR120D.dll
 0001:00059cea       ??1type_info@@UEAA@XZ      000000018005acea f   msvcrtd:MSVCR120D.dll
 0001:00059cf0       __clean_type_info_names_internal 000000018005acf0 f   msvcrtd:MSVCR120D.dll
 0001:00059cf6       _wmakepath_s               000000018005acf6 f   msvcrtd:MSVCR120D.dll
 0001:00059cfc       _wsplitpath_s              000000018005acfc f   msvcrtd:MSVCR120D.dll
 0001:00059d02       CreateDirectoryA           000000018005ad02 f   kernel32:KERNEL32.dll
 0001:00059d08       DecodePointer              000000018005ad08 f   kernel32:KERNEL32.dll
 0001:00059d0e       Beep                       000000018005ad0e f   kernel32:KERNEL32.dll
 0001:00059d14       RaiseException             000000018005ad14 f   kernel32:KERNEL32.dll
 0001:00059d1a       GetLastError               000000018005ad1a f   kernel32:KERNEL32.dll
 0001:00059d20       HeapDestroy                000000018005ad20 f   kernel32:KERNEL32.dll
 0001:00059d26       HeapAlloc                  000000018005ad26 f   kernel32:KERNEL32.dll
 0001:00059d2c       HeapReAlloc                000000018005ad2c f   kernel32:KERNEL32.dll
 0001:00059d32       HeapFree                   000000018005ad32 f   kernel32:KERNEL32.dll
 0001:00059d38       HeapSize                   000000018005ad38 f   kernel32:KERNEL32.dll
 0001:00059d3e       GetProcessHeap             000000018005ad3e f   kernel32:KERNEL32.dll
 0001:00059d44       InitializeCriticalSectionAndSpinCount 000000018005ad44 f   kernel32:KERNEL32.dll
 0001:00059d4a       DeleteCriticalSection      000000018005ad4a f   kernel32:KERNEL32.dll
 0001:00059d50       WaitForSingleObject        000000018005ad50 f   kernel32:KERNEL32.dll
 0001:00059d56       Sleep                      000000018005ad56 f   kernel32:KERNEL32.dll
 0001:00059d5c       GetCurrentThreadId         000000018005ad5c f   kernel32:KERNEL32.dll
 0001:00059d62       GetLocalTime               000000018005ad62 f   kernel32:KERNEL32.dll
 0001:00059d68       GetTickCount               000000018005ad68 f   kernel32:KERNEL32.dll
 0001:00059d6e       FreeLibrary                000000018005ad6e f   kernel32:KERNEL32.dll
 0001:00059d74       GetModuleFileNameA         000000018005ad74 f   kernel32:KERNEL32.dll
 0001:00059d7a       GetProcAddress             000000018005ad7a f   kernel32:KERNEL32.dll
 0001:00059d80       GlobalMemoryStatus         000000018005ad80 f   kernel32:KERNEL32.dll
 0001:00059d86       WaitForMultipleObjects     000000018005ad86 f   kernel32:KERNEL32.dll
 0001:00059d8c       LoadLibraryA               000000018005ad8c f   kernel32:KERNEL32.dll
 0001:00059d92       GetPrivateProfileIntA      000000018005ad92 f   kernel32:KERNEL32.dll
 0001:00059d98       GetPrivateProfileStringA   000000018005ad98 f   kernel32:KERNEL32.dll
 0001:00059d9e       WritePrivateProfileStringA 000000018005ad9e f   kernel32:KERNEL32.dll
 0001:00059da4       FileTimeToSystemTime       000000018005ada4 f   kernel32:KERNEL32.dll
 0001:00059daa       MultiByteToWideChar        000000018005adaa f   kernel32:KERNEL32.dll
 0001:00059db0       WideCharToMultiByte        000000018005adb0 f   kernel32:KERNEL32.dll
 0001:00059db6       CloseHandle                000000018005adb6 f   kernel32:KERNEL32.dll
 0001:00059dbc       SetEvent                   000000018005adbc f   kernel32:KERNEL32.dll
 0001:00059dc2       ResetEvent                 000000018005adc2 f   kernel32:KERNEL32.dll
 0001:00059dc8       CreateEventA               000000018005adc8 f   kernel32:KERNEL32.dll
 0001:00059dce       InitializeCriticalSection  000000018005adce f   kernel32:KERNEL32.dll
 0001:00059dd4       EnterCriticalSection       000000018005add4 f   kernel32:KERNEL32.dll
 0001:00059dda       LeaveCriticalSection       000000018005adda f   kernel32:KERNEL32.dll
 0001:00059de0       GetModuleHandleA           000000018005ade0 f   kernel32:KERNEL32.dll
 0001:00059de6       CreateIoCompletionPort     000000018005ade6 f   kernel32:KERNEL32.dll
 0001:00059dec       GetQueuedCompletionStatus  000000018005adec f   kernel32:KERNEL32.dll
 0001:00059df2       PostQueuedCompletionStatus 000000018005adf2 f   kernel32:KERNEL32.dll
 0001:00059df8       CreateThread               000000018005adf8 f   kernel32:KERNEL32.dll
 0001:00059dfe       GetSystemInfo              000000018005adfe f   kernel32:KERNEL32.dll
 0001:00059e04       OutputDebugStringA         000000018005ae04 f   kernel32:KERNEL32.dll
 0001:00059e0a       SetLastError               000000018005ae0a f   kernel32:KERNEL32.dll
 0001:00059e10       GetModuleFileNameW         000000018005ae10 f   kernel32:KERNEL32.dll
 0001:00059e16       GetModuleHandleExW         000000018005ae16 f   kernel32:KERNEL32.dll
 0001:00059e1c       LoadLibraryW               000000018005ae1c f   kernel32:KERNEL32.dll
 0001:00059e22       CreateActCtxW              000000018005ae22 f   kernel32:KERNEL32.dll
 0001:00059e28       ActivateActCtx             000000018005ae28 f   kernel32:KERNEL32.dll
 0001:00059e2e       DeactivateActCtx           000000018005ae2e f   kernel32:KERNEL32.dll
 0001:00059e34       FindActCtxSectionStringW   000000018005ae34 f   kernel32:KERNEL32.dll
 0001:00059e3a       QueryActCtxW               000000018005ae3a f   kernel32:KERNEL32.dll
 0001:00059e40       LocalAlloc                 000000018005ae40 f   kernel32:KERNEL32.dll
 0001:00059e46       LocalFree                  000000018005ae46 f   kernel32:KERNEL32.dll
 0001:00059e4c       EncodePointer              000000018005ae4c f   kernel32:KERNEL32.dll
 0001:00059e52       IsDebuggerPresent          000000018005ae52 f   kernel32:KERNEL32.dll
 0001:00059e58       IsProcessorFeaturePresent  000000018005ae58 f   kernel32:KERNEL32.dll
 0001:00059e5e       LoadLibraryExW             000000018005ae5e f   kernel32:KERNEL32.dll
 0001:00059e64       QueryPerformanceCounter    000000018005ae64 f   kernel32:KERNEL32.dll
 0001:00059e6a       GetCurrentProcessId        000000018005ae6a f   kernel32:KERNEL32.dll
 0001:00059e70       GetSystemTimeAsFileTime    000000018005ae70 f   kernel32:KERNEL32.dll
 0001:00059e76       VirtualQuery               000000018005ae76 f   kernel32:KERNEL32.dll
 0001:00059e7c       GetModuleHandleW           000000018005ae7c f   kernel32:KERNEL32.dll
 0001:00059e82       UnregisterClassA           000000018005ae82 f   user32:USER32.dll
 0001:00059e88       SHFileOperationA           000000018005ae88 f   shell32:SHELL32.dll
 0001:00059e8e       StrStrIA                   000000018005ae8e f   shlwapi:SHLWAPI.dll
 0001:00059e94       PathFileExistsA            000000018005ae94 f   shlwapi:SHLWAPI.dll
 0001:00059e9c       ??$?2PEAUHINSTANCE__@@@Wrapper@?$CSimpleArray@PEAUHINSTANCE__@@V?$CSimpleArrayEqualHelper@PEAUHINSTANCE__@@@ATL@@@ATL@@SAPEAX_KPEAPEAUHINSTANCE__@@@Z 000000018005ae9c f i atls:atlbase.obj
 0001:00059ea0       ??0?$CComCritSecLock@VCComCriticalSection@ATL@@@ATL@@QEAA@AEAVCComCriticalSection@1@_N@Z 000000018005aea0 f i atls:atlbase.obj
 0001:00059ecc       ??0?$CSimpleArray@PEAUHINSTANCE__@@V?$CSimpleArrayEqualHelper@PEAUHINSTANCE__@@@ATL@@@ATL@@QEAA@XZ 000000018005aecc f i atls:atlbase.obj
 0001:00059edc       ??0CAtlBaseModule@ATL@@QEAA@XZ 000000018005aedc f   atls:atlbase.obj
 0001:00059f84       ??0Wrapper@?$CSimpleArray@PEAUHINSTANCE__@@V?$CSimpleArrayEqualHelper@PEAUHINSTANCE__@@@ATL@@@ATL@@QEAA@AEBQEAUHINSTANCE__@@@Z 000000018005af84 f i atls:atlbase.obj
 0001:00059f90       ??0_ATL_BASE_MODULE70@ATL@@QEAA@XZ 000000018005af90 f i atls:atlbase.obj
 0001:00059fbc       ??1?$CComCritSecLock@VCComCriticalSection@ATL@@@ATL@@QEAA@XZ 000000018005afbc f i atls:atlbase.obj
 0001:00059fe0       ??1?$CSimpleArray@PEAUHINSTANCE__@@V?$CSimpleArrayEqualHelper@PEAUHINSTANCE__@@@ATL@@@ATL@@QEAA@XZ 000000018005afe0 f i atls:atlbase.obj
 0001:0005a008       ??1CAtlBaseModule@ATL@@QEAA@XZ 000000018005b008 f   atls:atlbase.obj
 0001:0005a03c       ??1_ATL_BASE_MODULE70@ATL@@QEAA@XZ 000000018005b03c f i atls:atlbase.obj
 0001:0005a068       ??A?$CSimpleArray@PEAUHINSTANCE__@@V?$CSimpleArrayEqualHelper@PEAUHINSTANCE__@@@ATL@@@ATL@@QEAAAEAPEAUHINSTANCE__@@H@Z 000000018005b068 f i atls:atlbase.obj
 0001:0005a09c       ?Add@?$CSimpleArray@PEAUHINSTANCE__@@V?$CSimpleArrayEqualHelper@PEAUHINSTANCE__@@@ATL@@@ATL@@QEAAHAEBQEAUHINSTANCE__@@@Z 000000018005b09c f i atls:atlbase.obj
 0001:0005a140       ?AddResourceInstance@CAtlBaseModule@ATL@@QEAA_NPEAUHINSTANCE__@@@Z 000000018005b140 f   atls:atlbase.obj
 0001:0005a188       ?AtlCrtErrorCheck@ATL@@YAHH@Z 000000018005b188 f i atls:atlbase.obj
 0001:0005a1cc       ?GetHInstanceAt@CAtlBaseModule@ATL@@QEAAPEAUHINSTANCE__@@H@Z 000000018005b1cc f   atls:atlbase.obj
 0001:0005a248       ?GetSize@?$CSimpleArray@PEAUHINSTANCE__@@V?$CSimpleArrayEqualHelper@PEAUHINSTANCE__@@@ATL@@@ATL@@QEBAHXZ 000000018005b248 f i atls:atlbase.obj
 0001:0005a24c       ?InternalSetAtIndex@?$CSimpleArray@PEAUHINSTANCE__@@V?$CSimpleArrayEqualHelper@PEAUHINSTANCE__@@@ATL@@@ATL@@QEAAXHAEBQEAUHINSTANCE__@@@Z 000000018005b24c f i atls:atlbase.obj
 0001:0005a264       ?Lock@?$CComCritSecLock@VCComCriticalSection@ATL@@@ATL@@QEAAJXZ 000000018005b264 f i atls:atlbase.obj
 0001:0005a284       ?Lock@CComCriticalSection@ATL@@QEAAJXZ 000000018005b284 f i atls:atlbase.obj
 0001:0005a298       ?RemoveAll@?$CSimpleArray@PEAUHINSTANCE__@@V?$CSimpleArrayEqualHelper@PEAUHINSTANCE__@@@ATL@@@ATL@@QEAAXXZ 000000018005b298 f i atls:atlbase.obj
 0001:0005a2c0       ?RemoveAt@?$CSimpleArray@PEAUHINSTANCE__@@V?$CSimpleArrayEqualHelper@PEAUHINSTANCE__@@@ATL@@@ATL@@QEAAHH@Z 000000018005b2c0 f i atls:atlbase.obj
 0001:0005a354       ?RemoveResourceInstance@CAtlBaseModule@ATL@@QEAA_NPEAUHINSTANCE__@@@Z 000000018005b354 f   atls:atlbase.obj
 0001:0005a3e0       ?Unlock@?$CComCritSecLock@VCComCriticalSection@ATL@@@ATL@@QEAAXXZ 000000018005b3e0 f i atls:atlbase.obj
 0001:0005a3fc       ?Unlock@CComCriticalSection@ATL@@QEAAJXZ 000000018005b3fc f i atls:atlbase.obj
 0001:0005a410       ?memmove_s@Checked@ATL@@YAXPEAX_KPEBX1@Z 000000018005b410 f i atls:atlbase.obj
 0001:0005a458       ??0?$CTraceCategoryEx@$00$0A@@ATL@@QEAA@PEB_W@Z 000000018005b458 f i atls:stdafx.obj
 0001:0005a45c       ??0?$CTraceCategoryEx@$01$0A@@ATL@@QEAA@PEB_W@Z 000000018005b45c f i atls:stdafx.obj
 0001:0005a460       ??0?$CTraceCategoryEx@$03$0A@@ATL@@QEAA@PEB_W@Z 000000018005b460 f i atls:stdafx.obj
 0001:0005a464       ??0?$CTraceCategoryEx@$07$0A@@ATL@@QEAA@PEB_W@Z 000000018005b464 f i atls:stdafx.obj
 0001:0005a468       ??0?$CTraceCategoryEx@$0BA@$0A@@ATL@@QEAA@PEB_W@Z 000000018005b468 f i atls:stdafx.obj
 0001:0005a46c       ??0?$CTraceCategoryEx@$0BAA@$0A@@ATL@@QEAA@PEB_W@Z 000000018005b46c f i atls:stdafx.obj
 0001:0005a470       ??0?$CTraceCategoryEx@$0BAAA@$0A@@ATL@@QEAA@PEB_W@Z 000000018005b470 f i atls:stdafx.obj
 0001:0005a474       ??0?$CTraceCategoryEx@$0BAAAA@$0A@@ATL@@QEAA@PEB_W@Z 000000018005b474 f i atls:stdafx.obj
 0001:0005a478       ??0?$CTraceCategoryEx@$0BAAAAA@$0A@@ATL@@QEAA@PEB_W@Z 000000018005b478 f i atls:stdafx.obj
 0001:0005a47c       ??0?$CTraceCategoryEx@$0CA@$0A@@ATL@@QEAA@PEB_W@Z 000000018005b47c f i atls:stdafx.obj
 0001:0005a480       ??0?$CTraceCategoryEx@$0CAA@$0A@@ATL@@QEAA@PEB_W@Z 000000018005b480 f i atls:stdafx.obj
 0001:0005a484       ??0?$CTraceCategoryEx@$0CAAA@$0A@@ATL@@QEAA@PEB_W@Z 000000018005b484 f i atls:stdafx.obj
 0001:0005a488       ??0?$CTraceCategoryEx@$0CAAAA@$0A@@ATL@@QEAA@PEB_W@Z 000000018005b488 f i atls:stdafx.obj
 0001:0005a48c       ??0?$CTraceCategoryEx@$0CAAAAA@$0A@@ATL@@QEAA@PEB_W@Z 000000018005b48c f i atls:stdafx.obj
 0001:0005a490       ??0?$CTraceCategoryEx@$0EA@$0A@@ATL@@QEAA@PEB_W@Z 000000018005b490 f i atls:stdafx.obj
 0001:0005a494       ??0?$CTraceCategoryEx@$0EAA@$0A@@ATL@@QEAA@PEB_W@Z 000000018005b494 f i atls:stdafx.obj
 0001:0005a498       ??0?$CTraceCategoryEx@$0EAAA@$0A@@ATL@@QEAA@PEB_W@Z 000000018005b498 f i atls:stdafx.obj
 0001:0005a49c       ??0?$CTraceCategoryEx@$0EAAAA@$0A@@ATL@@QEAA@PEB_W@Z 000000018005b49c f i atls:stdafx.obj
 0001:0005a4a0       ??0?$CTraceCategoryEx@$0EAAAAA@$0A@@ATL@@QEAA@PEB_W@Z 000000018005b4a0 f i atls:stdafx.obj
 0001:0005a4a4       ??0?$CTraceCategoryEx@$0IA@$0A@@ATL@@QEAA@PEB_W@Z 000000018005b4a4 f i atls:stdafx.obj
 0001:0005a4a8       ??0?$CTraceCategoryEx@$0IAA@$0A@@ATL@@QEAA@PEB_W@Z 000000018005b4a8 f i atls:stdafx.obj
 0001:0005a4ac       ??0?$CTraceCategoryEx@$0IAAA@$0A@@ATL@@QEAA@PEB_W@Z 000000018005b4ac f i atls:stdafx.obj
 0001:0005a4b0       ??0?$CTraceCategoryEx@$0IAAAA@$0A@@ATL@@QEAA@PEB_W@Z 000000018005b4b0 f i atls:stdafx.obj
 0001:0005a4b4       ??_I@YAXPEAX_KHP6AX0@Z@Z   000000018005b4b4 f i atls:stdafx.obj
 0001:0005a4fe       SystemTimeToVariantTime    000000018005b4fe f   oleaut32:OLEAUT32.dll
 0001:0005a504       VariantTimeToSystemTime    000000018005b504 f   oleaut32:OLEAUT32.dll
 0001:0005a50a       SysFreeString              000000018005b50a f   oleaut32:OLEAUT32.dll
 0001:0005a510       ??0_Lockit@std@@QEAA@H@Z   000000018005b510 f   msvcprtd:MSVCP120D.dll
 0001:0005a516       ??1_Lockit@std@@QEAA@XZ    000000018005b516 f   msvcprtd:MSVCP120D.dll
 0001:0005a51c       ?_Debug_message@std@@YAXPEB_W0I@Z 000000018005b51c f   msvcprtd:MSVCP120D.dll
 0001:0005a522       ??0_Container_base12@std@@QEAA@XZ 000000018005b522 f   msvcprtd:MSVCP120D.dll
 0001:0005a528       ??1_Container_base12@std@@QEAA@XZ 000000018005b528 f   msvcprtd:MSVCP120D.dll
 0001:0005a52e       ?_Getpfirst@_Container_base12@std@@QEBAPEAPEAU_Iterator_base12@2@XZ 000000018005b52e f   msvcprtd:MSVCP120D.dll
 0001:0005a534       ?_Orphan_all@_Container_base12@std@@QEAAXXZ 000000018005b534 f   msvcprtd:MSVCP120D.dll
 0001:0005a53a       ?_Xbad_alloc@std@@YAXXZ    000000018005b53a f   msvcprtd:MSVCP120D.dll
 0001:0005a540       ?_Xlength_error@std@@YAXPEBD@Z 000000018005b540 f   msvcprtd:MSVCP120D.dll
 0001:0005a546       ?_Xout_of_range@std@@YAXPEBD@Z 000000018005b546 f   msvcprtd:MSVCP120D.dll
 0001:0005a54c       ??0id@locale@std@@QEAA@_K@Z 000000018005b54c f   msvcprtd:MSVCP120D.dll
 0001:0005a552       ?_Syserror_map@std@@YAPEBDH@Z 000000018005b552 f   msvcprtd:MSVCP120D.dll
 0001:0005a558       ?_Winerror_map@std@@YAPEBDH@Z 000000018005b558 f   msvcprtd:MSVCP120D.dll
 0001:0005a55e       closesocket                000000018005b55e f   ws2_32:WS2_32.dll
 0001:0005a564       WSAStartup                 000000018005b564 f   ws2_32:WS2_32.dll
 0001:0005a56a       WSACleanup                 000000018005b56a f   ws2_32:WS2_32.dll
 0001:0005a570       htonl                      000000018005b570 f   ws2_32:WS2_32.dll
 0001:0005a576       inet_ntoa                  000000018005b576 f   ws2_32:WS2_32.dll
 0001:0005a57c       gethostbyaddr              000000018005b57c f   ws2_32:WS2_32.dll
 0001:0005a582       gethostbyname              000000018005b582 f   ws2_32:WS2_32.dll
 0001:0005a588       shutdown                   000000018005b588 f   ws2_32:WS2_32.dll
 0001:0005a58e       WSAGetLastError            000000018005b58e f   ws2_32:WS2_32.dll
 0001:0005a594       WSARecv                    000000018005b594 f   ws2_32:WS2_32.dll
 0001:0005a59a       WSASend                    000000018005b59a f   ws2_32:WS2_32.dll
 0001:0005a5a0       bind                       000000018005b5a0 f   ws2_32:WS2_32.dll
 0001:0005a5a6       htons                      000000018005b5a6 f   ws2_32:WS2_32.dll
 0001:0005a5ac       listen                     000000018005b5ac f   ws2_32:WS2_32.dll
 0001:0005a5b2       ntohs                      000000018005b5b2 f   ws2_32:WS2_32.dll
 0001:0005a5b8       setsockopt                 000000018005b5b8 f   ws2_32:WS2_32.dll
 0001:0005a5be       WSACloseEvent              000000018005b5be f   ws2_32:WS2_32.dll
 0001:0005a5c4       WSAEventSelect             000000018005b5c4 f   ws2_32:WS2_32.dll
 0001:0005a5ca       WSAIoctl                   000000018005b5ca f   ws2_32:WS2_32.dll
 0001:0005a5d0       WSASocketA                 000000018005b5d0 f   ws2_32:WS2_32.dll
 0001:0005a5d6       ?GetInstance@CLogMgr@@SAAEAVCLogMgrBase@@XZ 000000018005b5d6 f   LogMgr64:LogMgr64.dll
 0001:0005a5dc       ?AfxAssertFailedLine@@YAHPEBDH@Z 000000018005b5dc f   mfc120d:mfc120d.dll
 0001:0005a5e2       ??2CObject@@SAPEAX_KPEBDH@Z 000000018005b5e2 f   mfc120d:mfc120d.dll
 0001:0005a5e8       ??3CObject@@SAXPEAXPEBDH@Z 000000018005b5e8 f   mfc120d:mfc120d.dll
 0001:0005a5ee       ?IsKindOf@CObject@@QEBAHPEBUCRuntimeClass@@@Z 000000018005b5ee f   mfc120d:mfc120d.dll
 0001:0005a5f4       ?Delete@CException@@QEAAXXZ 000000018005b5f4 f   mfc120d:mfc120d.dll
 0001:0005a5fa       ?GetThisClass@CMemoryException@@SAPEAUCRuntimeClass@@XZ 000000018005b5fa f   mfc120d:mfc120d.dll
 0001:0005a600       ??3CNoTrackObject@@SAXPEAX@Z 000000018005b600 f   mfc120d:mfc120d.dll
 0001:0005a606       ??0AFX_MODULE_STATE@@QEAA@HP6A_JPEAUHWND__@@I_K_J@ZKH@Z 000000018005b606 f   mfc120d:mfc120d.dll
 0001:0005a60c       ??1AFX_MODULE_STATE@@UEAA@XZ 000000018005b60c f   mfc120d:mfc120d.dll
 0001:0005a612       ?AfxSetModuleState@@YAPEAVAFX_MODULE_STATE@@PEAV1@@Z 000000018005b612 f   mfc120d:mfc120d.dll
 0001:0005a618       ?AfxGetModuleState@@YAPEAVAFX_MODULE_STATE@@XZ 000000018005b618 f   mfc120d:mfc120d.dll
 0001:0005a61e       ?AfxGetModuleThreadState@@YAPEAVAFX_MODULE_THREAD_STATE@@XZ 000000018005b61e f   mfc120d:mfc120d.dll
 0001:0005a624       ??0AFX_MAINTAIN_STATE2@@QEAA@PEAVAFX_MODULE_STATE@@@Z 000000018005b624 f   mfc120d:mfc120d.dll
 0001:0005a62a       ??1AFX_MAINTAIN_STATE2@@QEAA@XZ 000000018005b62a f   mfc120d:mfc120d.dll
 0001:0005a630       ?AfxWinInit@@YAHPEAUHINSTANCE__@@0PEADH@Z 000000018005b630 f   mfc120d:mfc120d.dll
 0001:0005a636       ?AfxWndProc@@YA_JPEAUHWND__@@I_K_J@Z 000000018005b636 f   mfc120d:mfc120d.dll
 0001:0005a63c       ?AfxTermThread@@YAXPEAUHINSTANCE__@@@Z 000000018005b63c f   mfc120d:mfc120d.dll
 0001:0005a642       ?AfxWinTerm@@YAXXZ         000000018005b642 f   mfc120d:mfc120d.dll
 0001:0005a648       ?AfxGetApp@@YAPEAVCWinApp@@XZ 000000018005b648 f   mfc120d:mfc120d.dll
 0001:0005a64e       ??0CDynLinkLibrary@@QEAA@AEAUAFX_EXTENSION_MODULE@@H@Z 000000018005b64e f   mfc120d:mfc120d.dll
 0001:0005a654       ?AfxInitExtensionModule@@YAHAEAUAFX_EXTENSION_MODULE@@PEAUHINSTANCE__@@@Z 000000018005b654 f   mfc120d:mfc120d.dll
 0001:0005a65a       ?AfxTermExtensionModule@@YAXAEAUAFX_EXTENSION_MODULE@@H@Z 000000018005b65a f   mfc120d:mfc120d.dll
 0001:0005a660       ?AfxCoreInitModule@@YAXXZ  000000018005b660 f   mfc120d:mfc120d.dll
 0001:0005a666       ?AfxLockTempMaps@@YAXXZ    000000018005b666 f   mfc120d:mfc120d.dll
 0001:0005a66c       ?AfxUnlockTempMaps@@YAHH@Z 000000018005b66c f   mfc120d:mfc120d.dll
 0001:0005a680       _RawDllMainProxy           000000018005b680 f   mfcs120d:rawdllmainproxy.obj
 0001:0005a92e       _recalloc                  000000018005b92e f   msvcrtd:MSVCR120D.dll
 0001:0005a934       memmove_s                  000000018005b934 f   msvcrtd:MSVCR120D.dll
 0001:0005a93a       _itoa                      000000018005b93a f   msvcrtd:MSVCR120D.dll
 0001:0005a940       _ltoa                      000000018005b940 f   msvcrtd:MSVCR120D.dll
 0001:0005a946       _strnicmp                  000000018005b946 f   msvcrtd:MSVCR120D.dll
 0001:0005a94c       OutputDebugStringW         000000018005b94c f   kernel32:KERNEL32.dll
 0001:0005a952       MessageBoxA                000000018005b952 f   user32:USER32.dll
 0001:000650a0       ??__FstrHeap@?1??GetInstance@CAtlStringMgr@ATL@@SAPEAUIAtlStringMgr@2@XZ@YAXXZ 00000001800660a0 f i Adapter.obj
 0001:000650d0       ??__FstrMgr@?1??GetInstance@CAtlStringMgr@ATL@@SAPEAUIAtlStringMgr@2@XZ@YAXXZ 00000001800660d0 f i Adapter.obj
 0002:00000000       __xc_a                     0000000180068000     msvcrtd:cinitexe.obj
 0002:000006c0       __xc_z                     00000001800686c0     msvcrtd:cinitexe.obj
 0002:000007d0       __xi_a                     00000001800687d0     msvcrtd:cinitexe.obj
 0002:00000b00       __xi_z                     0000000180068b00     msvcrtd:cinitexe.obj
 0002:00000c48       ?value@?$integral_constant@_K$0A@@std@@2_KB 0000000180068c48     Adapter.obj
 0002:000035c8       _GUID_00000146_0000_0000_c000_000000000046 000000018006b5c8     Adapter.obj
 0002:000035db       ?value@?$integral_constant@_N$0A@@std@@2_NB 000000018006b5db     Adapter.obj
 0002:000035dc       ?value@?$integral_constant@_N$00@std@@2_NB 000000018006b5dc     Adapter.obj
 0002:000035e0       ?digits@?$numeric_limits@M@std@@2HB 000000018006b5e0     Adapter.obj
 0002:000035e8       IID_IDocHostUIHandlerDispatch 000000018006b5e8     Adapter.obj
 0002:000035fc       ?digits10@?$numeric_limits@M@std@@2HB 000000018006b5fc     Adapter.obj
 0002:00003600       ?max_digits10@?$numeric_limits@M@std@@2HB 000000018006b600     Adapter.obj
 0002:00003604       ?max_exponent@?$numeric_limits@M@std@@2HB 000000018006b604     Adapter.obj
 0002:00003608       ?max_exponent10@?$numeric_limits@M@std@@2HB 000000018006b608     Adapter.obj
 0002:0000360c       ?min_exponent@?$numeric_limits@M@std@@2HB 000000018006b60c     Adapter.obj
 0002:00003610       ?min_exponent10@?$numeric_limits@M@std@@2HB 000000018006b610     Adapter.obj
 0002:00003618       LIBID_ATLLib               000000018006b618     Adapter.obj
 0002:0000362c       ?digits@?$numeric_limits@N@std@@2HB 000000018006b62c     Adapter.obj
 0002:00003630       ?digits10@?$numeric_limits@N@std@@2HB 000000018006b630     Adapter.obj
 0002:00003634       ?max_digits10@?$numeric_limits@N@std@@2HB 000000018006b634     Adapter.obj
 0002:00003638       ?max_exponent@?$numeric_limits@N@std@@2HB 000000018006b638     Adapter.obj
 0002:0000363c       ?max_exponent10@?$numeric_limits@N@std@@2HB 000000018006b63c     Adapter.obj
 0002:00003640       ?min_exponent@?$numeric_limits@N@std@@2HB 000000018006b640     Adapter.obj
 0002:00003644       ?min_exponent10@?$numeric_limits@N@std@@2HB 000000018006b644     Adapter.obj
 0002:00003648       ?digits@?$numeric_limits@O@std@@2HB 000000018006b648     Adapter.obj
 0002:0000364c       ?digits10@?$numeric_limits@O@std@@2HB 000000018006b64c     Adapter.obj
 0002:00003650       ?max_digits10@?$numeric_limits@O@std@@2HB 000000018006b650     Adapter.obj
 0002:00003654       ?max_exponent@?$numeric_limits@O@std@@2HB 000000018006b654     Adapter.obj
 0002:00003658       ?max_exponent10@?$numeric_limits@O@std@@2HB 000000018006b658     Adapter.obj
 0002:00003660       ?Millisecond@CFileTime@ATL@@2_KB 000000018006b660     Adapter.obj
 0002:0000366c       ?min_exponent@?$numeric_limits@O@std@@2HB 000000018006b66c     Adapter.obj
 0002:00003670       ?Second@CFileTime@ATL@@2_KB 000000018006b670     Adapter.obj
 0002:0000367c       ?min_exponent10@?$numeric_limits@O@std@@2HB 000000018006b67c     Adapter.obj
 0002:00003680       ?Minute@CFileTime@ATL@@2_KB 000000018006b680     Adapter.obj
 0002:00003690       ?Hour@CFileTime@ATL@@2_KB  000000018006b690     Adapter.obj
 0002:000036a0       ?Day@CFileTime@ATL@@2_KB   000000018006b6a0     Adapter.obj
 0002:000036b0       ?Week@CFileTime@ATL@@2_KB  000000018006b6b0     Adapter.obj
 0002:000036c0       ?szInvalidDateTime@ATL@@3QEBDEB 000000018006b6c0     Adapter.obj
 0002:000036d0       ?szInvalidDateTimeSpan@ATL@@3QEBDEB 000000018006b6d0     Adapter.obj
 0002:000036dc       ?collate@?$_Locbase@H@std@@2HB 000000018006b6dc     Adapter.obj
 0002:000036e0       ?ctype@?$_Locbase@H@std@@2HB 000000018006b6e0     Adapter.obj
 0002:000036e4       ?monetary@?$_Locbase@H@std@@2HB 000000018006b6e4     Adapter.obj
 0002:000036e8       ?numeric@?$_Locbase@H@std@@2HB 000000018006b6e8     Adapter.obj
 0002:000036ec       ?time@?$_Locbase@H@std@@2HB 000000018006b6ec     Adapter.obj
 0002:000036f0       ?messages@?$_Locbase@H@std@@2HB 000000018006b6f0     Adapter.obj
 0002:000036f4       ?all@?$_Locbase@H@std@@2HB 000000018006b6f4     Adapter.obj
 0002:000036f8       ?none@?$_Locbase@H@std@@2HB 000000018006b6f8     Adapter.obj
 0002:00003700       IID_IAxWinHostWindow       000000018006b700     Adapter.obj
 0002:00003714       ?skipws@?$_Iosb@H@std@@2W4_Fmtflags@12@B 000000018006b714     Adapter.obj
 0002:00003718       ?VT@?$CVarTypeInfo@D@ATL@@2GB 000000018006b718     Adapter.obj
 0002:0000371c       ?unitbuf@?$_Iosb@H@std@@2W4_Fmtflags@12@B 000000018006b71c     Adapter.obj
 0002:00003720       ?pmField@?$CVarTypeInfo@D@ATL@@2QEQtagVARIANT@@DEQ3@ 000000018006b720     Adapter.obj
 0002:00003724       ?uppercase@?$_Iosb@H@std@@2W4_Fmtflags@12@B 000000018006b724     Adapter.obj
 0002:00003728       ?showbase@?$_Iosb@H@std@@2W4_Fmtflags@12@B 000000018006b728     Adapter.obj
 0002:00003730       _GUID_b196b284_bab4_101a_b69c_00aa00341d07 000000018006b730     Adapter.obj
 0002:00003744       ?showpoint@?$_Iosb@H@std@@2W4_Fmtflags@12@B 000000018006b744     Adapter.obj
 0002:00003748       ?showpos@?$_Iosb@H@std@@2W4_Fmtflags@12@B 000000018006b748     Adapter.obj
 0002:0000374c       ?VT@?$CVarTypeInfo@E@ATL@@2GB 000000018006b74c     Adapter.obj
 0002:00003750       ?pmField@?$CVarTypeInfo@E@ATL@@2QEQtagVARIANT@@EEQ3@ 000000018006b750     Adapter.obj
 0002:00003754       ?left@?$_Iosb@H@std@@2W4_Fmtflags@12@B 000000018006b754     Adapter.obj
 0002:00003758       ?right@?$_Iosb@H@std@@2W4_Fmtflags@12@B 000000018006b758     Adapter.obj
 0002:0000375c       ?internal@?$_Iosb@H@std@@2W4_Fmtflags@12@B 000000018006b75c     Adapter.obj
 0002:00003760       ?dec@?$_Iosb@H@std@@2W4_Fmtflags@12@B 000000018006b760     Adapter.obj
 0002:00003764       ?VT@?$CVarTypeInfo@PEAD@ATL@@2GB 000000018006b764     Adapter.obj
 0002:00003766       ?c_bIsMFCDLLTraits@?$_MFCDLLTraitsCheck@DV?$StrTraitATL@DV?$ChTraitsCRT@D@ATL@@@ATL@@@_CSTRING_IMPL_@ATL@@2_NB 000000018006b766     Adapter.obj
 0002:00003768       ?oct@?$_Iosb@H@std@@2W4_Fmtflags@12@B 000000018006b768     Adapter.obj
 0002:00003770       ?pmField@?$CVarTypeInfo@PEAD@ATL@@2QEQtagVARIANT@@PEADEQ3@ 000000018006b770     Adapter.obj
 0002:00003774       ?c_bIsMFCDLLTraits@?$_MFCDLLTraitsCheck@DV?$StrTraitMFC_DLL@DV?$ChTraitsCRT@D@ATL@@@@@_CSTRING_IMPL_@ATL@@2_NB 000000018006b774     Adapter.obj
 0002:00003778       ?hex@?$_Iosb@H@std@@2W4_Fmtflags@12@B 000000018006b778     Adapter.obj
 0002:0000377c       ?scientific@?$_Iosb@H@std@@2W4_Fmtflags@12@B 000000018006b77c     Adapter.obj
 0002:00003780       ?fixed@?$_Iosb@H@std@@2W4_Fmtflags@12@B 000000018006b780     Adapter.obj
 0002:00003784       ?VT@?$CVarTypeInfo@PEAE@ATL@@2GB 000000018006b784     Adapter.obj
 0002:00003788       ?hexfloat@?$_Iosb@H@std@@2W4_Fmtflags@12@B 000000018006b788     Adapter.obj
 0002:00003790       ?pmField@?$CVarTypeInfo@PEAE@ATL@@2QEQtagVARIANT@@PEAEEQ3@ 000000018006b790     Adapter.obj
 0002:00003794       ?boolalpha@?$_Iosb@H@std@@2W4_Fmtflags@12@B 000000018006b794     Adapter.obj
 0002:00003798       ?_Stdio@?$_Iosb@H@std@@2W4_Fmtflags@12@B 000000018006b798     Adapter.obj
 0002:0000379c       ?adjustfield@?$_Iosb@H@std@@2W4_Fmtflags@12@B 000000018006b79c     Adapter.obj
 0002:000037a0       ?basefield@?$_Iosb@H@std@@2W4_Fmtflags@12@B 000000018006b7a0     Adapter.obj
 0002:000037a4       ?VT@?$CVarTypeInfo@F@ATL@@2GB 000000018006b7a4     Adapter.obj
 0002:000037a8       ?pmField@?$CVarTypeInfo@F@ATL@@2QEQtagVARIANT@@FEQ3@ 000000018006b7a8     Adapter.obj
 0002:000037ac       ?floatfield@?$_Iosb@H@std@@2W4_Fmtflags@12@B 000000018006b7ac     Adapter.obj
 0002:000037b0       _GUID_00000109_0000_0000_c000_000000000046 000000018006b7b0     Adapter.obj
 0002:000037c4       ?goodbit@?$_Iosb@H@std@@2W4_Iostate@12@B 000000018006b7c4     Adapter.obj
 0002:000037c8       ?eofbit@?$_Iosb@H@std@@2W4_Iostate@12@B 000000018006b7c8     Adapter.obj
 0002:000037d0       _GUID_7fd52380_4e07_101b_ae2d_08002b2ec713 000000018006b7d0     Adapter.obj
 0002:000037e4       ?VT@?$CVarTypeInfo@PEAF@ATL@@2GB 000000018006b7e4     Adapter.obj
 0002:000037e8       ?failbit@?$_Iosb@H@std@@2W4_Iostate@12@B 000000018006b7e8     Adapter.obj
 0002:000037f0       ?pmField@?$CVarTypeInfo@PEAF@ATL@@2QEQtagVARIANT@@PEAFEQ3@ 000000018006b7f0     Adapter.obj
 0002:000037f4       ?badbit@?$_Iosb@H@std@@2W4_Iostate@12@B 000000018006b7f4     Adapter.obj
 0002:000037f8       IID_IAxWinHostWindowLic    000000018006b7f8     Adapter.obj
 0002:0000380c       ?_Hardfail@?$_Iosb@H@std@@2W4_Iostate@12@B 000000018006b80c     Adapter.obj
 0002:00003810       ?in@?$_Iosb@H@std@@2W4_Openmode@12@B 000000018006b810     Adapter.obj
 0002:00003814       ?VT@?$CVarTypeInfo@G@ATL@@2GB 000000018006b814     Adapter.obj
 0002:00003818       ?out@?$_Iosb@H@std@@2W4_Openmode@12@B 000000018006b818     Adapter.obj
 0002:00003820       ?pmField@?$CVarTypeInfo@G@ATL@@2QEQtagVARIANT@@GEQ3@ 000000018006b820     Adapter.obj
 0002:00003824       ?ate@?$_Iosb@H@std@@2W4_Openmode@12@B 000000018006b824     Adapter.obj
 0002:00003828       ?app@?$_Iosb@H@std@@2W4_Openmode@12@B 000000018006b828     Adapter.obj
 0002:0000382c       ?trunc@?$_Iosb@H@std@@2W4_Openmode@12@B 000000018006b82c     Adapter.obj
 0002:00003830       ?VT@?$CVarTypeInfo@PEAG@ATL@@2GB 000000018006b830     Adapter.obj
 0002:00003834       ?_Nocreate@?$_Iosb@H@std@@2W4_Openmode@12@B 000000018006b834     Adapter.obj
 0002:00003838       ?pmField@?$CVarTypeInfo@PEAG@ATL@@2QEQtagVARIANT@@PEAGEQ3@ 000000018006b838     Adapter.obj
 0002:0000383c       ?_Noreplace@?$_Iosb@H@std@@2W4_Openmode@12@B 000000018006b83c     Adapter.obj
 0002:00003840       ?binary@?$_Iosb@H@std@@2W4_Openmode@12@B 000000018006b840     Adapter.obj
 0002:00003844       ?beg@?$_Iosb@H@std@@2W4_Seekdir@12@B 000000018006b844     Adapter.obj
 0002:00003848       ?VT@?$CVarTypeInfo@H@ATL@@2GB 000000018006b848     Adapter.obj
 0002:0000384c       ?cur@?$_Iosb@H@std@@2W4_Seekdir@12@B 000000018006b84c     Adapter.obj
 0002:00003850       ?pmField@?$CVarTypeInfo@H@ATL@@2QEQtagVARIANT@@HEQ3@ 000000018006b850     Adapter.obj
 0002:00003854       ?end@?$_Iosb@H@std@@2W4_Seekdir@12@B 000000018006b854     Adapter.obj
 0002:00003858       ?has_denorm@_Num_base@std@@2W4float_denorm_style@2@B 000000018006b858     Adapter.obj
 0002:0000385c       ?generic@CArchiveException@@2HB 000000018006b85c     Adapter.obj
 0002:00003860       ?has_denorm_loss@_Num_base@std@@2_NB 000000018006b860     Adapter.obj
 0002:00003861       ?has_infinity@_Num_base@std@@2_NB 000000018006b861     Adapter.obj
 0002:00003864       ?VT@?$CVarTypeInfo@PEAH@ATL@@2GB 000000018006b864     Adapter.obj
 0002:00003868       IID_IAxWinAmbientDispatch  000000018006b868     Adapter.obj
 0002:0000387b       ?has_quiet_NaN@_Num_base@std@@2_NB 000000018006b87b     Adapter.obj
 0002:00003880       ?pmField@?$CVarTypeInfo@PEAH@ATL@@2QEQtagVARIANT@@PEAHEQ3@ 000000018006b880     Adapter.obj
 0002:00003884       ?has_signaling_NaN@_Num_base@std@@2_NB 000000018006b884     Adapter.obj
 0002:00003885       ?is_bounded@_Num_base@std@@2_NB 000000018006b885     Adapter.obj
 0002:00003886       ?is_exact@_Num_base@std@@2_NB 000000018006b886     Adapter.obj
 0002:00003887       ?is_iec559@_Num_base@std@@2_NB 000000018006b887     Adapter.obj
 0002:00003888       ?VT@?$CVarTypeInfo@I@ATL@@2GB 000000018006b888     Adapter.obj
 0002:00003890       ?pmField@?$CVarTypeInfo@I@ATL@@2QEQtagVARIANT@@IEQ3@ 000000018006b890     Adapter.obj
 0002:00003894       ?is_integer@_Num_base@std@@2_NB 000000018006b894     Adapter.obj
 0002:00003895       ?is_modulo@_Num_base@std@@2_NB 000000018006b895     Adapter.obj
 0002:00003896       ?is_signed@_Num_base@std@@2_NB 000000018006b896     Adapter.obj
 0002:00003897       ?is_specialized@_Num_base@std@@2_NB 000000018006b897     Adapter.obj
 0002:00003898       ?VT@?$CVarTypeInfo@PEAI@ATL@@2GB 000000018006b898     Adapter.obj
 0002:0000389a       ?tinyness_before@_Num_base@std@@2_NB 000000018006b89a     Adapter.obj
 0002:000038a0       ?pmField@?$CVarTypeInfo@PEAI@ATL@@2QEQtagVARIANT@@PEAIEQ3@ 000000018006b8a0     Adapter.obj
 0002:000038a4       ?traps@_Num_base@std@@2_NB 000000018006b8a4     Adapter.obj
 0002:000038a8       ?round_style@_Num_base@std@@2W4float_round_style@2@B 000000018006b8a8     Adapter.obj
 0002:000038ac       ?digits@_Num_base@std@@2HB 000000018006b8ac     Adapter.obj
 0002:000038b0       ?VT@?$CVarTypeInfo@J@ATL@@2GB 000000018006b8b0     Adapter.obj
 0002:000038b4       ?generic@CFileException@@2HB 000000018006b8b4     Adapter.obj
 0002:000038b8       ?digits10@_Num_base@std@@2HB 000000018006b8b8     Adapter.obj
 0002:000038bc       ?maxDaysInSpan@COleDateTimeSpan@ATL@@0JB 000000018006b8bc     Adapter.obj
 0002:000038c0       ?pmField@?$CVarTypeInfo@J@ATL@@2QEQtagVARIANT@@JEQ3@ 000000018006b8c0     Adapter.obj
 0002:000038c4       ?max_digits10@_Num_base@std@@2HB 000000018006b8c4     Adapter.obj
 0002:000038c8       ?max_exponent@_Num_base@std@@2HB 000000018006b8c8     Adapter.obj
 0002:000038cc       ?max_exponent10@_Num_base@std@@2HB 000000018006b8cc     Adapter.obj
 0002:000038d0       ?min_exponent@_Num_base@std@@2HB 000000018006b8d0     Adapter.obj
 0002:000038d4       ?VT@?$CVarTypeInfo@PEAJ@ATL@@2GB 000000018006b8d4     Adapter.obj
 0002:000038d8       ?pmField@?$CVarTypeInfo@PEAJ@ATL@@2QEQtagVARIANT@@PEAJEQ3@ 000000018006b8d8     Adapter.obj
 0002:000038dc       ?min_exponent10@_Num_base@std@@2HB 000000018006b8dc     Adapter.obj
 0002:000038e0       ?radix@_Num_base@std@@2HB  000000018006b8e0     Adapter.obj
 0002:000038e4       ?VT@?$CVarTypeInfo@K@ATL@@2GB 000000018006b8e4     Adapter.obj
 0002:000038e8       ?pmField@?$CVarTypeInfo@K@ATL@@2QEQtagVARIANT@@KEQ3@ 000000018006b8e8     Adapter.obj
 0002:000038ec       ?VT@?$CVarTypeInfo@PEAK@ATL@@2GB 000000018006b8ec     Adapter.obj
 0002:000038f0       ?pmField@?$CVarTypeInfo@PEAK@ATL@@2QEQtagVARIANT@@PEAKEQ3@ 000000018006b8f0     Adapter.obj
 0002:000038f4       ?VT@?$CVarTypeInfo@_J@ATL@@2GB 000000018006b8f4     Adapter.obj
 0002:000038f6       ?is_bounded@_Num_int_base@std@@2_NB 000000018006b8f6     Adapter.obj
 0002:000038f8       ?pmField@?$CVarTypeInfo@_J@ATL@@2QEQtagVARIANT@@_JEQ3@ 000000018006b8f8     Adapter.obj
 0002:000038fc       ?is_exact@_Num_int_base@std@@2_NB 000000018006b8fc     Adapter.obj
 0002:000038fd       ?is_integer@_Num_int_base@std@@2_NB 000000018006b8fd     Adapter.obj
 0002:000038fe       ?is_modulo@_Num_int_base@std@@2_NB 000000018006b8fe     Adapter.obj
 0002:00003900       ?OLE_DATETIME_HALFSECOND@COleDateTimeSpan@ATL@@2NB 000000018006b900     Adapter.obj
 0002:00003909       ?is_specialized@_Num_int_base@std@@2_NB 000000018006b909     Adapter.obj
 0002:0000390c       ?VT@?$CVarTypeInfo@PEA_J@ATL@@2GB 000000018006b90c     Adapter.obj
 0002:00003910       ?pmField@?$CVarTypeInfo@PEA_J@ATL@@2QEQtagVARIANT@@PEA_JEQ3@ 000000018006b910     Adapter.obj
 0002:00003918       _GUID_00000000_0000_0000_c000_000000000046 000000018006b918     Adapter.obj
 0002:0000392c       ?radix@_Num_int_base@std@@2HB 000000018006b92c     Adapter.obj
 0002:00003930       ?has_denorm@_Num_float_base@std@@2W4float_denorm_style@2@B 000000018006b930     Adapter.obj
 0002:00003934       ?VT@?$CVarTypeInfo@_K@ATL@@2GB 000000018006b934     Adapter.obj
 0002:00003938       ?pmField@?$CVarTypeInfo@_K@ATL@@2QEQtagVARIANT@@_KEQ3@ 000000018006b938     Adapter.obj
 0002:0000393c       ?has_denorm_loss@_Num_float_base@std@@2_NB 000000018006b93c     Adapter.obj
 0002:0000393d       ?has_infinity@_Num_float_base@std@@2_NB 000000018006b93d     Adapter.obj
 0002:00003940       _GUID_00020400_0000_0000_c000_000000000046 000000018006b940     Adapter.obj
 0002:00003953       ?has_quiet_NaN@_Num_float_base@std@@2_NB 000000018006b953     Adapter.obj
 0002:00003954       ?has_signaling_NaN@_Num_float_base@std@@2_NB 000000018006b954     Adapter.obj
 0002:00003958       ?VT@?$CVarTypeInfo@PEA_K@ATL@@2GB 000000018006b958     Adapter.obj
 0002:0000395a       ?is_bounded@_Num_float_base@std@@2_NB 000000018006b95a     Adapter.obj
 0002:00003960       ?pmField@?$CVarTypeInfo@PEA_K@ATL@@2QEQtagVARIANT@@PEA_KEQ3@ 000000018006b960     Adapter.obj
 0002:00003964       ?is_exact@_Num_float_base@std@@2_NB 000000018006b964     Adapter.obj
 0002:00003965       ?is_iec559@_Num_float_base@std@@2_NB 000000018006b965     Adapter.obj
 0002:00003966       ?is_integer@_Num_float_base@std@@2_NB 000000018006b966     Adapter.obj
 0002:00003968       ?VT@?$CVarTypeInfo@M@ATL@@2GB 000000018006b968     Adapter.obj
 0002:0000396a       ?is_modulo@_Num_float_base@std@@2_NB 000000018006b96a     Adapter.obj
 0002:00003970       ?pmField@?$CVarTypeInfo@M@ATL@@2QEQtagVARIANT@@MEQ3@ 000000018006b970     Adapter.obj
 0002:00003974       ?is_signed@_Num_float_base@std@@2_NB 000000018006b974     Adapter.obj
 0002:00003975       ?is_specialized@_Num_float_base@std@@2_NB 000000018006b975     Adapter.obj
 0002:00003978       _GUID_0002e012_0000_0000_c000_000000000046 000000018006b978     Adapter.obj
 0002:0000398b       ?tinyness_before@_Num_float_base@std@@2_NB 000000018006b98b     Adapter.obj
 0002:0000398c       ?traps@_Num_float_base@std@@2_NB 000000018006b98c     Adapter.obj
 0002:00003990       ?VT@?$CVarTypeInfo@PEAM@ATL@@2GB 000000018006b990     Adapter.obj
 0002:00003998       ?pmField@?$CVarTypeInfo@PEAM@ATL@@2QEQtagVARIANT@@PEAMEQ3@ 000000018006b998     Adapter.obj
 0002:0000399c       ?round_style@_Num_float_base@std@@2W4float_round_style@2@B 000000018006b99c     Adapter.obj
 0002:000039a0       ?radix@_Num_float_base@std@@2HB 000000018006b9a0     Adapter.obj
 0002:000039a4       ?VT@?$CVarTypeInfo@N@ATL@@2GB 000000018006b9a4     Adapter.obj
 0002:000039a8       ?pmField@?$CVarTypeInfo@N@ATL@@2QEQtagVARIANT@@NEQ3@ 000000018006b9a8     Adapter.obj
 0002:000039ac       ?VT@?$CVarTypeInfo@PEAN@ATL@@2GB 000000018006b9ac     Adapter.obj
 0002:000039ae       ?is_signed@?$numeric_limits@D@std@@2_NB 000000018006b9ae     Adapter.obj
 0002:000039b0       ?pmField@?$CVarTypeInfo@PEAN@ATL@@2QEQtagVARIANT@@PEANEQ3@ 000000018006b9b0     Adapter.obj
 0002:000039b4       ?digits@?$numeric_limits@D@std@@2HB 000000018006b9b4     Adapter.obj
 0002:000039b8       ?digits10@?$numeric_limits@D@std@@2HB 000000018006b9b8     Adapter.obj
 0002:000039bc       ?VT@?$CVarTypeInfo@PEAUtagVARIANT@@@ATL@@2GB 000000018006b9bc     Adapter.obj
 0002:000039be       ?chDirSep@ATL@@3DB         000000018006b9be     Adapter.obj
 0002:000039bf       ?chRightBracket@ATL@@3DB   000000018006b9bf     Adapter.obj
 0002:000039c0       ?chLeftBracket@ATL@@3DB    000000018006b9c0     Adapter.obj
 0002:000039c1       ?chQuote@ATL@@3DB          000000018006b9c1     Adapter.obj
 0002:000039c2       ?chEquals@ATL@@3DB         000000018006b9c2     Adapter.obj
 0002:000039c8       ?szStringVal@ATL@@3QEBDEB  000000018006b9c8     Adapter.obj
 0002:000039d4       ?VT@?$CVarTypeInfo@PEA_W@ATL@@2GB 000000018006b9d4     Adapter.obj
 0002:000039d8       ?pmField@?$CVarTypeInfo@PEA_W@ATL@@2QEQtagVARIANT@@PEA_WEQ3@ 000000018006b9d8     Adapter.obj
 0002:000039e0       ?multiszStringVal@ATL@@3QEBDEB 000000018006b9e0     Adapter.obj
 0002:000039f0       ?szDwordVal@ATL@@3QEBDEB   000000018006b9f0     Adapter.obj
 0002:00003a00       ?szBinaryVal@ATL@@3QEBDEB  000000018006ba00     Adapter.obj
 0002:00003a10       ?szValToken@ATL@@3QEBDEB   000000018006ba10     Adapter.obj
 0002:00003a20       ?szForceRemove@ATL@@3QEBDEB 000000018006ba20     Adapter.obj
 0002:00003a30       ?szNoRemove@ATL@@3QEBDEB   000000018006ba30     Adapter.obj
 0002:00003a3c       ?VT@?$CVarTypeInfo@PEAPEA_W@ATL@@2GB 000000018006ba3c     Adapter.obj
 0002:00003a3e       ?is_signed@?$numeric_limits@_W@std@@2_NB 000000018006ba3e     Adapter.obj
 0002:00003a40       ?szDelete@ATL@@3QEBDEB     000000018006ba40     Adapter.obj
 0002:00003a50       ?pmField@?$CVarTypeInfo@PEAPEA_W@ATL@@2QEQtagVARIANT@@PEAPEA_WEQ3@ 000000018006ba50     Adapter.obj
 0002:00003a54       ?digits@?$numeric_limits@_W@std@@2HB 000000018006ba54     Adapter.obj
 0002:00003a58       ?digits10@?$numeric_limits@_W@std@@2HB 000000018006ba58     Adapter.obj
 0002:00003a5c       ?VT@?$CVarTypeInfo@PEAUIUnknown@@@ATL@@2GB 000000018006ba5c     Adapter.obj
 0002:00003a60       ?pmField@?$CVarTypeInfo@PEAUIUnknown@@@ATL@@2QEQtagVARIANT@@PEAUIUnknown@@EQ3@ 000000018006ba60     Adapter.obj
 0002:00003a64       ?VT@?$CVarTypeInfo@PEAPEAUIUnknown@@@ATL@@2GB 000000018006ba64     Adapter.obj
 0002:00003a68       ?pmField@?$CVarTypeInfo@PEAPEAUIUnknown@@@ATL@@2QEQtagVARIANT@@PEAPEAUIUnknown@@EQ3@ 000000018006ba68     Adapter.obj
 0002:00003a6c       ?_Min@?$AtlLimits@H@ATL@@2HB 000000018006ba6c     Adapter.obj
 0002:00003a70       ?_Max@?$AtlLimits@H@ATL@@2HB 000000018006ba70     Adapter.obj
 0002:00003a74       ?VT@?$CVarTypeInfo@PEAUIDispatch@@@ATL@@2GB 000000018006ba74     Adapter.obj
 0002:00003a78       ?_Min@?$AtlLimits@I@ATL@@2IB 000000018006ba78     Adapter.obj
 0002:00003a7c       ?is_modulo@?$numeric_limits@_N@std@@2_NB 000000018006ba7c     Adapter.obj
 0002:00003a80       ?pmField@?$CVarTypeInfo@PEAUIDispatch@@@ATL@@2QEQtagVARIANT@@PEAUIDispatch@@EQ3@ 000000018006ba80     Adapter.obj
 0002:00003a84       ?_Max@?$AtlLimits@I@ATL@@2IB 000000018006ba84     Adapter.obj
 0002:00003a88       ?is_signed@?$numeric_limits@_N@std@@2_NB 000000018006ba88     Adapter.obj
 0002:00003a8c       ?digits@?$numeric_limits@_N@std@@2HB 000000018006ba8c     Adapter.obj
 0002:00003a90       ?digits10@?$numeric_limits@_N@std@@2HB 000000018006ba90     Adapter.obj
 0002:00003a94       ?_Min@?$AtlLimits@J@ATL@@2JB 000000018006ba94     Adapter.obj
 0002:00003a98       ?VT@?$CVarTypeInfo@PEAPEAUIDispatch@@@ATL@@2GB 000000018006ba98     Adapter.obj
 0002:00003a9c       ?_Max@?$AtlLimits@J@ATL@@2JB 000000018006ba9c     Adapter.obj
 0002:00003aa0       ?pmField@?$CVarTypeInfo@PEAPEAUIDispatch@@@ATL@@2QEQtagVARIANT@@PEAPEAUIDispatch@@EQ3@ 000000018006baa0     Adapter.obj
 0002:00003aa4       ?_Min@?$AtlLimits@K@ATL@@2KB 000000018006baa4     Adapter.obj
 0002:00003aa8       ?VT@?$CVarTypeInfo@TtagCY@@@ATL@@2GB 000000018006baa8     Adapter.obj
 0002:00003aac       ?_Max@?$AtlLimits@K@ATL@@2KB 000000018006baac     Adapter.obj
 0002:00003ab0       ?pmField@?$CVarTypeInfo@TtagCY@@@ATL@@2QEQtagVARIANT@@TtagCY@@EQ3@ 000000018006bab0     Adapter.obj
 0002:00003ab8       IID_IAxWinAmbientDispatchEx 000000018006bab8     Adapter.obj
 0002:00003ad0       ?_Min@?$AtlLimits@_J@ATL@@2_JB 000000018006bad0     Adapter.obj
 0002:00003ae0       ?_Max@?$AtlLimits@_J@ATL@@2_JB 000000018006bae0     Adapter.obj
 0002:00003aec       ?VT@?$CVarTypeInfo@PEATtagCY@@@ATL@@2GB 000000018006baec     Adapter.obj
 0002:00003aee       ?is_signed@?$numeric_limits@C@std@@2_NB 000000018006baee     Adapter.obj
 0002:00003af0       ?pmField@?$CVarTypeInfo@PEATtagCY@@@ATL@@2QEQtagVARIANT@@PEATtagCY@@EQ3@ 000000018006baf0     Adapter.obj
 0002:00003af4       ?digits@?$numeric_limits@C@std@@2HB 000000018006baf4     Adapter.obj
 0002:00003af8       ?digits10@?$numeric_limits@C@std@@2HB 000000018006baf8     Adapter.obj
 0002:00003b00       ?_Min@?$AtlLimits@_K@ATL@@2_KB 000000018006bb00     Adapter.obj
 0002:00003b10       ?_Max@?$AtlLimits@_K@ATL@@2_KB 000000018006bb10     Adapter.obj
 0002:00003b20       IID_IInternalConnection    000000018006bb20     Adapter.obj
 0002:00003b33       ?c_bIsMFCDLLTraits@?$_MFCDLLTraitsCheck@_WV?$StrTraitATL@_WV?$ChTraitsCRT@_W@ATL@@@ATL@@@_CSTRING_IMPL_@ATL@@2_NB 000000018006bb33     Adapter.obj
 0002:00003b34       ?is_signed@?$numeric_limits@E@std@@2_NB 000000018006bb34     Adapter.obj
 0002:00003b38       ?digits@?$numeric_limits@E@std@@2HB 000000018006bb38     Adapter.obj
 0002:00003b3c       ?digits10@?$numeric_limits@E@std@@2HB 000000018006bb3c     Adapter.obj
 0002:00003b40       ?CLSID_WinFormsControl@@3U_GUID@@B 000000018006bb40     Adapter.obj
 0002:00003b53       ?is_signed@?$numeric_limits@F@std@@2_NB 000000018006bb53     Adapter.obj
 0002:00003b54       ?digits@?$numeric_limits@F@std@@2HB 000000018006bb54     Adapter.obj
 0002:00003b58       ?digits10@?$numeric_limits@F@std@@2HB 000000018006bb58     Adapter.obj
 0002:00003b60       ?value@?$integral_constant@_K$07@std@@2_KB 000000018006bb60     Adapter.obj
 0002:00003b69       ?is_signed@?$numeric_limits@G@std@@2_NB 000000018006bb69     Adapter.obj
 0002:00003b6c       ?digits@?$numeric_limits@G@std@@2HB 000000018006bb6c     Adapter.obj
 0002:00003b70       ?digits10@?$numeric_limits@G@std@@2HB 000000018006bb70     Adapter.obj
 0002:00003b74       ?MAX_VALUE@CRegParser@ATL@@1HB 000000018006bb74     Adapter.obj
 0002:00003b78       ?is_signed@?$numeric_limits@H@std@@2_NB 000000018006bb78     Adapter.obj
 0002:00003b7c       ?digits@?$numeric_limits@H@std@@2HB 000000018006bb7c     Adapter.obj
 0002:00003b80       ?digits10@?$numeric_limits@H@std@@2HB 000000018006bb80     Adapter.obj
 0002:00003b84       ?sc_redShift@ColorF@D2D1@@0IB 000000018006bb84     Adapter.obj
 0002:00003b88       ?sc_greenShift@ColorF@D2D1@@0IB 000000018006bb88     Adapter.obj
 0002:00003b8c       ?sc_blueShift@ColorF@D2D1@@0IB 000000018006bb8c     Adapter.obj
 0002:00003b90       ?sc_redMask@ColorF@D2D1@@0IB 000000018006bb90     Adapter.obj
 0002:00003b98       ?value@?$integral_constant@_K$03@std@@2_KB 000000018006bb98     Adapter.obj
 0002:00003ba4       ?sc_greenMask@ColorF@D2D1@@0IB 000000018006bba4     Adapter.obj
 0002:00003ba8       ?sc_blueMask@ColorF@D2D1@@0IB 000000018006bba8     Adapter.obj
 0002:00003bb0       _GUID_783321ed_78a3_4366_b574_6af607a64788 000000018006bbb0     Adapter.obj
 0002:00003bc3       ?c_bIsMFCDLLTraits@?$_MFCDLLTraitsCheck@_WV?$StrTraitMFC_DLL@_WV?$ChTraitsCRT@_W@ATL@@@@@_CSTRING_IMPL_@ATL@@2_NB 000000018006bbc3     Adapter.obj
 0002:00003bd0       ?rgszNeverDelete@CRegParser@ATL@@1QBQEBDB 000000018006bbd0     Adapter.obj
 0002:00003c44       ?cbNeverDelete@CRegParser@ATL@@1HB 000000018006bc44     Adapter.obj
 0002:00003c48       ?MAX_TYPE@CRegParser@ATL@@1HB 000000018006bc48     Adapter.obj
 0002:00003c4c       ?is_signed@?$numeric_limits@I@std@@2_NB 000000018006bc4c     Adapter.obj
 0002:00003c50       _GUID_6358b7ba_87d2_42d5_bf71_82e919dd5862 000000018006bc50     Adapter.obj
 0002:00003c64       ?digits@?$numeric_limits@I@std@@2HB 000000018006bc64     Adapter.obj
 0002:00003c68       ?digits10@?$numeric_limits@I@std@@2HB 000000018006bc68     Adapter.obj
 0002:00003c70       _GUID_bb3e1550_356e_44b0_99da_85ac6017865e 000000018006bc70     Adapter.obj
 0002:00003c88       CLSID_Registrar            000000018006bc88     Adapter.obj
 0002:00003ca0       _GUID_3d5c9008_ec7c_4364_9f8a_9af3c58cbae6 000000018006bca0     Adapter.obj
 0002:00003cb3       ?is_signed@?$numeric_limits@J@std@@2_NB 000000018006bcb3     Adapter.obj
 0002:00003cb8       ?value@?$integral_constant@_K$01@std@@2_KB 000000018006bcb8     Adapter.obj
 0002:00003cc4       ?digits@?$numeric_limits@J@std@@2HB 000000018006bcc4     Adapter.obj
 0002:00003cc8       ?digits10@?$numeric_limits@J@std@@2HB 000000018006bcc8     Adapter.obj
 0002:00003cd0       _GUID_274a7dea_d771_4095_abbd_8df7abd23ce3 000000018006bcd0     Adapter.obj
 0002:00003ce8       IID_IRegistrar             000000018006bce8     Adapter.obj
 0002:00003d00       _GUID_7815cbba_ddf7_478c_a46c_7b6c738b7978 000000018006bd00     Adapter.obj
 0002:00003d13       ?is_signed@?$numeric_limits@K@std@@2_NB 000000018006bd13     Adapter.obj
 0002:00003d14       ?digits@?$numeric_limits@K@std@@2HB 000000018006bd14     Adapter.obj
 0002:00003d18       ?digits10@?$numeric_limits@K@std@@2HB 000000018006bd18     Adapter.obj
 0002:00003d20       ?value@?$integral_constant@_K$00@std@@2_KB 000000018006bd20     Adapter.obj
 0002:00003d29       ?is_signed@?$numeric_limits@_J@std@@2_NB 000000018006bd29     Adapter.obj
 0002:00003d2c       ?digits@?$numeric_limits@_J@std@@2HB 000000018006bd2c     Adapter.obj
 0002:00003d30       ?digits10@?$numeric_limits@_J@std@@2HB 000000018006bd30     Adapter.obj
 0002:00003d38       ?value@?$_Maximum@$S@std@@2_KB 000000018006bd38     Adapter.obj
 0002:00003d48       _GUID_fc4801a3_2ba9_11cf_a229_00aa003d7352 000000018006bd48     Adapter.obj
 0002:00003d5b       ?is_signed@?$numeric_limits@_K@std@@2_NB 000000018006bd5b     Adapter.obj
 0002:00003d5c       ?digits@?$numeric_limits@_K@std@@2HB 000000018006bd5c     Adapter.obj
 0002:00003d60       ?digits10@?$numeric_limits@_K@std@@2HB 000000018006bd60     Adapter.obj
 0002:00004934       ??_C@_13COJANIEC@?$AA0?$AA?$AA@ 000000018006c934     Adapter.obj
 0002:00004938       ??_C@_15GANGMFKL@?$AA?$CF?$AAs?$AA?$AA@ 000000018006c938     Adapter.obj
 0002:00004940       ??_C@_1M@PLLAHAGD@?$AA?$CF?$AAs?$AA?5?$AA?9?$AA?5?$AA?$AA@ 000000018006c940     Adapter.obj
 0002:00004950       ??_C@_1M@PGKOAACE@?$AA?$CF?$AAu?$AA?5?$AA?9?$AA?5?$AA?$AA@ 000000018006c950     Adapter.obj
 0002:00004960       ??_C@_15MAOEGKJF@?$AA?$CF?$AAS?$AA?$AA@ 000000018006c960     Adapter.obj
 0002:00004970       ??_C@_1EO@EBPPKGOM@?$AAf?$AAa?$AAl?$AAs?$AAe?$AA?5?$AA?$CG?$AA?$CG?$AA?5?$AA?$CC?$AAT?$AAo?$AAo?$AA?5?$AAm?$AAa?$AAn?$AAy?$AA?5?$AAc?$AAa?$AAt?$AAe?$AAg?$AAo?$AAr?$AAi?$AAe?$AAs?$AA?5?$AAd?$AAe@ 000000018006c970     Adapter.obj
 0002:000049d0       ??_C@_1KC@IAGBIFAE@?$AAE?$AA?3?$AA?2?$AAP?$AAr?$AAo?$AAg?$AAr?$AAa?$AAm?$AA?5?$AAF?$AAi?$AAl?$AAe?$AAs?$AA?5?$AA?$CI?$AAx?$AA8?$AA6?$AA?$CJ?$AA?2?$AAM?$AAi?$AAc?$AAr?$AAo?$AAs?$AAo?$AAf?$AAt@ 000000018006c9d0     Adapter.obj
 0002:00004aa0       ??_C@_0FC@EPPNBNDO@E?3?2Program?5Files?5?$CIx86?$CJ?2Microsoft@ 000000018006caa0     Adapter.obj
 0002:00004b08       ??_C@_0BF@IAAKIJDJ@AtlThrow?3?5hr?5?$DN?50x?$CFx?6?$AA@ 000000018006cb08     Adapter.obj
 0002:00004b30       ??_C@_1KA@NEBDNFLF@?$AAE?$AA?3?$AA?2?$AAP?$AAr?$AAo?$AAg?$AAr?$AAa?$AAm?$AA?5?$AAF?$AAi?$AAl?$AAe?$AAs?$AA?5?$AA?$CI?$AAx?$AA8?$AA6?$AA?$CJ?$AA?2?$AAM?$AAi?$AAc?$AAr?$AAo?$AAs?$AAo?$AAf?$AAt@ 000000018006cb30     Adapter.obj
 0002:00004bf0       ??_C@_1BM@GBBOFEAE@?$AA_?$AA_?$AAa?$AAt?$AAl?$AA_?$AAc?$AAo?$AAn?$AAd?$AAV?$AAa?$AAl?$AA?$AA@ 000000018006cbf0     Adapter.obj
 0002:00004c20       ??_7CWin32Heap@ATL@@6B@    000000018006cc20     Adapter.obj
 0002:00004c58       ??_C@_1BG@CLPBKBHG@?$AAh?$AAH?$AAe?$AAa?$AAp?$AA?5?$AA?$CB?$AA?$DN?$AA?5?$AA0?$AA?$AA@ 000000018006cc58     Adapter.obj
 0002:00004c80       ??_C@_1JO@KPMEEKBM@?$AAE?$AA?3?$AA?2?$AAP?$AAr?$AAo?$AAg?$AAr?$AAa?$AAm?$AA?5?$AAF?$AAi?$AAl?$AAe?$AAs?$AA?5?$AA?$CI?$AAx?$AA8?$AA6?$AA?$CJ?$AA?2?$AAM?$AAi?$AAc?$AAr?$AAo?$AAs?$AAo?$AAf?$AAt@ 000000018006cc80     Adapter.obj
 0002:00004d40       ??_C@_1BC@PMINONJG@?$AAb?$AAS?$AAu?$AAc?$AAc?$AAe?$AAs?$AAs?$AA?$AA@ 000000018006cd40     Adapter.obj
 0002:00004d58       ??_C@_1BE@BLGCOAPB@?$AAn?$AAR?$AAe?$AAf?$AAs?$AA?5?$AA?$DO?$AA?5?$AA0?$AA?$AA@ 000000018006cd58     Adapter.obj
 0002:00004d70       ??_C@_1KG@BFFPBMLE@?$AAE?$AA?3?$AA?2?$AAP?$AAr?$AAo?$AAg?$AAr?$AAa?$AAm?$AA?5?$AAF?$AAi?$AAl?$AAe?$AAs?$AA?5?$AA?$CI?$AAx?$AA8?$AA6?$AA?$CJ?$AA?2?$AAM?$AAi?$AAc?$AAr?$AAo?$AAs?$AAo?$AAf?$AAt@ 000000018006cd70     Adapter.obj
 0002:00004e38       ??_C@_1CA@MEFFJNJ@?$AAp?$AAS?$AAt?$AAr?$AAi?$AAn?$AAg?$AAM?$AAg?$AAr?$AA?5?$AA?$DN?$AA?$DN?$AA?5?$AA0?$AA?$AA@ 000000018006ce38     Adapter.obj
 0002:00004e60       ??_C@_1KA@EPOPIMOD@?$AAE?$AA?3?$AA?2?$AAP?$AAr?$AAo?$AAg?$AAr?$AAa?$AAm?$AA?5?$AAF?$AAi?$AAl?$AAe?$AAs?$AA?5?$AA?$CI?$AAx?$AA8?$AA6?$AA?$CJ?$AA?2?$AAM?$AAi?$AAc?$AAr?$AAo?$AAs?$AAo?$AAf?$AAt@ 000000018006ce60     Adapter.obj
 0002:00004f20       ??_C@_0FA@DAGHLDKJ@E?3?2Program?5Files?5?$CIx86?$CJ?2Microsoft@ 000000018006cf20     Adapter.obj
 0002:00004f80       ??_C@_0EA@EJEMLPD@ERROR?5?3?5Unable?5to?5initialize?5cri@ 000000018006cf80     Adapter.obj
 0002:00004fd0       ??_C@_0ED@GFNHMOFC@ERROR?5?3?5Unable?5to?5initialize?5cri@ 000000018006cfd0     Adapter.obj
 0002:00005028       ??_7CAtlStringMgr@ATL@@6B@ 000000018006d028     Adapter.obj
 0002:00005070       ??_C@_1JO@CHBKLNKP@?$AAE?$AA?3?$AA?2?$AAP?$AAr?$AAo?$AAg?$AAr?$AAa?$AAm?$AA?5?$AAF?$AAi?$AAl?$AAe?$AAs?$AA?5?$AA?$CI?$AAx?$AA8?$AA6?$AA?$CJ?$AA?2?$AAM?$AAi?$AAc?$AAr?$AAo?$AAs?$AAo?$AAf?$AAt@ 000000018006d070     Adapter.obj
 0002:00005130       ??_C@_1BG@IEBIBJEI@?$AAp?$AAD?$AAa?$AAt?$AAa?$AA?5?$AA?$CB?$AA?$DN?$AA?5?$AA0?$AA?$AA@ 000000018006d130     Adapter.obj
 0002:00005150       ??_C@_1DE@KEEBDKDC@?$AAp?$AAD?$AAa?$AAt?$AAa?$AA?9?$AA?$DO?$AAp?$AAS?$AAt?$AAr?$AAi?$AAn?$AAg?$AAM?$AAg?$AAr?$AA?5?$AA?$DN?$AA?$DN?$AA?5?$AAt?$AAh?$AAi?$AAs?$AA?$AA@ 000000018006d150     Adapter.obj
 0002:00005190       ?npos@?$basic_string@DU?$char_traits@D@std@@V?$allocator@D@2@@std@@2_KB 000000018006d190     Adapter.obj
 0002:000051a8       ??_7error_category@std@@6B@ 000000018006d1a8     Adapter.obj
 0002:000051f0       ??_7_Generic_error_category@std@@6B@ 000000018006d1f0     Adapter.obj
 0002:00005230       ??_C@_07DCLBNMLN@generic?$AA@ 000000018006d230     Adapter.obj
 0002:00005240       ??_C@_0O@BFJCFAAK@unknown?5error?$AA@ 000000018006d240     Adapter.obj
 0002:00005258       ??_7_Iostream_error_category@std@@6B@ 000000018006d258     Adapter.obj
 0002:00005298       ??_C@_08LLGCOLLL@iostream?$AA@ 000000018006d298     Adapter.obj
 0002:000052a8       ??_C@_0BG@PADBLCHM@iostream?5stream?5error?$AA@ 000000018006d2a8     Adapter.obj
 0002:000052d0       ??_7_System_error_category@std@@6B@ 000000018006d2d0     Adapter.obj
 0002:0000530c       ??_C@_06FHFOAHML@system?$AA@ 000000018006d30c     Adapter.obj
 0002:00005320       ??_C@_1EA@JHMKKLFC@?$AAn?$AAI?$AAn?$AAd?$AAe?$AAx?$AA?5?$AA?$DO?$AA?$DN?$AA?5?$AA0?$AA?5?$AA?$CG?$AA?$CG?$AA?5?$AAn?$AAI?$AAn?$AAd?$AAe?$AAx?$AA?5?$AA?$DM?$AA?5?$AAm?$AA_?$AAn?$AAS?$AAi?$AAz?$AAe?$AA?$AA@ 000000018006d320     Adapter.obj
 0002:00005370       ??_C@_1KI@PKNMBFGE@?$AAE?$AA?3?$AA?2?$AAP?$AAr?$AAo?$AAg?$AAr?$AAa?$AAm?$AA?5?$AAF?$AAi?$AAl?$AAe?$AAs?$AA?5?$AA?$CI?$AAx?$AA8?$AA6?$AA?$CJ?$AA?2?$AAM?$AAi?$AAc?$AAr?$AAo?$AAs?$AAo?$AAf?$AAt@ 000000018006d370     Adapter.obj
 0002:00005440       ??_C@_1IO@HOAOJOCA@?$AAE?$AA?3?$AA?2?$AAP?$AAr?$AAo?$AAg?$AAr?$AAa?$AAm?$AA?5?$AAF?$AAi?$AAl?$AAe?$AAs?$AA?5?$AA?$CI?$AAx?$AA8?$AA6?$AA?$CJ?$AA?2?$AAM?$AAi?$AAc?$AAr?$AAo?$AAs?$AAo?$AAf?$AAt@ 000000018006d440     Adapter.obj
 0002:000054f0       ??_C@_0BA@JFNIOLAK@string?5too?5long?$AA@ 000000018006d4f0     Adapter.obj
 0002:00005508       ??_C@_0BI@CFPLBAOH@invalid?5string?5position?$AA@ 000000018006d508     Adapter.obj
 0002:00005528       ??_C@_0BD@OLBABOEK@vector?$DMT?$DO?5too?5long?$AA@ 000000018006d528     Adapter.obj
 0002:00005540       ??_C@_1CK@EOPGIILJ@?$AAi?$AAn?$AAv?$AAa?$AAl?$AAi?$AAd?$AA?5?$AAn?$AAu?$AAl?$AAl?$AA?5?$AAp?$AAo?$AAi?$AAn?$AAt?$AAe?$AAr?$AA?$AA@ 000000018006d540     Adapter.obj
 0002:00005578       ??_C@_1CO@DGLIKNHI@?$AAi?$AAn?$AAv?$AAa?$AAl?$AAi?$AAd?$AA?5?$AAi?$AAt?$AAe?$AAr?$AAa?$AAt?$AAo?$AAr?$AA?5?$AAr?$AAa?$AAn?$AAg?$AAe?$AA?$AA@ 000000018006d578     Adapter.obj
 0002:000055b0       ??_C@_1IO@JAICGHPB@?$AAE?$AA?3?$AA?2?$AAP?$AAr?$AAo?$AAg?$AAr?$AAa?$AAm?$AA?5?$AAF?$AAi?$AAl?$AAe?$AAs?$AA?5?$AA?$CI?$AAx?$AA8?$AA6?$AA?$CJ?$AA?2?$AAM?$AAi?$AAc?$AAr?$AAo?$AAs?$AAo?$AAf?$AAt@ 000000018006d5b0     Adapter.obj
 0002:0000a390       ??_7DerivedLock@@6B@       0000000180072390     DerivedLock.obj
 0002:0000f200       ??_C@_1JA@NDLBJJIH@?$AAE?$AA?3?$AA?2?$AAP?$AAr?$AAo?$AAg?$AAr?$AAa?$AAm?$AA?5?$AAF?$AAi?$AAl?$AAe?$AAs?$AA?5?$AA?$CI?$AAx?$AA8?$AA6?$AA?$CJ?$AA?2?$AAM?$AAi?$AAc?$AAr?$AAo?$AAs?$AAo?$AAf?$AAt@ 0000000180077200     Global.obj
 0002:0000f2b0       ??_C@_1DC@POOIKBAO@?$AAI?$AAT?$AAE?$AAR?$AAA?$AAT?$AAO?$AAR?$AA?5?$AAL?$AAI?$AAS?$AAT?$AA?5?$AAC?$AAO?$AAR?$AAR?$AAU?$AAP?$AAT?$AAE?$AAD?$AA?$CB?$AA?$AA@ 00000001800772b0     Global.obj
 0002:0000f2f8       ??_7CSpeedLimit@@6B@       00000001800772f8     Global.obj
 0002:0000f308       ??_C@_0CE@OFMIGAMM@Standard?5C?$CL?$CL?5Libraries?5Out?5of?5Ra@ 0000000180077308     Global.obj
 0002:0000f340       ??_C@_1FG@IBPIFFN@?$AA?$CC?$AAS?$AAt?$AAa?$AAn?$AAd?$AAa?$AAr?$AAd?$AA?5?$AAC?$AA?$CL?$AA?$CL?$AA?5?$AAL?$AAi?$AAb?$AAr?$AAa?$AAr?$AAi?$AAe?$AAs?$AA?5?$AAO?$AAu?$AAt?$AA?5?$AAo?$AAf?$AA?5?$AAR@ 0000000180077340     Global.obj
 0002:0000f3a8       ??_C@_1BO@MEPPHOO@?$AA?$CC?$AAo?$AAu?$AAt?$AA?5?$AAo?$AAf?$AA?5?$AAr?$AAa?$AAn?$AAg?$AAe?$AA?$CC?$AA?$AA@ 00000001800773a8     Global.obj
 0002:0000f3d0       ??_C@_0CI@FNPHFCCM@Standard?5C?$CL?$CL?5Libraries?5Invalid?5A@ 00000001800773d0     Global.obj
 0002:0000f400       ??_C@_1FO@GJIHNDLM@?$AA?$CC?$AAS?$AAt?$AAa?$AAn?$AAd?$AAa?$AAr?$AAd?$AA?5?$AAC?$AA?$CL?$AA?$CL?$AA?5?$AAL?$AAi?$AAb?$AAr?$AAa?$AAr?$AAi?$AAe?$AAs?$AA?5?$AAI?$AAn?$AAv?$AAa?$AAl?$AAi?$AAd?$AA?5@ 0000000180077400     Global.obj
 0002:0000f470       ??_C@_1CG@JNLFBNGN@?$AA?$CC?$AAi?$AAn?$AAv?$AAa?$AAl?$AAi?$AAd?$AA?5?$AAa?$AAr?$AAg?$AAu?$AAm?$AAe?$AAn?$AAt?$AA?$CC?$AA?$AA@ 0000000180077470     Global.obj
 0002:0000f4a0       ??_C@_1EM@MEFKBKGF@?$AAs?$AAt?$AAr?$AAi?$AAn?$AAg?$AA?5?$AAi?$AAt?$AAe?$AAr?$AAa?$AAt?$AAo?$AAr?$AA?5?$AA?$CL?$AA?5?$AAo?$AAf?$AAf?$AAs?$AAe?$AAt?$AA?5?$AAo?$AAu?$AAt?$AA?5?$AAo?$AAf?$AA?5@ 00000001800774a0     Global.obj
 0002:0000f500       ??_C@_1MI@HNCOPGEL@?$AAs?$AAt?$AAd?$AA?3?$AA?3?$AA_?$AAS?$AAt?$AAr?$AAi?$AAn?$AAg?$AA_?$AAc?$AAo?$AAn?$AAs?$AAt?$AA_?$AAi?$AAt?$AAe?$AAr?$AAa?$AAt?$AAo?$AAr?$AA?$DM?$AAc?$AAl?$AAa?$AAs@ 0000000180077500     Global.obj
 0002:0000f5f0       ??_C@_1DM@KDEKGMPF@?$AAs?$AAt?$AAr?$AAi?$AAn?$AAg?$AA?5?$AAi?$AAt?$AAe?$AAr?$AAa?$AAt?$AAo?$AAr?$AAs?$AA?5?$AAi?$AAn?$AAc?$AAo?$AAm?$AAp?$AAa?$AAt?$AAi?$AAb?$AAl?$AAe?$AA?$AA@ 00000001800775f0     Global.obj
 0002:0000f640       ??_C@_1MA@BDELDFHB@?$AAs?$AAt?$AAd?$AA?3?$AA?3?$AA_?$AAS?$AAt?$AAr?$AAi?$AAn?$AAg?$AA_?$AAc?$AAo?$AAn?$AAs?$AAt?$AA_?$AAi?$AAt?$AAe?$AAr?$AAa?$AAt?$AAo?$AAr?$AA?$DM?$AAc?$AAl?$AAa?$AAs@ 0000000180077640     Global.obj
 0002:0000f728       __real@408f400000000000    0000000180077728     Global.obj
 0002:00013488       ??_7CIocpKeyIoMgr@@6B@     000000018007b488     IocpKeyIoMgr.obj
 0002:000134a0       ??_C@_1IK@EILLFDNI@?$AAE?$AA?3?$AA?2?$AAP?$AAr?$AAo?$AAg?$AAr?$AAa?$AAm?$AA?5?$AAF?$AAi?$AAl?$AAe?$AAs?$AA?5?$AA?$CI?$AAx?$AA8?$AA6?$AA?$CJ?$AA?2?$AAM?$AAi?$AAc?$AAr?$AAo?$AAs?$AAo?$AAf?$AAt@ 000000018007b4a0     IocpKeyIoMgr.obj
 0002:00013550       ??_C@_1EK@PPDBPCAN@?$AAm?$AAa?$AAp?$AA?1?$AAs?$AAe?$AAt?$AA?5?$AAe?$AAr?$AAa?$AAs?$AAe?$AA?5?$AAi?$AAt?$AAe?$AAr?$AAa?$AAt?$AAo?$AAr?$AA?5?$AAo?$AAu?$AAt?$AAs?$AAi?$AAd?$AAe?$AA?5?$AAr@ 000000018007b550     IocpKeyIoMgr.obj
 0002:000135b0       ??_C@_1II@CBFHPFNJ@?$AAE?$AA?3?$AA?2?$AAP?$AAr?$AAo?$AAg?$AAr?$AAa?$AAm?$AA?5?$AAF?$AAi?$AAl?$AAe?$AAs?$AA?5?$AA?$CI?$AAx?$AA8?$AA6?$AA?$CJ?$AA?2?$AAM?$AAi?$AAc?$AAr?$AAo?$AAs?$AAo?$AAf?$AAt@ 000000018007b5b0     IocpKeyIoMgr.obj
 0002:00013658       ??_C@_1DI@MDELDGPI@?$AAl?$AAi?$AAs?$AAt?$AA?5?$AAi?$AAt?$AAe?$AAr?$AAa?$AAt?$AAo?$AAr?$AAs?$AA?5?$AAi?$AAn?$AAc?$AAo?$AAm?$AAp?$AAa?$AAt?$AAi?$AAb?$AAl?$AAe?$AA?$AA@ 000000018007b658     IocpKeyIoMgr.obj
 0002:000136a0       ??_C@_1OC@FPDDDOKD@?$AAs?$AAt?$AAd?$AA?3?$AA?3?$AA_?$AAL?$AAi?$AAs?$AAt?$AA_?$AAc?$AAo?$AAn?$AAs?$AAt?$AA_?$AAi?$AAt?$AAe?$AAr?$AAa?$AAt?$AAo?$AAr?$AA?$DM?$AAc?$AAl?$AAa?$AAs?$AAs?$AA?5@ 000000018007b6a0     IocpKeyIoMgr.obj
 0002:000137b0       ??_C@_1OA@PNPBPMMB@?$AAs?$AAt?$AAd?$AA?3?$AA?3?$AA_?$AAL?$AAi?$AAs?$AAt?$AA_?$AAc?$AAo?$AAn?$AAs?$AAt?$AA_?$AAi?$AAt?$AAe?$AAr?$AAa?$AAt?$AAo?$AAr?$AA?$DM?$AAc?$AAl?$AAa?$AAs?$AAs?$AA?5@ 000000018007b7b0     IocpKeyIoMgr.obj
 0002:000138c0       ??_C@_1EE@BBMFLDOC@?$AAl?$AAi?$AAs?$AAt?$AA?5?$AAe?$AAr?$AAa?$AAs?$AAe?$AA?5?$AAi?$AAt?$AAe?$AAr?$AAa?$AAt?$AAo?$AAr?$AA?5?$AAo?$AAu?$AAt?$AAs?$AAi?$AAd?$AAe?$AA?5?$AAr?$AAa?$AAn?$AAg@ 000000018007b8c0     IocpKeyIoMgr.obj
 0002:00013920       ??_C@_1EC@HILJLMMC@?$AAl?$AAi?$AAs?$AAt?$AA?5?$AAi?$AAt?$AAe?$AAr?$AAa?$AAt?$AAo?$AAr?$AA?5?$AAn?$AAo?$AAt?$AA?5?$AAd?$AAe?$AAr?$AAe?$AAf?$AAe?$AAr?$AAe?$AAn?$AAc?$AAa?$AAb?$AAl?$AAe@ 000000018007b920     IocpKeyIoMgr.obj
 0002:00013970       ??_C@_1OA@BCMHOIDC@?$AAs?$AAt?$AAd?$AA?3?$AA?3?$AA_?$AAL?$AAi?$AAs?$AAt?$AA_?$AAc?$AAo?$AAn?$AAs?$AAt?$AA_?$AAi?$AAt?$AAe?$AAr?$AAa?$AAt?$AAo?$AAr?$AA?$DM?$AAc?$AAl?$AAa?$AAs?$AAs?$AA?5@ 000000018007b970     IocpKeyIoMgr.obj
 0002:00013a80       ??_C@_1EA@DOGAGKDH@?$AAl?$AAi?$AAs?$AAt?$AA?5?$AAi?$AAt?$AAe?$AAr?$AAa?$AAt?$AAo?$AAr?$AA?5?$AAn?$AAo?$AAt?$AA?5?$AAi?$AAn?$AAc?$AAr?$AAe?$AAm?$AAe?$AAn?$AAt?$AAa?$AAb?$AAl?$AAe?$AA?$AA@ 000000018007ba80     IocpKeyIoMgr.obj
 0002:00013ad0       ??_C@_1OC@PPMONHGG@?$AAs?$AAt?$AAd?$AA?3?$AA?3?$AA_?$AAL?$AAi?$AAs?$AAt?$AA_?$AAc?$AAo?$AAn?$AAs?$AAt?$AA_?$AAi?$AAt?$AAe?$AAr?$AAa?$AAt?$AAo?$AAr?$AA?$DM?$AAc?$AAl?$AAa?$AAs?$AAs?$AA?5@ 000000018007bad0     IocpKeyIoMgr.obj
 0002:00013be0       ??_C@_1EG@EHJFMBHJ@?$AAm?$AAa?$AAp?$AA?1?$AAs?$AAe?$AAt?$AA?5?$AAi?$AAt?$AAe?$AAr?$AAa?$AAt?$AAo?$AAr?$AA?5?$AAn?$AAo?$AAt?$AA?5?$AAi?$AAn?$AAc?$AAr?$AAe?$AAm?$AAe?$AAn?$AAt?$AAa?$AAb@ 000000018007bbe0     IocpKeyIoMgr.obj
 0002:00013c40       ??_C@_1BBO@MALGDODD@?$AAs?$AAt?$AAd?$AA?3?$AA?3?$AA_?$AAT?$AAr?$AAe?$AAe?$AA_?$AAc?$AAo?$AAn?$AAs?$AAt?$AA_?$AAi?$AAt?$AAe?$AAr?$AAa?$AAt?$AAo?$AAr?$AA?$DM?$AAc?$AAl?$AAa?$AAs?$AAs?$AA?5@ 000000018007bc40     IocpKeyIoMgr.obj
 0002:00013d98       ??_C@_1DO@CFEEPGGJ@?$AAm?$AAa?$AAp?$AA?1?$AAs?$AAe?$AAt?$AA?5?$AAi?$AAt?$AAe?$AAr?$AAa?$AAt?$AAo?$AAr?$AAs?$AA?5?$AAi?$AAn?$AAc?$AAo?$AAm?$AAp?$AAa?$AAt?$AAi?$AAb?$AAl?$AAe?$AA?$AA@ 000000018007bd98     IocpKeyIoMgr.obj
 0002:00013df0       ??_C@_1BBO@GAELNHPG@?$AAs?$AAt?$AAd?$AA?3?$AA?3?$AA_?$AAT?$AAr?$AAe?$AAe?$AA_?$AAc?$AAo?$AAn?$AAs?$AAt?$AA_?$AAi?$AAt?$AAe?$AAr?$AAa?$AAt?$AAo?$AAr?$AA?$DM?$AAc?$AAl?$AAa?$AAs?$AAs?$AA?5@ 000000018007bdf0     IocpKeyIoMgr.obj
 0002:00013f50       ??_C@_1NO@KLGCKABF@?$AAs?$AAt?$AAd?$AA?3?$AA?3?$AA_?$AAL?$AAi?$AAs?$AAt?$AA_?$AAc?$AAo?$AAn?$AAs?$AAt?$AA_?$AAi?$AAt?$AAe?$AAr?$AAa?$AAt?$AAo?$AAr?$AA?$DM?$AAc?$AAl?$AAa?$AAs?$AAs?$AA?5@ 000000018007bf50     IocpKeyIoMgr.obj
 0002:00014060       ??_C@_1OA@FNAMBFAE@?$AAs?$AAt?$AAd?$AA?3?$AA?3?$AA_?$AAL?$AAi?$AAs?$AAt?$AA_?$AAc?$AAo?$AAn?$AAs?$AAt?$AA_?$AAi?$AAt?$AAe?$AAr?$AAa?$AAt?$AAo?$AAr?$AA?$DM?$AAc?$AAl?$AAa?$AAs?$AAs?$AA?5@ 000000018007c060     IocpKeyIoMgr.obj
 0002:00014170       ??_C@_1BBM@LIPCFJO@?$AAs?$AAt?$AAd?$AA?3?$AA?3?$AA_?$AAT?$AAr?$AAe?$AAe?$AA_?$AAc?$AAo?$AAn?$AAs?$AAt?$AA_?$AAi?$AAt?$AAe?$AAr?$AAa?$AAt?$AAo?$AAr?$AA?$DM?$AAc?$AAl?$AAa?$AAs?$AAs?$AA?5@ 000000018007c170     IocpKeyIoMgr.obj
 0002:000142d0       ??_C@_1BBM@KLHCMMFL@?$AAs?$AAt?$AAd?$AA?3?$AA?3?$AA_?$AAT?$AAr?$AAe?$AAe?$AA_?$AAc?$AAo?$AAn?$AAs?$AAt?$AA_?$AAi?$AAt?$AAe?$AAr?$AAa?$AAt?$AAo?$AAr?$AA?$DM?$AAc?$AAl?$AAa?$AAs?$AAs?$AA?5@ 000000018007c2d0     IocpKeyIoMgr.obj
 0002:00014430       ??_C@_1EI@FHEHNNNM@?$AAm?$AAa?$AAp?$AA?1?$AAs?$AAe?$AAt?$AA?5?$AAi?$AAt?$AAe?$AAr?$AAa?$AAt?$AAo?$AAr?$AA?5?$AAn?$AAo?$AAt?$AA?5?$AAd?$AAe?$AAr?$AAe?$AAf?$AAe?$AAr?$AAe?$AAn?$AAc?$AAa@ 000000018007c430     IocpKeyIoMgr.obj
 0002:00014490       ??_C@_1BBM@CKEJNNMH@?$AAs?$AAt?$AAd?$AA?3?$AA?3?$AA_?$AAT?$AAr?$AAe?$AAe?$AA_?$AAc?$AAo?$AAn?$AAs?$AAt?$AA_?$AAi?$AAt?$AAe?$AAr?$AAa?$AAt?$AAo?$AAr?$AA?$DM?$AAc?$AAl?$AAa?$AAs?$AAs?$AA?5@ 000000018007c490     IocpKeyIoMgr.obj
 0002:000145f0       ??_C@_1BBK@OKCEHMPK@?$AAs?$AAt?$AAd?$AA?3?$AA?3?$AA_?$AAT?$AAr?$AAe?$AAe?$AA_?$AAc?$AAo?$AAn?$AAs?$AAt?$AA_?$AAi?$AAt?$AAe?$AAr?$AAa?$AAt?$AAo?$AAr?$AA?$DM?$AAc?$AAl?$AAa?$AAs?$AAs?$AA?5@ 000000018007c5f0     IocpKeyIoMgr.obj
 0002:00014748       ??_C@_1CE@IGJMOCCK@?$AAi?$AAn?$AAv?$AAa?$AAl?$AAi?$AAd?$AA?5?$AAo?$AAp?$AAe?$AAr?$AAa?$AAt?$AAo?$AAr?$AA?$DM?$AA?$AA@ 000000018007c748     IocpKeyIoMgr.obj
 0002:00014778       ??_C@_0BB@MOGOBHAF@list?$DMT?$DO?5too?5long?$AA@ 000000018007c778     IocpKeyIoMgr.obj
 0002:00014790       ??_C@_1EG@OKCGOALM@?$AAm?$AAa?$AAp?$AA?1?$AAs?$AAe?$AAt?$AA?5?$AAi?$AAt?$AAe?$AAr?$AAa?$AAt?$AAo?$AAr?$AA?5?$AAn?$AAo?$AAt?$AA?5?$AAd?$AAe?$AAc?$AAr?$AAe?$AAm?$AAe?$AAn?$AAt?$AAa?$AAb@ 000000018007c790     IocpKeyIoMgr.obj
 0002:000147f0       ??_C@_1BBO@DDIEICPC@?$AAs?$AAt?$AAd?$AA?3?$AA?3?$AA_?$AAT?$AAr?$AAe?$AAe?$AA_?$AAc?$AAo?$AAn?$AAs?$AAt?$AA_?$AAi?$AAt?$AAe?$AAr?$AAa?$AAt?$AAo?$AAr?$AA?$DM?$AAc?$AAl?$AAa?$AAs?$AAs?$AA?5@ 000000018007c7f0     IocpKeyIoMgr.obj
 0002:00014950       ??_C@_1BBM@PILNJJFP@?$AAs?$AAt?$AAd?$AA?3?$AA?3?$AA_?$AAT?$AAr?$AAe?$AAe?$AA_?$AAc?$AAo?$AAn?$AAs?$AAt?$AA_?$AAi?$AAt?$AAe?$AAr?$AAa?$AAt?$AAo?$AAr?$AA?$DM?$AAc?$AAl?$AAa?$AAs?$AAs?$AA?5@ 000000018007c950     IocpKeyIoMgr.obj
 0002:00014aa8       ??_C@_0BE@JONHPENG@map?1set?$DMT?$DO?5too?5long?$AA@ 000000018007caa8     IocpKeyIoMgr.obj
 0002:000156d0       ??_7CIocpServer@@6B@       000000018007d6d0     IocpServer.obj
 0002:00015778       ??_7CIocpServerFactory@@6B@ 000000018007d778     IocpServer.obj
 0002:00015790       ??_C@_1BKM@LBOFJKLH@?$AAs?$AAt?$AAd?$AA?3?$AA?3?$AA_?$AAT?$AAr?$AAe?$AAe?$AA_?$AAc?$AAo?$AAn?$AAs?$AAt?$AA_?$AAi?$AAt?$AAe?$AAr?$AAa?$AAt?$AAo?$AAr?$AA?$DM?$AAc?$AAl?$AAa?$AAs?$AAs?$AA?5@ 000000018007d790     IocpServer.obj
 0002:000159a0       ??_C@_1BKM@BBBIHDHC@?$AAs?$AAt?$AAd?$AA?3?$AA?3?$AA_?$AAT?$AAr?$AAe?$AAe?$AA_?$AAc?$AAo?$AAn?$AAs?$AAt?$AA_?$AAi?$AAt?$AAe?$AAr?$AAa?$AAt?$AAo?$AAr?$AA?$DM?$AAc?$AAl?$AAa?$AAs?$AAs?$AA?5@ 000000018007d9a0     IocpServer.obj
 0002:00015bb0       ??_C@_1BKM@OCCKMPLD@?$AAs?$AAt?$AAd?$AA?3?$AA?3?$AA_?$AAT?$AAr?$AAe?$AAe?$AA_?$AAc?$AAo?$AAn?$AAs?$AAt?$AA_?$AAi?$AAt?$AAe?$AAr?$AAa?$AAt?$AAo?$AAr?$AA?$DM?$AAc?$AAl?$AAa?$AAs?$AAs?$AA?5@ 000000018007dbb0     IocpServer.obj
 0002:00019e38       ??_7CIocpServerImpl@@6B@   0000000180081e38     IocpServerImpl.obj
 0002:00019ee0       ??_C@_1BBO@JKBJOOKL@?$AAs?$AAt?$AAd?$AA?3?$AA?3?$AA_?$AAT?$AAr?$AAe?$AAe?$AA_?$AAc?$AAo?$AAn?$AAs?$AAt?$AA_?$AAi?$AAt?$AAe?$AAr?$AAa?$AAt?$AAo?$AAr?$AA?$DM?$AAc?$AAl?$AAa?$AAs?$AAs?$AA?5@ 0000000180081ee0     IocpServerImpl.obj
 0002:0001a040       ??_C@_1BBO@DKOEAHGO@?$AAs?$AAt?$AAd?$AA?3?$AA?3?$AA_?$AAT?$AAr?$AAe?$AAe?$AA_?$AAc?$AAo?$AAn?$AAs?$AAt?$AA_?$AAi?$AAt?$AAe?$AAr?$AAa?$AAt?$AAo?$AAr?$AA?$DM?$AAc?$AAl?$AAa?$AAs?$AAs?$AA?5@ 0000000180082040     IocpServerImpl.obj
 0002:0001a1a0       ??_C@_1BBM@CPIGHMKJ@?$AAs?$AAt?$AAd?$AA?3?$AA?3?$AA_?$AAT?$AAr?$AAe?$AAe?$AA_?$AAc?$AAo?$AAn?$AAs?$AAt?$AA_?$AAi?$AAt?$AAe?$AAr?$AAa?$AAt?$AAo?$AAr?$AA?$DM?$AAc?$AAl?$AAa?$AAs?$AAs?$AA?5@ 00000001800821a0     IocpServerImpl.obj
 0002:0001a300       ??_C@_1BAE@LOGANKFC@?$AAs?$AAt?$AAd?$AA?3?$AA?3?$AA_?$AAT?$AAr?$AAe?$AAe?$AA_?$AAc?$AAo?$AAn?$AAs?$AAt?$AA_?$AAi?$AAt?$AAe?$AAr?$AAa?$AAt?$AAo?$AAr?$AA?$DM?$AAc?$AAl?$AAa?$AAs?$AAs?$AA?5@ 0000000180082300     IocpServerImpl.obj
 0002:0001a440       ??_C@_1BAE@BOJNDDJH@?$AAs?$AAt?$AAd?$AA?3?$AA?3?$AA_?$AAT?$AAr?$AAe?$AAe?$AA_?$AAc?$AAo?$AAn?$AAs?$AAt?$AA_?$AAi?$AAt?$AAe?$AAr?$AAa?$AAt?$AAo?$AAr?$AA?$DM?$AAc?$AAl?$AAa?$AAs?$AAs?$AA?5@ 0000000180082440     IocpServerImpl.obj
 0002:0001a580       ??_C@_1BBO@GJCLFCGK@?$AAs?$AAt?$AAd?$AA?3?$AA?3?$AA_?$AAT?$AAr?$AAe?$AAe?$AA_?$AAc?$AAo?$AAn?$AAs?$AAt?$AA_?$AAi?$AAt?$AAe?$AAr?$AAa?$AAt?$AAo?$AAr?$AA?$DM?$AAc?$AAl?$AAa?$AAs?$AAs?$AA?5@ 0000000180082580     IocpServerImpl.obj
 0002:0001c0a8       ??_7LockBase@@6B@          00000001800840a8     LockBase.obj
 0002:0001f790       ??_7SafeLock@@6B@          0000000180087790     SafeLock.obj
 0002:000231b0       ??_C@_1IM@PPHFGDOD@?$AAE?$AA?3?$AA?2?$AAP?$AAr?$AAo?$AAg?$AAr?$AAa?$AAm?$AA?5?$AAF?$AAi?$AAl?$AAe?$AAs?$AA?5?$AA?$CI?$AAx?$AA8?$AA6?$AA?$CJ?$AA?2?$AAM?$AAi?$AAc?$AAr?$AAo?$AAs?$AAo?$AAf?$AAt@ 000000018008b1b0     UTF-8.obj
 0002:00023258       ??_C@_1DM@LHGCHCBA@?$AAv?$AAe?$AAc?$AAt?$AAo?$AAr?$AA?5?$AAs?$AAu?$AAb?$AAs?$AAc?$AAr?$AAi?$AAp?$AAt?$AA?5?$AAo?$AAu?$AAt?$AA?5?$AAo?$AAf?$AA?5?$AAr?$AAa?$AAn?$AAg?$AAe?$AA?$AA@ 000000018008b258     UTF-8.obj
 0002:000232a0       ??_C@_1IC@MBIJKJB@?$AAs?$AAt?$AAd?$AA?3?$AA?3?$AAv?$AAe?$AAc?$AAt?$AAo?$AAr?$AA?$DM?$AAw?$AAc?$AAh?$AAa?$AAr?$AA_?$AAt?$AA?0?$AAc?$AAl?$AAa?$AAs?$AAs?$AA?5?$AAs?$AAt?$AAd?$AA?3?$AA?3?$AAa@ 000000018008b2a0     UTF-8.obj
 0002:00023340       ??_C@_0BF@HDDNNDFH@Component?5Categories?$AA@ 000000018008b340     mfcs120d:nolib.obj
 0002:00023358       ??_C@_08PICKODJL@FileType?$AA@ 000000018008b358     mfcs120d:nolib.obj
 0002:00023368       ??_C@_09JKPGEJCH@Interface?$AA@ 000000018008b368     mfcs120d:nolib.obj
 0002:00023378       ??_C@_08PPIOJEA@Hardware?$AA@ 000000018008b378     mfcs120d:nolib.obj
 0002:00023384       ??_C@_04IHBFOLAC@Mime?$AA@ 000000018008b384     mfcs120d:nolib.obj
 0002:0002338c       ??_C@_03DDIMFGBA@SAM?$AA@  000000018008b38c     mfcs120d:nolib.obj
 0002:00023390       ??_C@_08LOPHEHKG@SECURITY?$AA@ 000000018008b390     mfcs120d:nolib.obj
 0002:0002339c       ??_C@_06FDHFNJBJ@SYSTEM?$AA@ 000000018008b39c     mfcs120d:nolib.obj
 0002:000233a8       ??_C@_08KEKAJNJI@Software?$AA@ 000000018008b3a8     mfcs120d:nolib.obj
 0002:000233b8       ??_C@_07KJLOKDKB@TypeLib?$AA@ 000000018008b3b8     mfcs120d:nolib.obj
 0002:000233c0       _GUID_00020412_0000_0000_c000_000000000046 000000018008b3c0     mfcs120d:nolib.obj
 0002:000233d0       _GUID_00020401_0000_0000_c000_000000000046 000000018008b3d0     mfcs120d:nolib.obj
 0002:000233e0       _GUID_1cf2b120_547d_101b_8e65_08002b2bd119 000000018008b3e0     mfcs120d:nolib.obj
 0002:000233f0       ??_C@_05GIBEAPNE@CLSID?$AA@ 000000018008b3f0     mfcs120d:nolib.obj
 0002:000233f8       ??_C@_05PDIKPLII@AppID?$AA@ 000000018008b3f8     mfcs120d:nolib.obj
 0002:00023400       _GUID_00000001_0000_0000_c000_000000000046 000000018008b400     mfcs120d:nolib.obj
 0002:00023410       ??_C@_01CPLAODJH@S?$AA@    000000018008b410     mfcs120d:nolib.obj
 0002:00023414       ??_C@_01PLPBNMEI@M?$AA@    000000018008b414     mfcs120d:nolib.obj
 0002:00023418       ??_C@_01CKDDGHAB@D?$AA@    000000018008b418     mfcs120d:nolib.obj
 0002:0002341c       ??_C@_01HMGJMAIH@B?$AA@    000000018008b41c     mfcs120d:nolib.obj
 0002:00023420       ??_C@_03LAIAPFCB@Val?$AA@  000000018008b420     mfcs120d:nolib.obj
 0002:00023428       ??_C@_0M@DBGDLGLL@ForceRemove?$AA@ 000000018008b428     mfcs120d:nolib.obj
 0002:00023438       ??_C@_08KAAPDIAN@NoRemove?$AA@ 000000018008b438     mfcs120d:nolib.obj
 0002:00023444       ??_C@_06JBKGCNBB@Delete?$AA@ 000000018008b444     mfcs120d:nolib.obj
 0002:00023450       _GUID_11a66efa_382e_451a_9234_1e0e12ef3085 000000018008b450     mfcs120d:nolib.obj
 0002:00023460       _GUID_43826d1e_e718_42ee_bc55_a1e261c37bfe 000000018008b460     mfcs120d:nolib.obj
 0002:00023470       ??_C@_0BB@KEKMKJPM@Invalid?5DateTime?$AA@ 000000018008b470     mfcs120d:nolib.obj
 0002:00023488       ??_C@_0BF@GPPHKJFN@Invalid?5DateTimeSpan?$AA@ 000000018008b488     mfcs120d:nolib.obj
 0002:000234a0       _GUID_a6bc3ac0_dbaa_11ce_9de3_00aa004bb851 000000018008b4a0     mfcs120d:nolib.obj
 0002:000234b0       _GUID_0000010c_0000_0000_c000_000000000046 000000018008b4b0     mfcs120d:nolib.obj
 0002:00023770       ??_C@_1BK@BFMCNHEO@?$AAC?$AAo?$AAm?$AAc?$AAt?$AAl?$AA3?$AA2?$AA?4?$AAd?$AAl?$AAl?$AA?$AA@ 000000018008b770     mfcs120d:nolib.obj
 0002:00023790       ?debugString@?4??IsolationAwarePrivatenPgViNgRzlnPgpgk@@9@4QBDB 000000018008b790     mfcs120d:nolib.obj
 0002:000237d0       ??_C@_0BA@MKMIKKJB@atlTraceGeneral?$AA@ 000000018008b7d0     mfcs120d:nolib.obj
 0002:000237e0       ??_C@_0M@DGPFJEBB@atlTraceCOM?$AA@ 000000018008b7e0     mfcs120d:nolib.obj
 0002:000237f0       ??_C@_0L@LHELAKBP@atlTraceQI?$AA@ 000000018008b7f0     mfcs120d:nolib.obj
 0002:00023800       ??_C@_0BC@MALHFBAO@atlTraceRegistrar?$AA@ 000000018008b800     mfcs120d:nolib.obj
 0002:00023818       ??_C@_0BB@ILPPDKFL@atlTraceRefcount?$AA@ 000000018008b818     mfcs120d:nolib.obj
 0002:00023830       ??_C@_0BC@DGHHNKDC@atlTraceWindowing?$AA@ 000000018008b830     mfcs120d:nolib.obj
 0002:00023848       ??_C@_0BB@GHKJKKIE@atlTraceControls?$AA@ 000000018008b848     mfcs120d:nolib.obj
 0002:00023860       ??_C@_0BA@DKOAAGGM@atlTraceHosting?$AA@ 000000018008b860     mfcs120d:nolib.obj
 0002:00023870       ??_C@_0BB@BEBMGMDO@atlTraceDBClient?$AA@ 000000018008b870     mfcs120d:nolib.obj
 0002:00023888       ??_C@_0BD@KOADKDIA@atlTraceDBProvider?$AA@ 000000018008b888     mfcs120d:nolib.obj
 0002:000238a0       ??_C@_0P@LNEGBOLO@atlTraceSnapin?$AA@ 000000018008b8a0     mfcs120d:nolib.obj
 0002:000238b0       ??_C@_0BA@MCBFIDIC@atlTraceNotImpl?$AA@ 000000018008b8b0     mfcs120d:nolib.obj
 0002:000238c0       ??_C@_0BD@PJPCCAKP@atlTraceAllocation?$AA@ 000000018008b8c0     mfcs120d:nolib.obj
 0002:000238d8       ??_C@_0BC@PGMFNIFA@atlTraceException?$AA@ 000000018008b8d8     mfcs120d:nolib.obj
 0002:000238f0       ??_C@_0N@BNNILHBE@atlTraceTime?$AA@ 000000018008b8f0     mfcs120d:nolib.obj
 0002:00023900       ??_C@_0O@MEOJAOKK@atlTraceCache?$AA@ 000000018008b900     mfcs120d:nolib.obj
 0002:00023910       ??_C@_0BA@IDBKCKK@atlTraceStencil?$AA@ 000000018008b910     mfcs120d:nolib.obj
 0002:00023920       ??_C@_0P@MBNHGHMI@atlTraceString?$AA@ 000000018008b920     mfcs120d:nolib.obj
 0002:00023930       ??_C@_0M@IOBBMAHG@atlTraceMap?$AA@ 000000018008b930     mfcs120d:nolib.obj
 0002:00023940       ??_C@_0N@FEAAACHD@atlTraceUtil?$AA@ 000000018008b940     mfcs120d:nolib.obj
 0002:00023950       ??_C@_0BB@DNJDADMG@atlTraceSecurity?$AA@ 000000018008b950     mfcs120d:nolib.obj
 0002:00023968       ??_C@_0N@KLPNCFEE@atlTraceSync?$AA@ 000000018008b968     mfcs120d:nolib.obj
 0002:00023978       ??_C@_0O@KHOBHOBJ@atlTraceISAPI?$AA@ 000000018008b978     mfcs120d:nolib.obj
 0002:00023990       ??_C@_1GK@BKHJGBLD@?$AAf?$AA?3?$AA?2?$AAd?$AAd?$AA?2?$AAv?$AAc?$AAt?$AAo?$AAo?$AAl?$AAs?$AA?2?$AAv?$AAc?$AA7?$AAl?$AAi?$AAb?$AAs?$AA?2?$AAs?$AAh?$AAi?$AAp?$AA?2?$AAa?$AAt?$AAl?$AAm?$AAf@ 000000018008b990     mfcs120d:nolib.obj
 0002:00023a00       ??_C@_1GG@GCEHDONA@?$AAf?$AA?3?$AA?2?$AAd?$AAd?$AA?2?$AAv?$AAc?$AAt?$AAo?$AAo?$AAl?$AAs?$AA?2?$AAv?$AAc?$AA7?$AAl?$AAi?$AAb?$AAs?$AA?2?$AAs?$AAh?$AAi?$AAp?$AA?2?$AAa?$AAt?$AAl?$AAm?$AAf@ 000000018008ba00     mfcs120d:nolib.obj
 0002:00023a70       ??_C@_1GO@KJNAPAOI@?$AAf?$AA?3?$AA?2?$AAd?$AAd?$AA?2?$AAv?$AAc?$AAt?$AAo?$AAo?$AAl?$AAs?$AA?2?$AAv?$AAc?$AA7?$AAl?$AAi?$AAb?$AAs?$AA?2?$AAs?$AAh?$AAi?$AAp?$AA?2?$AAa?$AAt?$AAl?$AAm?$AAf@ 000000018008ba70     mfcs120d:nolib.obj
 0002:00023ae0       ??_C@_1GI@HPMIGMAH@?$AAf?$AA?3?$AA?2?$AAd?$AAd?$AA?2?$AAv?$AAc?$AAt?$AAo?$AAo?$AAl?$AAs?$AA?2?$AAv?$AAc?$AA7?$AAl?$AAi?$AAb?$AAs?$AA?2?$AAs?$AAh?$AAi?$AAp?$AA?2?$AAa?$AAt?$AAl?$AAm?$AAf@ 000000018008bae0     mfcs120d:nolib.obj
 0002:00023b48       ??_C@_0DE@CLCFEHFD@f?3?2dd?2vctools?2vc7libs?2ship?2atlmf@ 000000018008bb48     mfcs120d:nolib.obj
 0002:00023b80       ??_C@_1GG@OKJJMJGD@?$AAf?$AA?3?$AA?2?$AAd?$AAd?$AA?2?$AAv?$AAc?$AAt?$AAo?$AAo?$AAl?$AAs?$AA?2?$AAv?$AAc?$AA7?$AAl?$AAi?$AAb?$AAs?$AA?2?$AAs?$AAh?$AAi?$AAp?$AA?2?$AAa?$AAt?$AAl?$AAm?$AAf@ 000000018008bb80     mfcs120d:nolib.obj
 0002:00023bf0       ??_C@_1HA@EFGOBFOA@?$AAf?$AA?3?$AA?2?$AAd?$AAd?$AA?2?$AAv?$AAc?$AAt?$AAo?$AAo?$AAl?$AAs?$AA?2?$AAv?$AAc?$AA7?$AAl?$AAi?$AAb?$AAs?$AA?2?$AAs?$AAh?$AAi?$AAp?$AA?2?$AAa?$AAt?$AAl?$AAm?$AAf@ 000000018008bbf0     mfcs120d:nolib.obj
 0002:00023c60       _pActualRawDllMain         000000018008bc60     mfcs120d:dllmodul.obj
 0002:00023dd8       ??_C@_00CNPNBAHC@?$AA@     000000018008bdd8     mfcs120d:dllmodul.obj
 0002:00023de8       ??_7_AFX_DLL_MODULE_STATE@@6B@ 000000018008bde8     mfcs120d:dllmodul.obj
 0002:00023df0       ??_C@_0DH@PMDGJBAD@f?3?2dd?2vctools?2vc7libs?2ship?2atlmf@ 000000018008bdf0     mfcs120d:dllmodul.obj
 0002:00023e28       ??_C@_0CO@ELEHFBDD@Warning?3?5Temp?5map?5lock?5count?5non@ 000000018008be28     mfcs120d:dllmodul.obj
 0002:00023e60       ??_C@_1MC@KPMPFEII@?$AA?$CI?$AA_?$AA_?$AAo?$AAn?$AAe?$AAx?$AAi?$AAt?$AAb?$AAe?$AAg?$AAi?$AAn?$AA?5?$AA?$CB?$AA?$DN?$AA?5?$AAN?$AAU?$AAL?$AAL?$AA?5?$AA?$CG?$AA?$CG?$AA?5?$AA_?$AA_?$AAo?$AAn?$AAe?$AAx@ 000000018008be60     msvcrtd:atonexit.obj
 0002:00023f30       ??_C@_1FK@IGIDCAPD@?$AAf?$AA?3?$AA?2?$AAd?$AAd?$AA?2?$AAv?$AAc?$AAt?$AAo?$AAo?$AAl?$AAs?$AA?2?$AAc?$AAr?$AAt?$AA?2?$AAc?$AAr?$AAt?$AAw?$AA3?$AA2?$AA?2?$AAd?$AAl?$AAl?$AAs?$AAt?$AAu?$AAf@ 000000018008bf30     msvcrtd:atonexit.obj
 0002:00023f90       ??_C@_0CN@LMJJPMEG@f?3?2dd?2vctools?2crt?2crtw32?2dllstuf@ 000000018008bf90     msvcrtd:atonexit.obj
 0002:00023fd8       ??_7type_info@@6B@         000000018008bfd8     msvcrtd:ti_inst.obj
 0002:00023fe0       _pDefaultRawDllMain        000000018008bfe0     msvcrtd:crtdll.obj
 0002:00023fe8       ??_C@_0CL@CCAGLLEM@f?3?2dd?2vctools?2crt?2crtw32?2dllstuf@ 000000018008bfe8     msvcrtd:crtdll.obj
 0002:000240e0       ??_C@_0NN@NGPKDKPD@The?5value?5of?5ESP?5was?5not?5properl@ 000000018008c0e0     msvcrtd:error.obj
 0002:000241c0       ??_C@_0BBN@GPMLNJCF@A?5cast?5to?5a?5smaller?5data?5type?5ha@ 000000018008c1c0     msvcrtd:error.obj
 0002:000242e0       ??_C@_0BN@FFOINMNJ@Stack?5memory?5was?5corrupted?6?$AN?$AA@ 000000018008c2e0     msvcrtd:error.obj
 0002:00024300       ??_C@_0DG@HKJMLLLP@A?5local?5variable?5was?5used?5before@ 000000018008c300     msvcrtd:error.obj
 0002:00024338       ??_C@_0CM@NGINOKPC@Stack?5memory?5around?5_alloca?5was?5@ 000000018008c338     msvcrtd:error.obj
 0002:00024368       ??_C@_0BO@GNIAFIKK@Unknown?5Runtime?5Check?5Error?6?$AN?$AA@ 000000018008c368     msvcrtd:error.obj
 0002:00024390       ??_C@_1GM@OLMCBDMB@?$AAR?$AAu?$AAn?$AAt?$AAi?$AAm?$AAe?$AA?5?$AAC?$AAh?$AAe?$AAc?$AAk?$AA?5?$AAE?$AAr?$AAr?$AAo?$AAr?$AA?4?$AA?6?$AA?$AN?$AA?5?$AAU?$AAn?$AAa?$AAb?$AAl?$AAe?$AA?5?$AAt?$AAo@ 000000018008c390     msvcrtd:error.obj
 0002:00024400       ??_C@_1EA@NFKNIFJP@?$AAR?$AAu?$AAn?$AA?9?$AAT?$AAi?$AAm?$AAe?$AA?5?$AAC?$AAh?$AAe?$AAc?$AAk?$AA?5?$AAF?$AAa?$AAi?$AAl?$AAu?$AAr?$AAe?$AA?5?$AA?$CD?$AA?$CF?$AAd?$AA?5?$AA?9?$AA?5?$AA?$CF?$AAs?$AA?$AA@ 000000018008c400     msvcrtd:error.obj
 0002:00024440       ??_C@_0BB@PFFGGCJP@Unknown?5Filename?$AA@ 000000018008c440     msvcrtd:error.obj
 0002:00024458       ??_C@_0BE@GNBOBNCK@Unknown?5Module?5Name?$AA@ 000000018008c458     msvcrtd:error.obj
 0002:00024470       ??_C@_0CA@IODNCDPG@Run?9Time?5Check?5Failure?5?$CD?$CFd?5?9?5?$CFs?$AA@ 000000018008c470     msvcrtd:error.obj
 0002:00024490       ??_C@_0CG@IAFNJNEE@Stack?5corrupted?5near?5unknown?5var@ 000000018008c490     msvcrtd:error.obj
 0002:000244b8       ??_C@_05MKKEDADM@?$CF?42X?5?$AA@ 000000018008c4b8     msvcrtd:error.obj
 0002:000244c0       ??_C@_1BG@OILDLIOJ@?$AAu?$AAs?$AAe?$AAr?$AA3?$AA2?$AA?4?$AAd?$AAl?$AAl?$AA?$AA@ 000000018008c4c0     msvcrtd:error.obj
 0002:000244d8       ??_C@_09FOPFMPEJ@wsprintfA?$AA@ 000000018008c4d8     msvcrtd:error.obj
 0002:000244f0       ??_C@_0EJ@LJKNEOLN@Stack?5area?5around?5_alloca?5memory@ 000000018008c4f0     msvcrtd:error.obj
 0002:00024540       ??_C@_08OMAHNMHJ@?6Data?3?5?$DM?$AA@ 000000018008c540     msvcrtd:error.obj
 0002:00024550       ??_C@_0CK@DKGBICFE@?6Allocation?5number?5within?5this?5f@ 000000018008c550     msvcrtd:error.obj
 0002:00024580       ??_C@_07DFDJCKFN@?6Size?3?5?$AA@ 000000018008c580     msvcrtd:error.obj
 0002:00024588       ??_C@_0N@MHFFIMFG@?6Address?3?50x?$AA@ 000000018008c588     msvcrtd:error.obj
 0002:000245a0       ??_C@_0EI@CLEPFNGI@Stack?5area?5around?5_alloca?5memory@ 000000018008c5a0     msvcrtd:error.obj
 0002:000245e8       ??_C@_0BE@EJFBLEMJ@?$CFs?$CFs?$CFp?$CFs?$CFI64d?$CFs?$CFd?$CFs?$AA@ 000000018008c5e8     msvcrtd:error.obj
 0002:000245fc       ??_C@_01EEMJAFIK@?6?$AA@   000000018008c5fc     msvcrtd:error.obj
 0002:00024600       ??_C@_02LLMPMKNF@?$DO?5?$AA@ 000000018008c600     msvcrtd:error.obj
 0002:00024608       ??_C@_08KJEDNCKC@?$CFs?$CFs?$CFs?$CFs?$AA@ 000000018008c608     msvcrtd:error.obj
 0002:00024618       ??_C@_0DE@OHJBPMBP@A?5variable?5is?5being?5used?5without@ 000000018008c618     msvcrtd:error.obj
 0002:00024678       ??_C@_0BJ@HEGAHDFO@Stack?5pointer?5corruption?$AA@ 000000018008c678     msvcrtd:userapi.obj
 0002:00024698       ??_C@_0CK@FEGOIOPB@Cast?5to?5smaller?5type?5causing?5los@ 000000018008c698     msvcrtd:userapi.obj
 0002:000246c8       ??_C@_0BI@CIGMDCBH@Stack?5memory?5corruption?$AA@ 000000018008c6c8     msvcrtd:userapi.obj
 0002:000246e0       ??_C@_0CK@CNLNOEPB@Local?5variable?5used?5before?5initi@ 000000018008c6e0     msvcrtd:userapi.obj
 0002:00024710       ??_C@_0BP@OGBCLIBO@Stack?5around?5_alloca?5corrupted?$AA@ 000000018008c710     msvcrtd:userapi.obj
 0002:00024730       ?ProcessDetach@NativeDll@<CrtImplementationDetails>@@0IB 000000018008c730     msvcrtd:initsect.obj
 0002:00024734       ?ProcessAttach@NativeDll@<CrtImplementationDetails>@@0IB 000000018008c734     msvcrtd:initsect.obj
 0002:00024738       ?ThreadAttach@NativeDll@<CrtImplementationDetails>@@0IB 000000018008c738     msvcrtd:initsect.obj
 0002:0002473c       ?ThreadDetach@NativeDll@<CrtImplementationDetails>@@0IB 000000018008c73c     msvcrtd:initsect.obj
 0002:00024740       ?ProcessVerifier@NativeDll@<CrtImplementationDetails>@@0IB 000000018008c740     msvcrtd:initsect.obj
 0002:00024744       ?LocalIdBitWidth@CrossScopeId@CodeViewInfo@@2IB 000000018008c744     msvcrtd:pdblkup.obj
 0002:00024748       ?IdScopeBitWidth@CrossScopeId@CodeViewInfo@@2IB 000000018008c748     msvcrtd:pdblkup.obj
 0002:0002474c       ?StartCrossScopeId@CrossScopeId@CodeViewInfo@@2IB 000000018008c74c     msvcrtd:pdblkup.obj
 0002:00024750       ?LocalIdMask@CrossScopeId@CodeViewInfo@@2IB 000000018008c750     msvcrtd:pdblkup.obj
 0002:00024754       ?ScopeIdMask@CrossScopeId@CodeViewInfo@@2IB 000000018008c754     msvcrtd:pdblkup.obj
 0002:00024758       ?MaxLocalId@CrossScopeId@CodeViewInfo@@2IB 000000018008c758     msvcrtd:pdblkup.obj
 0002:0002475c       ?MaxScopeId@CrossScopeId@CodeViewInfo@@2IB 000000018008c75c     msvcrtd:pdblkup.obj
 0002:000247b0       ??_C@_1BK@GAEMIDIL@?$AAA?$AAD?$AAV?$AAA?$AAP?$AAI?$AA3?$AA2?$AA?4?$AAD?$AAL?$AAL?$AA?$AA@ 000000018008c7b0     msvcrtd:pdblkup.obj
 0002:000247d0       ??_C@_0O@COHOBMLB@RegOpenKeyExW?$AA@ 000000018008c7d0     msvcrtd:pdblkup.obj
 0002:000247e0       ??_C@_0BB@GLNAEDBD@RegQueryValueExW?$AA@ 000000018008c7e0     msvcrtd:pdblkup.obj
 0002:000247f8       ??_C@_0M@HLOHPNFA@RegCloseKey?$AA@ 000000018008c7f8     msvcrtd:pdblkup.obj
 0002:00024810       ??_C@_1HE@HOJOLGOA@?$AAS?$AAO?$AAF?$AAT?$AAW?$AAA?$AAR?$AAE?$AA?2?$AAW?$AAo?$AAw?$AA6?$AA4?$AA3?$AA2?$AAN?$AAo?$AAd?$AAe?$AA?2?$AAM?$AAi?$AAc?$AAr?$AAo?$AAs?$AAo?$AAf?$AAt?$AA?2?$AAV@ 000000018008c810     msvcrtd:pdblkup.obj
 0002:00024888       ??_C@_1BG@EABPBLLF@?$AAP?$AAr?$AAo?$AAd?$AAu?$AAc?$AAt?$AAD?$AAi?$AAr?$AA?$AA@ 000000018008c888     msvcrtd:pdblkup.obj
 0002:000248c0       ??_C@_1BC@EOIMGOME@?$AAM?$AAS?$AAP?$AAD?$AAB?$AA1?$AA2?$AA0?$AA?$AA@ 000000018008c8c0     msvcrtd:pdblkup.obj
 0002:000248d8       ??_C@_0BB@KCIACLNC@PDBOpenValidate5?$AA@ 000000018008c8d8     msvcrtd:pdblkup.obj
 0002:000248ec       ??_C@_01KDCPPGHE@r?$AA@    000000018008c8ec     msvcrtd:pdblkup.obj
 0002:000248f0       GUID_ATLVer30              000000018008c8f0     atls:atlbase.obj
 0002:00024900       GUID_ATLVer70              000000018008c900     atls:atlbase.obj
 0002:00024910       GUID_ATLVer100             000000018008c910     atls:atlbase.obj
 0002:00024920       GUID_ATLVer110             000000018008c920     atls:atlbase.obj
 0002:00024930       ??_C@_1IC@ONKHOIDK@?$AAE?$AAR?$AAR?$AAO?$AAR?$AA?5?$AA?3?$AA?5?$AAU?$AAn?$AAa?$AAb?$AAl?$AAe?$AA?5?$AAt?$AAo?$AA?5?$AAi?$AAn?$AAi?$AAt?$AAi?$AAa?$AAl?$AAi?$AAz?$AAe?$AA?5?$AAc?$AAr?$AAi@ 000000018008c930     atls:atlbase.obj
 0002:000249c0       ?rgszNeverDelete@CRegParser@ATL@@1QBQEB_WB 000000018008c9c0     atls:stdafx.obj
 0002:00024a20       ??_C@_1M@EJNEECMJ@?$AAA?$AAp?$AAp?$AAI?$AAD?$AA?$AA@ 000000018008ca20     atls:stdafx.obj
 0002:00024a30       ??_C@_1M@KANJNLFF@?$AAC?$AAL?$AAS?$AAI?$AAD?$AA?$AA@ 000000018008ca30     atls:stdafx.obj
 0002:00024a40       ??_C@_1CK@OEKPKBNA@?$AAC?$AAo?$AAm?$AAp?$AAo?$AAn?$AAe?$AAn?$AAt?$AA?5?$AAC?$AAa?$AAt?$AAe?$AAg?$AAo?$AAr?$AAi?$AAe?$AAs?$AA?$AA@ 000000018008ca40     atls:stdafx.obj
 0002:00024a70       ??_C@_1BC@NKMMNMGL@?$AAF?$AAi?$AAl?$AAe?$AAT?$AAy?$AAp?$AAe?$AA?$AA@ 000000018008ca70     atls:stdafx.obj
 0002:00024a88       ??_C@_1BE@EKPAFMCP@?$AAI?$AAn?$AAt?$AAe?$AAr?$AAf?$AAa?$AAc?$AAe?$AA?$AA@ 000000018008ca88     atls:stdafx.obj
 0002:00024aa0       ??_C@_1BC@MAICEHGI@?$AAH?$AAa?$AAr?$AAd?$AAw?$AAa?$AAr?$AAe?$AA?$AA@ 000000018008caa0     atls:stdafx.obj
 0002:00024ab8       ??_C@_19HLLLM@?$AAM?$AAi?$AAm?$AAe?$AA?$AA@ 000000018008cab8     atls:stdafx.obj
 0002:00024ac8       ??_C@_17OMAOINJK@?$AAS?$AAA?$AAM?$AA?$AA@ 000000018008cac8     atls:stdafx.obj
 0002:00024ad0       ??_C@_1BC@IBECJAAI@?$AAS?$AAE?$AAC?$AAU?$AAR?$AAI?$AAT?$AAY?$AA?$AA@ 000000018008cad0     atls:stdafx.obj
 0002:00024ae8       ??_C@_1O@GBFINDKL@?$AAS?$AAY?$AAS?$AAT?$AAE?$AAM?$AA?$AA@ 000000018008cae8     atls:stdafx.obj
 0002:00024af8       ??_C@_1BC@EAHCMADO@?$AAS?$AAo?$AAf?$AAt?$AAw?$AAa?$AAr?$AAe?$AA?$AA@ 000000018008caf8     atls:stdafx.obj
 0002:00024b10       ??_C@_1BA@JIHHIEDE@?$AAT?$AAy?$AAp?$AAe?$AAL?$AAi?$AAb?$AA?$AA@ 000000018008cb10     atls:stdafx.obj
 0002:00024b20       ?chDirSep@ATL@@3_WB        000000018008cb20     atls:stdafx.obj
 0002:00024b24       ?chRightBracket@ATL@@3_WB  000000018008cb24     atls:stdafx.obj
 0002:00024b28       ?chLeftBracket@ATL@@3_WB   000000018008cb28     atls:stdafx.obj
 0002:00024b2c       ?chQuote@ATL@@3_WB         000000018008cb2c     atls:stdafx.obj
 0002:00024b30       ?chEquals@ATL@@3_WB        000000018008cb30     atls:stdafx.obj
 0002:00024b38       ?szStringVal@ATL@@3QEB_WEB 000000018008cb38     atls:stdafx.obj
 0002:00024b40       ??_C@_13HADIAKP@?$AAS?$AA?$AA@ 000000018008cb40     atls:stdafx.obj
 0002:00024b48       ?multiszStringVal@ATL@@3QEB_WEB 000000018008cb48     atls:stdafx.obj
 0002:00024b50       ??_C@_13LHMFKAAD@?$AAM?$AA?$AA@ 000000018008cb50     atls:stdafx.obj
 0002:00024b58       ?szDwordVal@ATL@@3QEB_WEB  000000018008cb58     atls:stdafx.obj
 0002:00024b60       ??_C@_13MKMNOPIJ@?$AAD?$AA?$AA@ 000000018008cb60     atls:stdafx.obj
 0002:00024b68       ?szBinaryVal@ATL@@3QEB_WEB 000000018008cb68     atls:stdafx.obj
 0002:00024b70       ??_C@_13OPKGLAFF@?$AAB?$AA?$AA@ 000000018008cb70     atls:stdafx.obj
 0002:00024b78       ?szValToken@ATL@@3QEB_WEB  000000018008cb78     atls:stdafx.obj
 0002:00024b80       ??_C@_17LLMMEOJD@?$AAV?$AAa?$AAl?$AA?$AA@ 000000018008cb80     atls:stdafx.obj
 0002:00024b88       ?szForceRemove@ATL@@3QEB_WEB 000000018008cb88     atls:stdafx.obj
 0002:00024b90       ??_C@_1BI@JFAIJMHL@?$AAF?$AAo?$AAr?$AAc?$AAe?$AAR?$AAe?$AAm?$AAo?$AAv?$AAe?$AA?$AA@ 000000018008cb90     atls:stdafx.obj
 0002:00024ba8       ?szNoRemove@ATL@@3QEB_WEB  000000018008cba8     atls:stdafx.obj
 0002:00024bb0       ??_C@_1BC@GCKHIPE@?$AAN?$AAo?$AAR?$AAe?$AAm?$AAo?$AAv?$AAe?$AA?$AA@ 000000018008cbb0     atls:stdafx.obj
 0002:00024bc8       ?szDelete@ATL@@3QEB_WEB    000000018008cbc8     atls:stdafx.obj
 0002:00024bd0       ??_C@_1O@JDLOHAN@?$AAD?$AAe?$AAl?$AAe?$AAt?$AAe?$AA?$AA@ 000000018008cbd0     atls:stdafx.obj
 0002:00024be0       _pRawDllMain               000000018008cbe0     mfcs120d:rawdllmainproxy.obj
 0002:00024ca0       ??_C@_0CJ@MFBCOCLI@Microsoft?5Foundation?5Classes?5C?$CL?$CL@ 000000018008cca0     mfcs120d:rawdllmainproxy.obj
 0002:00024cd0       ??_C@_0CO@JGJCIGFF@_pActualRawDllMain?5cannot?5be?5in?5@ 000000018008ccd0     mfcs120d:rawdllmainproxy.obj
 0002:00024d00       _load_config_used          000000018008cd00     msvcrtd:loadcfg.obj
 0002:000257c0       ??_R4CWin32Heap@ATL@@6B@   000000018008d7c0     Adapter.obj
 0002:000257f0       ??_R3CWin32Heap@ATL@@8     000000018008d7f0     Adapter.obj
 0002:00025808       ??_R2CWin32Heap@ATL@@8     000000018008d808     Adapter.obj
 0002:00025820       ??_R1A@?0A@EA@CWin32Heap@ATL@@8 000000018008d820     Adapter.obj
 0002:00025850       ??_R1A@?0A@EA@IAtlMemMgr@ATL@@8 000000018008d850     Adapter.obj
 0002:00025880       ??_R3IAtlMemMgr@ATL@@8     000000018008d880     Adapter.obj
 0002:00025898       ??_R2IAtlMemMgr@ATL@@8     000000018008d898     Adapter.obj
 0002:000258a8       ??_R1A@?0A@EA@IAtlStringMgr@ATL@@8 000000018008d8a8     Adapter.obj
 0002:000258d8       ??_R3IAtlStringMgr@ATL@@8  000000018008d8d8     Adapter.obj
 0002:000258f0       ??_R2IAtlStringMgr@ATL@@8  000000018008d8f0     Adapter.obj
 0002:00025900       ??_R4CAtlStringMgr@ATL@@6B@ 000000018008d900     Adapter.obj
 0002:00025930       ??_R3CAtlStringMgr@ATL@@8  000000018008d930     Adapter.obj
 0002:00025948       ??_R2CAtlStringMgr@ATL@@8  000000018008d948     Adapter.obj
 0002:00025960       ??_R1A@?0A@EA@CAtlStringMgr@ATL@@8 000000018008d960     Adapter.obj
 0002:00025990       ??_R4error_category@std@@6B@ 000000018008d990     Adapter.obj
 0002:000259c0       ??_R3error_category@std@@8 000000018008d9c0     Adapter.obj
 0002:000259d8       ??_R2error_category@std@@8 000000018008d9d8     Adapter.obj
 0002:000259e8       ??_R1A@?0A@EA@error_category@std@@8 000000018008d9e8     Adapter.obj
 0002:00025a18       ??_R4_Generic_error_category@std@@6B@ 000000018008da18     Adapter.obj
 0002:00025a48       ??_R3_Generic_error_category@std@@8 000000018008da48     Adapter.obj
 0002:00025a60       ??_R2_Generic_error_category@std@@8 000000018008da60     Adapter.obj
 0002:00025a78       ??_R1A@?0A@EA@_Generic_error_category@std@@8 000000018008da78     Adapter.obj
 0002:00025aa8       ??_R4_Iostream_error_category@std@@6B@ 000000018008daa8     Adapter.obj
 0002:00025ad8       ??_R3_Iostream_error_category@std@@8 000000018008dad8     Adapter.obj
 0002:00025af0       ??_R2_Iostream_error_category@std@@8 000000018008daf0     Adapter.obj
 0002:00025b18       ??_R1A@?0A@EA@_Iostream_error_category@std@@8 000000018008db18     Adapter.obj
 0002:00025b48       ??_R4_System_error_category@std@@6B@ 000000018008db48     Adapter.obj
 0002:00025b78       ??_R3_System_error_category@std@@8 000000018008db78     Adapter.obj
 0002:00025b90       ??_R2_System_error_category@std@@8 000000018008db90     Adapter.obj
 0002:00025bb8       ??_R1A@?0A@EA@_System_error_category@std@@8 000000018008dbb8     Adapter.obj
 0002:00025be8       ??_R4DerivedLock@@6B@      000000018008dbe8     DerivedLock.obj
 0002:00025c18       ??_R3DerivedLock@@8        000000018008dc18     DerivedLock.obj
 0002:00025c30       ??_R2DerivedLock@@8        000000018008dc30     DerivedLock.obj
 0002:00025c48       ??_R1A@?0A@EA@DerivedLock@@8 000000018008dc48     DerivedLock.obj
 0002:00025c78       ??_R1A@?0A@EA@LockBase@@8  000000018008dc78     DerivedLock.obj
 0002:00025ca8       ??_R3LockBase@@8           000000018008dca8     DerivedLock.obj
 0002:00025cc0       ??_R2LockBase@@8           000000018008dcc0     DerivedLock.obj
 0002:00025cd0       ??_R4CSpeedLimit@@6B@      000000018008dcd0     Global.obj
 0002:00025d00       ??_R3CSpeedLimit@@8        000000018008dd00     Global.obj
 0002:00025d18       ??_R2CSpeedLimit@@8        000000018008dd18     Global.obj
 0002:00025d28       ??_R1A@?0A@EA@CSpeedLimit@@8 000000018008dd28     Global.obj
 0002:00025d58       ??_R4CIocpKeyIoMgr@@6B@    000000018008dd58     IocpKeyIoMgr.obj
 0002:00025d88       ??_R3CIocpKeyIoMgr@@8      000000018008dd88     IocpKeyIoMgr.obj
 0002:00025da0       ??_R2CIocpKeyIoMgr@@8      000000018008dda0     IocpKeyIoMgr.obj
 0002:00025db0       ??_R1A@?0A@EA@CIocpKeyIoMgr@@8 000000018008ddb0     IocpKeyIoMgr.obj
 0002:00025de0       ??_R4CIocpServer@@6B@      000000018008dde0     IocpServer.obj
 0002:00025e10       ??_R3CIocpServer@@8        000000018008de10     IocpServer.obj
 0002:00025e28       ??_R2CIocpServer@@8        000000018008de28     IocpServer.obj
 0002:00025e38       ??_R1A@?0A@EA@CIocpServer@@8 000000018008de38     IocpServer.obj
 0002:00025e68       ??_R4CIocpServerFactory@@6B@ 000000018008de68     IocpServer.obj
 0002:00025e98       ??_R3CIocpServerFactory@@8 000000018008de98     IocpServer.obj
 0002:00025eb0       ??_R2CIocpServerFactory@@8 000000018008deb0     IocpServer.obj
 0002:00025ec0       ??_R1A@?0A@EA@CIocpServerFactory@@8 000000018008dec0     IocpServer.obj
 0002:00025ef0       ??_R4CIocpServerImpl@@6B@  000000018008def0     IocpServerImpl.obj
 0002:00025f20       ??_R3CIocpServerImpl@@8    000000018008df20     IocpServerImpl.obj
 0002:00025f38       ??_R2CIocpServerImpl@@8    000000018008df38     IocpServerImpl.obj
 0002:00025f50       ??_R1A@?0A@EA@CIocpServerImpl@@8 000000018008df50     IocpServerImpl.obj
 0002:00025f80       ??_R4LockBase@@6B@         000000018008df80     LockBase.obj
 0002:00025fb0       ??_R4SafeLock@@6B@         000000018008dfb0     SafeLock.obj
 0002:00025fe0       ??_R3SafeLock@@8           000000018008dfe0     SafeLock.obj
 0002:00025ff8       ??_R2SafeLock@@8           000000018008dff8     SafeLock.obj
 0002:00026008       ??_R1A@?0A@EA@SafeLock@@8  000000018008e008     SafeLock.obj
 0002:00026038       ??_R3CNoTrackObject@@8     000000018008e038     mfcs120d:dllmodul.obj
 0002:00026050       ??_R2CNoTrackObject@@8     000000018008e050     mfcs120d:dllmodul.obj
 0002:00026060       ??_R1A@?0A@EA@CNoTrackObject@@8 000000018008e060     mfcs120d:dllmodul.obj
 0002:00026088       ??_R4_AFX_DLL_MODULE_STATE@@6B@ 000000018008e088     mfcs120d:dllmodul.obj
 0002:000260b0       ??_R3_AFX_DLL_MODULE_STATE@@8 000000018008e0b0     mfcs120d:dllmodul.obj
 0002:000260c8       ??_R2_AFX_DLL_MODULE_STATE@@8 000000018008e0c8     mfcs120d:dllmodul.obj
 0002:000260e8       ??_R1A@?0A@EA@_AFX_DLL_MODULE_STATE@@8 000000018008e0e8     mfcs120d:dllmodul.obj
 0002:00026110       ??_R1A@?0A@EA@AFX_MODULE_STATE@@8 000000018008e110     mfcs120d:dllmodul.obj
 0002:00026138       ??_R3AFX_MODULE_STATE@@8   000000018008e138     mfcs120d:dllmodul.obj
 0002:00026150       ??_R2AFX_MODULE_STATE@@8   000000018008e150     mfcs120d:dllmodul.obj
 0002:00026168       ??_R4type_info@@6B@        000000018008e168     msvcrtd:ti_inst.obj
 0002:00026190       ??_R3type_info@@8          000000018008e190     msvcrtd:ti_inst.obj
 0002:000261a8       ??_R2type_info@@8          000000018008e1a8     msvcrtd:ti_inst.obj
 0002:000261b8       ??_R1A@?0A@EA@type_info@@8 000000018008e1b8     msvcrtd:ti_inst.obj
 0002:00026360       __rtc_iaa                  000000018008e360     msvcrtd:initsect.obj
 0002:00026698       __rtc_izz                  000000018008e698     msvcrtd:initsect.obj
 0002:000267a8       __rtc_taa                  000000018008e7a8     msvcrtd:initsect.obj
 0002:00026ae0       __rtc_tzz                  000000018008eae0     msvcrtd:initsect.obj
 0002:00033828       __pobjMapEntryFirst        000000018009b828     Adapter.obj
 0002:00033938       __pobjMapEntryLast         000000018009b938     Adapter.obj
 0003:00000000       _pIncludeInitManaged       000000018009c000     Adapter.obj
 0003:0000000c       ?m_nCategory@CTrace@ATL@@1IA 000000018009c00c     Adapter.obj
 0003:00000010       ?BeepOrNot@CGlobal@@2_NA   000000018009c010     Global.obj
 0003:00000020       ?PADDING@@3PAEA            000000018009c020     md5.obj
 0003:00000070       WinbaseIsolationAwarePrivateT_UnPgpgk 000000018009c070     mfcs120d:nolib.obj
 0003:00000080       __security_cookie          000000018009c080     msvcrtd:gs_cookie.obj
 0003:00000088       __security_cookie_complement 000000018009c088     msvcrtd:gs_cookie.obj
 0003:00000090       _fltused                   000000018009c090     msvcrtd:dllsupp.obj
 0003:00000098       ?_RTC_ErrorLevels@@3PAHA   000000018009c098     msvcrtd:error.obj
 0003:000000ac       __native_dllmain_reason    000000018009c0ac     msvcrtd:natstart.obj
 0003:000001c8       ??_R0?AVCWin32Heap@ATL@@@8 000000018009c1c8     Adapter.obj
 0003:000001f8       ??_R0?AUIAtlMemMgr@ATL@@@8 000000018009c1f8     Adapter.obj
 0003:00000228       ??_R0?AUIAtlStringMgr@ATL@@@8 000000018009c228     Adapter.obj
 0003:00000258       ??_R0?AVCAtlStringMgr@ATL@@@8 000000018009c258     Adapter.obj
 0003:00000288       ??_R0?AVerror_category@std@@@8 000000018009c288     Adapter.obj
 0003:000002c0       ??_R0?AV_Generic_error_category@std@@@8 000000018009c2c0     Adapter.obj
 0003:00000300       ??_R0?AV_Iostream_error_category@std@@@8 000000018009c300     Adapter.obj
 0003:00000340       ??_R0?AV_System_error_category@std@@@8 000000018009c340     Adapter.obj
 0003:00000380       ??_R0?AVDerivedLock@@@8    000000018009c380     DerivedLock.obj
 0003:000003a8       ??_R0?AVLockBase@@@8       000000018009c3a8     DerivedLock.obj
 0003:000003d0       ??_R0?AVCSpeedLimit@@@8    000000018009c3d0     Global.obj
 0003:000003f8       ??_R0?AVCIocpKeyIoMgr@@@8  000000018009c3f8     IocpKeyIoMgr.obj
 0003:00000428       ??_R0?AVCIocpServer@@@8    000000018009c428     IocpServer.obj
 0003:00000450       ??_R0?AVCIocpServerFactory@@@8 000000018009c450     IocpServer.obj
 0003:00000488       ??_R0?AVCIocpServerImpl@@@8 000000018009c488     IocpServerImpl.obj
 0003:000004b8       ??_R0?AVSafeLock@@@8       000000018009c4b8     SafeLock.obj
 0003:000004e0       ??_R0PEAVCMemoryException@@@8 000000018009c4e0     mfcs120d:dllmodul.obj
 0003:00000508       ??_R0?AVCNoTrackObject@@@8 000000018009c508     mfcs120d:dllmodul.obj
 0003:00000530       ??_R0?AV_AFX_DLL_MODULE_STATE@@@8 000000018009c530     mfcs120d:dllmodul.obj
 0003:00000560       ??_R0?AVAFX_MODULE_STATE@@@8 000000018009c560     mfcs120d:dllmodul.obj
 0003:00000588       ??_R0?AVtype_info@@@8      000000018009c588     msvcrtd:ti_inst.obj
 0003:000006e0       ?_pModule@ATL@@3PEAVCComModule@1@EA 000000018009c6e0     Adapter.obj
 0003:000006f0       ?_pPerfRegFunc@ATL@@3P6AJPEAUHINSTANCE__@@@ZEA 000000018009c6f0     Adapter.obj
 0003:00000700       ?_pPerfUnRegFunc@ATL@@3P6AJXZEA 000000018009c700     Adapter.obj
 0003:00000709       ?_AtlRegisterPerUser@ATL@@3_NA 000000018009c709     Adapter.obj
 0003:0000070a       ?m_bInitFailed@CAtlBaseModule@ATL@@2_NA 000000018009c70a     Adapter.obj
 0003:0000070c       ?ATL_CREATE_OBJECT@CComApartment@ATL@@2IA 000000018009c70c     Adapter.obj
 0003:00000710       ?_pAtlAutoThreadModule@ATL@@3PEAUIAtlAutoThreadModule@1@EA 000000018009c710     Adapter.obj
 0003:0000071c       ?m_nLevel@CTrace@ATL@@1IA  000000018009c71c     Adapter.obj
 0003:00000720       ?m_nLastCategory@CTrace@ATL@@1IA 000000018009c720     Adapter.obj
 0003:00000730       ?m_nMap@CTrace@ATL@@1PAUCategoryMap@12@A 000000018009c730     Adapter.obj
 0003:00002e30       ?s_pfnPrevHook@CNoUIAssertHook@ATL@@0P6AHHPEADPEAH@ZEA 000000018009ee30     Adapter.obj
 0003:00002e40       ?s_pLog@CFixedStringMgr@ATL@@2PEAVIFixedStringLog@2@EA 000000018009ee40     Adapter.obj
 0003:00002e50       ?_pAtlModule@ATL@@3PEAVCAtlModule@1@EA 000000018009ee50     Adapter.obj
 0003:00002e60       ?m_libid@CAtlModule@ATL@@2U_GUID@@A 000000018009ee60     Adapter.obj
 0003:00002e74       ?atlTraceGeneral@ATL@@3V?$CTraceCategoryEx@$00$0A@@1@A 000000018009ee74     Adapter.obj
 0003:00002e78       ?atlTraceCOM@ATL@@3V?$CTraceCategoryEx@$01$0A@@1@A 000000018009ee78     Adapter.obj
 0003:00002e7c       ?atlTraceQI@ATL@@3V?$CTraceCategoryEx@$03$0A@@1@A 000000018009ee7c     Adapter.obj
 0003:00002e80       ?atlTraceRegistrar@ATL@@3V?$CTraceCategoryEx@$07$0A@@1@A 000000018009ee80     Adapter.obj
 0003:00002e84       ?atlTraceRefcount@ATL@@3V?$CTraceCategoryEx@$0BA@$0A@@1@A 000000018009ee84     Adapter.obj
 0003:00002e88       ?atlTraceWindowing@ATL@@3V?$CTraceCategoryEx@$0CA@$0A@@1@A 000000018009ee88     Adapter.obj
 0003:00002e8c       ?atlTraceControls@ATL@@3V?$CTraceCategoryEx@$0EA@$0A@@1@A 000000018009ee8c     Adapter.obj
 0003:00002e90       ?atlTraceHosting@ATL@@3V?$CTraceCategoryEx@$0IA@$0A@@1@A 000000018009ee90     Adapter.obj
 0003:00002e94       ?atlTraceDBClient@ATL@@3V?$CTraceCategoryEx@$0BAA@$0A@@1@A 000000018009ee94     Adapter.obj
 0003:00002e98       ?atlTraceDBProvider@ATL@@3V?$CTraceCategoryEx@$0CAA@$0A@@1@A 000000018009ee98     Adapter.obj
 0003:00002e9c       ?atlTraceSnapin@ATL@@3V?$CTraceCategoryEx@$0EAA@$0A@@1@A 000000018009ee9c     Adapter.obj
 0003:00002ea0       ?atlTraceNotImpl@ATL@@3V?$CTraceCategoryEx@$0IAA@$0A@@1@A 000000018009eea0     Adapter.obj
 0003:00002ea4       ?atlTraceAllocation@ATL@@3V?$CTraceCategoryEx@$0BAAA@$0A@@1@A 000000018009eea4     Adapter.obj
 0003:00002ea8       ?atlTraceException@ATL@@3V?$CTraceCategoryEx@$0CAAA@$0A@@1@A 000000018009eea8     Adapter.obj
 0003:00002eac       ?atlTraceTime@ATL@@3V?$CTraceCategoryEx@$0EAAA@$0A@@1@A 000000018009eeac     Adapter.obj
 0003:00002eb0       ?atlTraceCache@ATL@@3V?$CTraceCategoryEx@$0IAAA@$0A@@1@A 000000018009eeb0     Adapter.obj
 0003:00002eb4       ?atlTraceStencil@ATL@@3V?$CTraceCategoryEx@$0BAAAA@$0A@@1@A 000000018009eeb4     Adapter.obj
 0003:00002eb8       ?atlTraceString@ATL@@3V?$CTraceCategoryEx@$0CAAAA@$0A@@1@A 000000018009eeb8     Adapter.obj
 0003:00002ebc       ?atlTraceMap@ATL@@3V?$CTraceCategoryEx@$0EAAAA@$0A@@1@A 000000018009eebc     Adapter.obj
 0003:00002ec0       ?atlTraceUtil@ATL@@3V?$CTraceCategoryEx@$0IAAAA@$0A@@1@A 000000018009eec0     Adapter.obj
 0003:00002ec4       ?atlTraceSecurity@ATL@@3V?$CTraceCategoryEx@$0BAAAAA@$0A@@1@A 000000018009eec4     Adapter.obj
 0003:00002ec8       ?atlTraceSync@ATL@@3V?$CTraceCategoryEx@$0CAAAAA@$0A@@1@A 000000018009eec8     Adapter.obj
 0003:00002ecc       ?atlTraceISAPI@ATL@@3V?$CTraceCategoryEx@$0EAAAAA@$0A@@1@A 000000018009eecc     Adapter.obj
 0003:00002ed0       ?_AtlComModule@ATL@@3VCAtlComModule@1@A 000000018009eed0     Adapter.obj
 0003:00002f30       ?_AtlWinModule@ATL@@3VCAtlWinModule@1@A 000000018009ef30     Adapter.obj
 0003:00002f86       ?isInitialized@CAtlStringMgr@ATL@@0_NA 000000018009ef86     Adapter.obj
 0003:00002f88       ?strHeap@?1??GetInstance@CAtlStringMgr@ATL@@SAPEAUIAtlStringMgr@3@XZ@4VCWin32Heap@3@A 000000018009ef88     Adapter.obj
 0003:00002fa4       ??_B?1??GetInstance@CAtlStringMgr@ATL@@SAPEAUIAtlStringMgr@2@XZ@51 000000018009efa4     Adapter.obj
 0003:00002fa8       ?strMgr@?1??GetInstance@CAtlStringMgr@ATL@@SAPEAUIAtlStringMgr@3@XZ@4V23@A 000000018009efa8     Adapter.obj
 0003:00002ff0       ?m_csTransFmt@@3VDerivedLock@@A 000000018009eff0     Adapter.obj
 0003:00003030       ?_Generic_object@?$_Error_objects@H@std@@2V_Generic_error_category@2@A 000000018009f030     Adapter.obj
 0003:00003040       ?_Iostream_object@?$_Error_objects@H@std@@2V_Iostream_error_category@2@A 000000018009f040     Adapter.obj
 0003:00003050       ?_System_object@?$_Error_objects@H@std@@2V_System_error_category@2@A 000000018009f050     Adapter.obj
 0003:00003060       ?id@?$num_put@DV?$back_insert_iterator@V?$basic_string@DU?$char_traits@D@std@@V?$allocator@D@2@@std@@@std@@@std@@2V0locale@2@A 000000018009f060     Adapter.obj
 0003:00003070       ?id@?$num_put@_WV?$back_insert_iterator@V?$basic_string@_WU?$char_traits@_W@std@@V?$allocator@_W@2@@std@@@std@@@std@@2V0locale@2@A 000000018009f070     Adapter.obj
 0003:00003080       ?g_nGlobalKey@@3HA         000000018009f080     DoubleListEx.obj
 0003:00003088       ?g_csGlobalKey@@3VDerivedLock@@A 000000018009f088     DoubleListEx.obj
 0003:000030d0       ?g_csMsgId@@3VDerivedLock@@A 000000018009f0d0     Global.obj
 0003:00003128       ?g_nUniqueKey@@3HA         000000018009f128     IocpKeyIoMgr.obj
 0003:0000312c       ?g_nUniqueIo@@3HA          000000018009f12c     IocpKeyIoMgr.obj
 0003:00003138       ?g_csUniqueKey@@3VDerivedLock@@A 000000018009f138     IocpKeyIoMgr.obj
 0003:00003168       ?g_csUniqueIo@@3VDerivedLock@@A 000000018009f168     IocpKeyIoMgr.obj
 0003:000031b8       ?g_mapBlackIp@@3V?$map@V?$basic_string@DU?$char_traits@D@std@@V?$allocator@D@2@@std@@HU?$less@V?$basic_string@DU?$char_traits@D@std@@V?$allocator@D@2@@std@@@2@V?$allocator@U?$pair@$$CBV?$basic_string@DU?$char_traits@D@std@@V?$allocator@D@2@@std@@H@std@@@2@@std@@A 000000018009f1b8     IocpServer.obj
 0003:000031d0       ?cs_BlackIp@@3VDerivedLock@@A 000000018009f1d0     IocpServer.obj
 0003:00003234       __@@_PchSym_@00@UdlipUcgyUAAxlnnlmUABwveUABxlwvUgifmpUmvghvieviUrlxkhvieviUwvyftUhgwzucOlyq@9894DAA8519CFED7 000000018009f234     StdAfx.obj
 0003:0000323c       ?WM_DESTROYMODELESS@CDHtmlDialog@@1IA 000000018009f23c     mfcs120d:nolib.obj
 0003:00003240       WinbaseIsolationAwarePrivateT_SpeRNgRQnPgpgk 000000018009f240     mfcs120d:nolib.obj
 0003:00003244       WinbaseIsolationAwarePrivateT_SpYRNahcpNYYRQ 000000018009f244     mfcs120d:nolib.obj
 0003:00003248       __afxForceEXCLUDE          000000018009f248     mfcs120d:nolib.obj
 0003:0000324c       ?__mixedModuleStartup@@3HA 000000018009f24c     mfcs120d:dllmodul.obj
 0003:00003250       __afxForceUSRDLL           000000018009f250     mfcs120d:dllmodul.obj
 0003:00003398       __afxForceSTDAFX           000000018009f398     mfcs120d:stdafx.obj
 0003:00003920       ?wsprintffp@@3P6AHPEADPEBDZZEA 000000018009f920     msvcrtd:error.obj
 0003:00003938       ?__type_info_root_node@@3U__type_info_node@@A 000000018009f938     msvcrtd:tncleanup.obj
 0003:00003960       ?_AtlBaseModule@ATL@@3VCAtlBaseModule@1@A 000000018009f960     atls:atlbase.obj
 0003:000039c0       __@@_PchSym_@00@UwwUexgllohUexHoryhUhsrkUzgonuxUhixUzgoUzgohUlyqBiUznwGEUhgwzucOlyq@84C1280690CF6209 000000018009f9c0     atls:stdafx.obj
 0003:000039c8       __native_startup_lock      000000018009f9c8     <common>
 0003:000039dc       __native_startup_state     000000018009f9dc     <common>
 0003:000039e0       __dyn_tls_init_callback    000000018009f9e0     <common>
 0003:000039f8       __onexitend                000000018009f9f8     <common>
 0003:00003a10       __onexitbegin              000000018009fa10     <common>
 0005:00000000       __imp_MultiByteToWideChar  00000001800a9000     kernel32:KERNEL32.dll
 0005:00000008       __imp_OutputDebugStringW   00000001800a9008     kernel32:KERNEL32.dll
 0005:00000010       __imp_IsDebuggerPresent    00000001800a9010     kernel32:KERNEL32.dll
 0005:00000018       __imp_EncodePointer        00000001800a9018     kernel32:KERNEL32.dll
 0005:00000020       __imp_LocalFree            00000001800a9020     kernel32:KERNEL32.dll
 0005:00000028       __imp_LocalAlloc           00000001800a9028     kernel32:KERNEL32.dll
 0005:00000030       __imp_QueryActCtxW         00000001800a9030     kernel32:KERNEL32.dll
 0005:00000038       __imp_FindActCtxSectionStringW 00000001800a9038     kernel32:KERNEL32.dll
 0005:00000040       __imp_DeactivateActCtx     00000001800a9040     kernel32:KERNEL32.dll
 0005:00000048       __imp_ActivateActCtx       00000001800a9048     kernel32:KERNEL32.dll
 0005:00000050       __imp_CreateActCtxW        00000001800a9050     kernel32:KERNEL32.dll
 0005:00000058       __imp_LoadLibraryW         00000001800a9058     kernel32:KERNEL32.dll
 0005:00000060       __imp_GetModuleHandleExW   00000001800a9060     kernel32:KERNEL32.dll
 0005:00000068       __imp_GetModuleFileNameW   00000001800a9068     kernel32:KERNEL32.dll
 0005:00000070       __imp_SetLastError         00000001800a9070     kernel32:KERNEL32.dll
 0005:00000078       __imp_OutputDebugStringA   00000001800a9078     kernel32:KERNEL32.dll
 0005:00000080       __imp_GetSystemInfo        00000001800a9080     kernel32:KERNEL32.dll
 0005:00000088       __imp_CreateThread         00000001800a9088     kernel32:KERNEL32.dll
 0005:00000090       __imp_PostQueuedCompletionStatus 00000001800a9090     kernel32:KERNEL32.dll
 0005:00000098       __imp_GetQueuedCompletionStatus 00000001800a9098     kernel32:KERNEL32.dll
 0005:000000a0       __imp_CreateIoCompletionPort 00000001800a90a0     kernel32:KERNEL32.dll
 0005:000000a8       __imp_GetModuleHandleA     00000001800a90a8     kernel32:KERNEL32.dll
 0005:000000b0       __imp_LeaveCriticalSection 00000001800a90b0     kernel32:KERNEL32.dll
 0005:000000b8       __imp_GetModuleHandleW     00000001800a90b8     kernel32:KERNEL32.dll
 0005:000000c0       __imp_VirtualQuery         00000001800a90c0     kernel32:KERNEL32.dll
 0005:000000c8       __imp_GetSystemTimeAsFileTime 00000001800a90c8     kernel32:KERNEL32.dll
 0005:000000d0       __imp_GetCurrentProcessId  00000001800a90d0     kernel32:KERNEL32.dll
 0005:000000d8       __imp_QueryPerformanceCounter 00000001800a90d8     kernel32:KERNEL32.dll
 0005:000000e0       __imp_EnterCriticalSection 00000001800a90e0     kernel32:KERNEL32.dll
 0005:000000e8       __imp_InitializeCriticalSection 00000001800a90e8     kernel32:KERNEL32.dll
 0005:000000f0       __imp_CreateEventA         00000001800a90f0     kernel32:KERNEL32.dll
 0005:000000f8       __imp_ResetEvent           00000001800a90f8     kernel32:KERNEL32.dll
 0005:00000100       __imp_SetEvent             00000001800a9100     kernel32:KERNEL32.dll
 0005:00000108       __imp_CloseHandle          00000001800a9108     kernel32:KERNEL32.dll
 0005:00000110       __imp_WideCharToMultiByte  00000001800a9110     kernel32:KERNEL32.dll
 0005:00000118       __imp_LoadLibraryExW       00000001800a9118     kernel32:KERNEL32.dll
 0005:00000120       __imp_FileTimeToSystemTime 00000001800a9120     kernel32:KERNEL32.dll
 0005:00000128       __imp_WritePrivateProfileStringA 00000001800a9128     kernel32:KERNEL32.dll
 0005:00000130       __imp_GetPrivateProfileStringA 00000001800a9130     kernel32:KERNEL32.dll
 0005:00000138       __imp_GetPrivateProfileIntA 00000001800a9138     kernel32:KERNEL32.dll
 0005:00000140       __imp_LoadLibraryA         00000001800a9140     kernel32:KERNEL32.dll
 0005:00000148       __imp_WaitForMultipleObjects 00000001800a9148     kernel32:KERNEL32.dll
 0005:00000150       __imp_GlobalMemoryStatus   00000001800a9150     kernel32:KERNEL32.dll
 0005:00000158       __imp_GetProcAddress       00000001800a9158     kernel32:KERNEL32.dll
 0005:00000160       __imp_GetModuleFileNameA   00000001800a9160     kernel32:KERNEL32.dll
 0005:00000168       __imp_FreeLibrary          00000001800a9168     kernel32:KERNEL32.dll
 0005:00000170       __imp_GetTickCount         00000001800a9170     kernel32:KERNEL32.dll
 0005:00000178       __imp_GetLocalTime         00000001800a9178     kernel32:KERNEL32.dll
 0005:00000180       __imp_GetCurrentThreadId   00000001800a9180     kernel32:KERNEL32.dll
 0005:00000188       __imp_Sleep                00000001800a9188     kernel32:KERNEL32.dll
 0005:00000190       __imp_WaitForSingleObject  00000001800a9190     kernel32:KERNEL32.dll
 0005:00000198       __imp_DeleteCriticalSection 00000001800a9198     kernel32:KERNEL32.dll
 0005:000001a0       __imp_InitializeCriticalSectionAndSpinCount 00000001800a91a0     kernel32:KERNEL32.dll
 0005:000001a8       __imp_GetProcessHeap       00000001800a91a8     kernel32:KERNEL32.dll
 0005:000001b0       __imp_HeapSize             00000001800a91b0     kernel32:KERNEL32.dll
 0005:000001b8       __imp_HeapFree             00000001800a91b8     kernel32:KERNEL32.dll
 0005:000001c0       __imp_HeapReAlloc          00000001800a91c0     kernel32:KERNEL32.dll
 0005:000001c8       __imp_HeapAlloc            00000001800a91c8     kernel32:KERNEL32.dll
 0005:000001d0       __imp_HeapDestroy          00000001800a91d0     kernel32:KERNEL32.dll
 0005:000001d8       __imp_GetLastError         00000001800a91d8     kernel32:KERNEL32.dll
 0005:000001e0       __imp_RaiseException       00000001800a91e0     kernel32:KERNEL32.dll
 0005:000001e8       __imp_Beep                 00000001800a91e8     kernel32:KERNEL32.dll
 0005:000001f0       __imp_DecodePointer        00000001800a91f0     kernel32:KERNEL32.dll
 0005:000001f8       __imp_CreateDirectoryA     00000001800a91f8     kernel32:KERNEL32.dll
 0005:00000200       __imp_IsProcessorFeaturePresent 00000001800a9200     kernel32:KERNEL32.dll
 0005:00000208       \177KERNEL32_NULL_THUNK_DATA 00000001800a9208     kernel32:KERNEL32.dll
 0005:000002c8       __imp_?GetInstance@CLogMgr@@SAAEAVCLogMgrBase@@XZ 00000001800a92c8     LogMgr64:LogMgr64.dll
 0005:000002d0       \177LogMgr64_NULL_THUNK_DATA 00000001800a92d0     LogMgr64:LogMgr64.dll
 0005:00000328       __imp_?_Syserror_map@std@@YAPEBDH@Z 00000001800a9328     msvcprtd:MSVCP120D.dll
 0005:00000330       __imp_??0id@locale@std@@QEAA@_K@Z 00000001800a9330     msvcprtd:MSVCP120D.dll
 0005:00000338       __imp_?_Xout_of_range@std@@YAXPEBD@Z 00000001800a9338     msvcprtd:MSVCP120D.dll
 0005:00000340       __imp_?_Xlength_error@std@@YAXPEBD@Z 00000001800a9340     msvcprtd:MSVCP120D.dll
 0005:00000348       __imp_?_Xbad_alloc@std@@YAXXZ 00000001800a9348     msvcprtd:MSVCP120D.dll
 0005:00000350       __imp_?_Orphan_all@_Container_base12@std@@QEAAXXZ 00000001800a9350     msvcprtd:MSVCP120D.dll
 0005:00000358       __imp_?_Getpfirst@_Container_base12@std@@QEBAPEAPEAU_Iterator_base12@2@XZ 00000001800a9358     msvcprtd:MSVCP120D.dll
 0005:00000360       __imp_??1_Container_base12@std@@QEAA@XZ 00000001800a9360     msvcprtd:MSVCP120D.dll
 0005:00000368       __imp_??0_Container_base12@std@@QEAA@XZ 00000001800a9368     msvcprtd:MSVCP120D.dll
 0005:00000370       __imp_?_Debug_message@std@@YAXPEB_W0I@Z 00000001800a9370     msvcprtd:MSVCP120D.dll
 0005:00000378       __imp_??1_Lockit@std@@QEAA@XZ 00000001800a9378     msvcprtd:MSVCP120D.dll
 0005:00000380       __imp_??0_Lockit@std@@QEAA@H@Z 00000001800a9380     msvcprtd:MSVCP120D.dll
 0005:00000388       __imp_?_Winerror_map@std@@YAPEBDH@Z 00000001800a9388     msvcprtd:MSVCP120D.dll
 0005:00000390       \177MSVCP120D_NULL_THUNK_DATA 00000001800a9390     msvcprtd:MSVCP120D.dll
 0005:000003f8       __imp__CrtSetCheckCount    00000001800a93f8     msvcrtd:MSVCR120D.dll
 0005:00000400       __imp__initterm            00000001800a9400     msvcrtd:MSVCR120D.dll
 0005:00000408       __imp__initterm_e          00000001800a9408     msvcrtd:MSVCR120D.dll
 0005:00000410       __imp_?_type_info_dtor_internal_method@type_info@@QEAAXXZ 00000001800a9410     msvcrtd:MSVCR120D.dll
 0005:00000418       __imp___clean_type_info_names_internal 00000001800a9418     msvcrtd:MSVCR120D.dll
 0005:00000420       __imp__wmakepath_s         00000001800a9420     msvcrtd:MSVCR120D.dll
 0005:00000428       __imp__wsplitpath_s        00000001800a9428     msvcrtd:MSVCR120D.dll
 0005:00000430       __imp__mktime64            00000001800a9430     msvcrtd:MSVCR120D.dll
 0005:00000438       __imp__localtime64         00000001800a9438     msvcrtd:MSVCR120D.dll
 0005:00000440       __imp_atoi                 00000001800a9440     msvcrtd:MSVCR120D.dll
 0005:00000448       __imp_sscanf               00000001800a9448     msvcrtd:MSVCR120D.dll
 0005:00000450       __imp_wcsncpy              00000001800a9450     msvcrtd:MSVCR120D.dll
 0005:00000458       __imp_strstr               00000001800a9458     msvcrtd:MSVCR120D.dll
 0005:00000460       __imp_strncpy              00000001800a9460     msvcrtd:MSVCR120D.dll
 0005:00000468       __imp_strcat               00000001800a9468     msvcrtd:MSVCR120D.dll
 0005:00000470       __imp_memcmp               00000001800a9470     msvcrtd:MSVCR120D.dll
 0005:00000478       __imp_isalnum              00000001800a9478     msvcrtd:MSVCR120D.dll
 0005:00000480       __imp_isdigit              00000001800a9480     msvcrtd:MSVCR120D.dll
 0005:00000488       __imp__invalid_parameter   00000001800a9488     msvcrtd:MSVCR120D.dll
 0005:00000490       __imp__beginthreadex       00000001800a9490     msvcrtd:MSVCR120D.dll
 0005:00000498       __imp__free_dbg            00000001800a9498     msvcrtd:MSVCR120D.dll
 0005:000004a0       __imp__CxxThrowException   00000001800a94a0     msvcrtd:MSVCR120D.dll
 0005:000004a8       __imp__hypot               00000001800a94a8     msvcrtd:MSVCR120D.dll
 0005:000004b0       __imp__CrtDbgReportW       00000001800a94b0     msvcrtd:MSVCR120D.dll
 0005:000004b8       __imp__time64              00000001800a94b8     msvcrtd:MSVCR120D.dll
 0005:000004c0       __imp_free                 00000001800a94c0     msvcrtd:MSVCR120D.dll
 0005:000004c8       __imp__ui64toa             00000001800a94c8     msvcrtd:MSVCR120D.dll
 0005:000004d0       __imp__i64toa              00000001800a94d0     msvcrtd:MSVCR120D.dll
 0005:000004d8       __imp_swprintf_s           00000001800a94d8     msvcrtd:MSVCR120D.dll
 0005:000004e0       __imp_sprintf              00000001800a94e0     msvcrtd:MSVCR120D.dll
 0005:000004e8       __imp__vsnprintf_s         00000001800a94e8     msvcrtd:MSVCR120D.dll
 0005:000004f0       __imp_fgets                00000001800a94f0     msvcrtd:MSVCR120D.dll
 0005:000004f8       __imp_wcslen               00000001800a94f8     msvcrtd:MSVCR120D.dll
 0005:00000500       __imp_wcscpy_s             00000001800a9500     msvcrtd:MSVCR120D.dll
 0005:00000508       __imp_memmove              00000001800a9508     msvcrtd:MSVCR120D.dll
 0005:00000510       __imp_strlen               00000001800a9510     msvcrtd:MSVCR120D.dll
 0005:00000518       __imp_strcpy               00000001800a9518     msvcrtd:MSVCR120D.dll
 0005:00000520       __imp_memset               00000001800a9520     msvcrtd:MSVCR120D.dll
 0005:00000528       __imp_memcpy               00000001800a9528     msvcrtd:MSVCR120D.dll
 0005:00000530       __imp_memchr               00000001800a9530     msvcrtd:MSVCR120D.dll
 0005:00000538       __imp_tolower              00000001800a9538     msvcrtd:MSVCR120D.dll
 0005:00000540       __imp_toupper              00000001800a9540     msvcrtd:MSVCR120D.dll
 0005:00000548       __imp__purecall            00000001800a9548     msvcrtd:MSVCR120D.dll
 0005:00000550       __imp__malloc_dbg          00000001800a9550     msvcrtd:MSVCR120D.dll
 0005:00000558       __imp__amsg_exit           00000001800a9558     msvcrtd:MSVCR120D.dll
 0005:00000560       __imp___CppXcptFilter      00000001800a9560     msvcrtd:MSVCR120D.dll
 0005:00000568       __imp_?terminate@@YAXXZ    00000001800a9568     msvcrtd:MSVCR120D.dll
 0005:00000570       __imp__CRT_RTC_INITW       00000001800a9570     msvcrtd:MSVCR120D.dll
 0005:00000578       __imp___crtCapturePreviousContext 00000001800a9578     msvcrtd:MSVCR120D.dll
 0005:00000580       __imp___C_specific_handler 00000001800a9580     msvcrtd:MSVCR120D.dll
 0005:00000588       __imp___crtTerminateProcess 00000001800a9588     msvcrtd:MSVCR120D.dll
 0005:00000590       __imp___crtUnhandledException 00000001800a9590     msvcrtd:MSVCR120D.dll
 0005:00000598       __imp___crt_debugger_hook  00000001800a9598     msvcrtd:MSVCR120D.dll
 0005:000005a0       __imp__onexit              00000001800a95a0     msvcrtd:MSVCR120D.dll
 0005:000005a8       __imp___dllonexit          00000001800a95a8     msvcrtd:MSVCR120D.dll
 0005:000005b0       __imp__unlock              00000001800a95b0     msvcrtd:MSVCR120D.dll
 0005:000005b8       __imp__calloc_dbg          00000001800a95b8     msvcrtd:MSVCR120D.dll
 0005:000005c0       __imp___CxxFrameHandler3   00000001800a95c0     msvcrtd:MSVCR120D.dll
 0005:000005c8       __imp__lock                00000001800a95c8     msvcrtd:MSVCR120D.dll
 0005:000005d0       __imp__recalloc            00000001800a95d0     msvcrtd:MSVCR120D.dll
 0005:000005d8       __imp_memmove_s            00000001800a95d8     msvcrtd:MSVCR120D.dll
 0005:000005e0       __imp_itoa                 00000001800a95e0     msvcrtd:MSVCR120D.dll
 0005:000005e0       __imp__itoa                00000001800a95e0     msvcrtd:MSVCR120D.dll
 0005:000005e8       __imp__ltoa                00000001800a95e8     msvcrtd:MSVCR120D.dll
 0005:000005e8       __imp_ltoa                 00000001800a95e8     msvcrtd:MSVCR120D.dll
 0005:000005f0       __imp_strnicmp             00000001800a95f0     msvcrtd:MSVCR120D.dll
 0005:000005f0       __imp__strnicmp            00000001800a95f0     msvcrtd:MSVCR120D.dll
 0005:000005f8       __imp___crtCaptureCurrentContext 00000001800a95f8     msvcrtd:MSVCR120D.dll
 0005:00000600       \177MSVCR120D_NULL_THUNK_DATA 00000001800a9600     msvcrtd:MSVCR120D.dll
 0005:000006c0       __imp_SysFreeString        00000001800a96c0     oleaut32:OLEAUT32.dll
 0005:000006c8       __imp_VariantTimeToSystemTime 00000001800a96c8     oleaut32:OLEAUT32.dll
 0005:000006d0       __imp_SystemTimeToVariantTime 00000001800a96d0     oleaut32:OLEAUT32.dll
 0005:000006d8       \177OLEAUT32_NULL_THUNK_DATA 00000001800a96d8     oleaut32:OLEAUT32.dll
 0005:00000730       __imp_SHFileOperationA     00000001800a9730     shell32:SHELL32.dll
 0005:00000738       \177SHELL32_NULL_THUNK_DATA 00000001800a9738     shell32:SHELL32.dll
 0005:00000790       __imp_StrStrIA             00000001800a9790     shlwapi:SHLWAPI.dll
 0005:00000798       __imp_PathFileExistsA      00000001800a9798     shlwapi:SHLWAPI.dll
 0005:000007a0       \177SHLWAPI_NULL_THUNK_DATA 00000001800a97a0     shlwapi:SHLWAPI.dll
 0005:000007f8       __imp_UnregisterClassA     00000001800a97f8     user32:USER32.dll
 0005:00000800       __imp_MessageBoxA          00000001800a9800     user32:USER32.dll
 0005:00000808       \177USER32_NULL_THUNK_DATA 00000001800a9808     user32:USER32.dll
 0005:00000860       __imp_PlaySoundA           00000001800a9860     winmm:WINMM.dll
 0005:00000868       \177WINMM_NULL_THUNK_DATA  00000001800a9868     winmm:WINMM.dll
 0005:000008c0       __imp_WSASocketA           00000001800a98c0     ws2_32:WS2_32.dll
 0005:000008c8       __imp_WSAIoctl             00000001800a98c8     ws2_32:WS2_32.dll
 0005:000008d0       __imp_WSAEventSelect       00000001800a98d0     ws2_32:WS2_32.dll
 0005:000008d8       __imp_WSACloseEvent        00000001800a98d8     ws2_32:WS2_32.dll
 0005:000008e0       __imp_setsockopt           00000001800a98e0     ws2_32:WS2_32.dll
 0005:000008e8       __imp_ntohs                00000001800a98e8     ws2_32:WS2_32.dll
 0005:000008f0       __imp_listen               00000001800a98f0     ws2_32:WS2_32.dll
 0005:000008f8       __imp_htons                00000001800a98f8     ws2_32:WS2_32.dll
 0005:00000900       __imp_bind                 00000001800a9900     ws2_32:WS2_32.dll
 0005:00000908       __imp_WSASend              00000001800a9908     ws2_32:WS2_32.dll
 0005:00000910       __imp_WSARecv              00000001800a9910     ws2_32:WS2_32.dll
 0005:00000918       __imp_WSAGetLastError      00000001800a9918     ws2_32:WS2_32.dll
 0005:00000920       __imp_shutdown             00000001800a9920     ws2_32:WS2_32.dll
 0005:00000928       __imp_gethostbyname        00000001800a9928     ws2_32:WS2_32.dll
 0005:00000930       __imp_gethostbyaddr        00000001800a9930     ws2_32:WS2_32.dll
 0005:00000938       __imp_inet_ntoa            00000001800a9938     ws2_32:WS2_32.dll
 0005:00000940       __imp_htonl                00000001800a9940     ws2_32:WS2_32.dll
 0005:00000948       __imp_closesocket          00000001800a9948     ws2_32:WS2_32.dll
 0005:00000950       __imp_WSAStartup           00000001800a9950     ws2_32:WS2_32.dll
 0005:00000958       __imp_WSACleanup           00000001800a9958     ws2_32:WS2_32.dll
 0005:00000960       \177WS2_32_NULL_THUNK_DATA 00000001800a9960     ws2_32:WS2_32.dll
 0005:000009d8       __imp_?CompareNoCase@?$CStringT@DV?$StrTraitMFC_DLL@DV?$ChTraitsCRT@D@ATL@@@@@ATL@@QEBAHPEBD@Z 00000001800a99d8     mfc120d:mfc120d.dll
 0005:000009e0       __imp_?Replace@?$CStringT@DV?$StrTraitMFC_DLL@DV?$ChTraitsCRT@D@ATL@@@@@ATL@@QEAAHDD@Z 00000001800a99e0     mfc120d:mfc120d.dll
 0005:000009e8       __imp_?Right@?$CStringT@DV?$StrTraitMFC_DLL@DV?$ChTraitsCRT@D@ATL@@@@@ATL@@QEBA?AV12@H@Z 00000001800a99e8     mfc120d:mfc120d.dll
 0005:000009f0       __imp_??0CFileFind@@QEAA@XZ 00000001800a99f0     mfc120d:mfc120d.dll
 0005:000009f8       __imp_??1CFileFind@@UEAA@XZ 00000001800a99f8     mfc120d:mfc120d.dll
 0005:00000a00       __imp_?GetFilePath@CFileFind@@UEBA?AV?$CStringT@DV?$StrTraitMFC_DLL@DV?$ChTraitsCRT@D@ATL@@@@@ATL@@XZ 00000001800a9a00     mfc120d:mfc120d.dll
 0005:00000a08       __imp_?GetCreationTime@CFileFind@@UEBAHAEAVCTime@ATL@@@Z 00000001800a9a08     mfc120d:mfc120d.dll
 0005:00000a10       __imp_?IsDots@CFileFind@@UEBAHXZ 00000001800a9a10     mfc120d:mfc120d.dll
 0005:00000a18       __imp_?IsDirectory@CFileFind@@QEBAHXZ 00000001800a9a18     mfc120d:mfc120d.dll
 0005:00000a20       __imp_?IsSystem@CFileFind@@QEBAHXZ 00000001800a9a20     mfc120d:mfc120d.dll
 0005:00000a28       __imp_?IsHidden@CFileFind@@QEBAHXZ 00000001800a9a28     mfc120d:mfc120d.dll
 0005:00000a30       __imp_?IsTemporary@CFileFind@@QEBAHXZ 00000001800a9a30     mfc120d:mfc120d.dll
 0005:00000a38       __imp_?Close@CFileFind@@QEAAXXZ 00000001800a9a38     mfc120d:mfc120d.dll
 0005:00000a40       __imp_?FindFile@CFileFind@@UEAAHPEBDK@Z 00000001800a9a40     mfc120d:mfc120d.dll
 0005:00000a48       __imp_?FindNextFileA@CFileFind@@UEAAHXZ 00000001800a9a48     mfc120d:mfc120d.dll
 0005:00000a50       __imp_??_U@YAPEAX_K@Z      00000001800a9a50     mfc120d:mfc120d.dll
 0005:00000a58       __imp_??_V@YAXPEAX@Z       00000001800a9a58     mfc120d:mfc120d.dll
 0005:00000a60       __imp_?Format@?$CStringT@DV?$StrTraitMFC_DLL@DV?$ChTraitsCRT@D@ATL@@@@@ATL@@QEAAXPEBDZZ 00000001800a9a60     mfc120d:mfc120d.dll
 0005:00000a68       __imp_??1?$CStringT@DV?$StrTraitMFC_DLL@DV?$ChTraitsCRT@D@ATL@@@@@ATL@@QEAA@XZ 00000001800a9a68     mfc120d:mfc120d.dll
 0005:00000a70       __imp_??0?$CStringT@DV?$StrTraitMFC_DLL@DV?$ChTraitsCRT@D@ATL@@@@@ATL@@QEAA@PEBD@Z 00000001800a9a70     mfc120d:mfc120d.dll
 0005:00000a78       __imp_?AfxAssertFailedLine@@YAHPEBDH@Z 00000001800a9a78     mfc120d:mfc120d.dll
 0005:00000a80       __imp_??2CObject@@SAPEAX_KPEBDH@Z 00000001800a9a80     mfc120d:mfc120d.dll
 0005:00000a88       __imp_??3CObject@@SAXPEAXPEBDH@Z 00000001800a9a88     mfc120d:mfc120d.dll
 0005:00000a90       __imp_?IsKindOf@CObject@@QEBAHPEBUCRuntimeClass@@@Z 00000001800a9a90     mfc120d:mfc120d.dll
 0005:00000a98       __imp_?Delete@CException@@QEAAXXZ 00000001800a9a98     mfc120d:mfc120d.dll
 0005:00000aa0       __imp_?GetThisClass@CMemoryException@@SAPEAUCRuntimeClass@@XZ 00000001800a9aa0     mfc120d:mfc120d.dll
 0005:00000aa8       __imp_??3CNoTrackObject@@SAXPEAX@Z 00000001800a9aa8     mfc120d:mfc120d.dll
 0005:00000ab0       __imp_??0AFX_MODULE_STATE@@QEAA@HP6A_JPEAUHWND__@@I_K_J@ZKH@Z 00000001800a9ab0     mfc120d:mfc120d.dll
 0005:00000ab8       __imp_??1AFX_MODULE_STATE@@UEAA@XZ 00000001800a9ab8     mfc120d:mfc120d.dll
 0005:00000ac0       __imp_?AfxSetModuleState@@YAPEAVAFX_MODULE_STATE@@PEAV1@@Z 00000001800a9ac0     mfc120d:mfc120d.dll
 0005:00000ac8       __imp_?AfxGetModuleState@@YAPEAVAFX_MODULE_STATE@@XZ 00000001800a9ac8     mfc120d:mfc120d.dll
 0005:00000ad0       __imp_?AfxGetModuleThreadState@@YAPEAVAFX_MODULE_THREAD_STATE@@XZ 00000001800a9ad0     mfc120d:mfc120d.dll
 0005:00000ad8       __imp_??0AFX_MAINTAIN_STATE2@@QEAA@PEAVAFX_MODULE_STATE@@@Z 00000001800a9ad8     mfc120d:mfc120d.dll
 0005:00000ae0       __imp_??1AFX_MAINTAIN_STATE2@@QEAA@XZ 00000001800a9ae0     mfc120d:mfc120d.dll
 0005:00000ae8       __imp_?AfxWinInit@@YAHPEAUHINSTANCE__@@0PEADH@Z 00000001800a9ae8     mfc120d:mfc120d.dll
 0005:00000af0       __imp_?AfxWndProc@@YA_JPEAUHWND__@@I_K_J@Z 00000001800a9af0     mfc120d:mfc120d.dll
 0005:00000af8       __imp_?AfxTermThread@@YAXPEAUHINSTANCE__@@@Z 00000001800a9af8     mfc120d:mfc120d.dll
 0005:00000b00       __imp_?AfxWinTerm@@YAXXZ   00000001800a9b00     mfc120d:mfc120d.dll
 0005:00000b08       __imp_?AfxGetApp@@YAPEAVCWinApp@@XZ 00000001800a9b08     mfc120d:mfc120d.dll
 0005:00000b10       __imp_??0CDynLinkLibrary@@QEAA@AEAUAFX_EXTENSION_MODULE@@H@Z 00000001800a9b10     mfc120d:mfc120d.dll
 0005:00000b18       __imp_?AfxInitExtensionModule@@YAHAEAUAFX_EXTENSION_MODULE@@PEAUHINSTANCE__@@@Z 00000001800a9b18     mfc120d:mfc120d.dll
 0005:00000b20       __imp_?AfxTermExtensionModule@@YAXAEAUAFX_EXTENSION_MODULE@@H@Z 00000001800a9b20     mfc120d:mfc120d.dll
 0005:00000b28       __imp_?AfxCoreInitModule@@YAXXZ 00000001800a9b28     mfc120d:mfc120d.dll
 0005:00000b30       __imp_?AfxLockTempMaps@@YAXXZ 00000001800a9b30     mfc120d:mfc120d.dll
 0005:00000b38       __imp_?AfxUnlockTempMaps@@YAHH@Z 00000001800a9b38     mfc120d:mfc120d.dll
 0005:00000b40       __imp_?traceAppMsg@@3VCTraceCategory@ATL@@A 00000001800a9b40     mfc120d:mfc120d.dll
 0005:00000b48       __imp_??B?$CSimpleStringT@D$00@ATL@@QEBAPEBDXZ 00000001800a9b48     mfc120d:mfc120d.dll
 0005:00000b50       __imp_?AfxThrowOleException@@YAXJ@Z 00000001800a9b50     mfc120d:mfc120d.dll
 0005:00000b58       __imp_?AfxThrowMemoryException@@YAXXZ 00000001800a9b58     mfc120d:mfc120d.dll
 0005:00000b60       __imp_??2@YAPEAX_K@Z       00000001800a9b60     mfc120d:mfc120d.dll
 0005:00000b68       __imp_??3@YAXPEAX@Z        00000001800a9b68     mfc120d:mfc120d.dll
 0005:00000b70       __imp_??0?$CStringT@DV?$StrTraitMFC_DLL@DV?$ChTraitsCRT@D@ATL@@@@@ATL@@QEAA@XZ 00000001800a9b70     mfc120d:mfc120d.dll
 0005:00000b78       \177mfc120d_NULL_THUNK_DATA 00000001800a9b78     mfc120d:mfc120d.dll
 0005:00000c20       __IMPORT_DESCRIPTOR_WINMM  00000001800a9c20     winmm:WINMM.dll
 0005:00000c34       __IMPORT_DESCRIPTOR_mfc120d 00000001800a9c34     mfc120d:mfc120d.dll
 0005:00000c48       __IMPORT_DESCRIPTOR_MSVCR120D 00000001800a9c48     msvcrtd:MSVCR120D.dll
 0005:00000c5c       __IMPORT_DESCRIPTOR_KERNEL32 00000001800a9c5c     kernel32:KERNEL32.dll
 0005:00000c70       __IMPORT_DESCRIPTOR_USER32 00000001800a9c70     user32:USER32.dll
 0005:00000c84       __IMPORT_DESCRIPTOR_SHELL32 00000001800a9c84     shell32:SHELL32.dll
 0005:00000c98       __IMPORT_DESCRIPTOR_SHLWAPI 00000001800a9c98     shlwapi:SHLWAPI.dll
 0005:00000cac       __IMPORT_DESCRIPTOR_OLEAUT32 00000001800a9cac     oleaut32:OLEAUT32.dll
 0005:00000cc0       __IMPORT_DESCRIPTOR_MSVCP120D 00000001800a9cc0     msvcprtd:MSVCP120D.dll
 0005:00000cd4       __IMPORT_DESCRIPTOR_WS2_32 00000001800a9cd4     ws2_32:WS2_32.dll
 0005:00000ce8       __IMPORT_DESCRIPTOR_LogMgr64 00000001800a9ce8     LogMgr64:LogMgr64.dll
 0005:00000cfc       __NULL_IMPORT_DESCRIPTOR   00000001800a9cfc     winmm:WINMM.dll

 entry point at        0001:00058540


 Exports

  ordinal    name

        1    ??0CIocpServer@@QEAA@AEBV0@@Z (public: __cdecl CIocpServer::CIocpServer(class CIocpServer const &))
        2    ??0CIocpServer@@QEAA@XZ (public: __cdecl CIocpServer::CIocpServer(void))
        3    ??0CIocpServerFactory@@QEAA@AEBV0@@Z (public: __cdecl CIocpServerFactory::CIocpServerFactory(class CIocpServerFactory const &))
        4    ??0CIocpServerFactory@@QEAA@XZ (public: __cdecl CIocpServerFactory::CIocpServerFactory(void))
        5    ??1CIocpServer@@UEAA@XZ (public: virtual __cdecl CIocpServer::~CIocpServer(void))
        6    ??1CIocpServerFactory@@UEAA@XZ (public: virtual __cdecl CIocpServerFactory::~CIocpServerFactory(void))
        7    ??4CIocpServer@@QEAAAEAV0@AEBV0@@Z (public: class CIocpServer & __cdecl CIocpServer::operator=(class CIocpServer const &))
        8    ??4CIocpServerFactory@@QEAAAEAV0@AEBV0@@Z (public: class CIocpServerFactory & __cdecl CIocpServerFactory::operator=(class CIocpServerFactory const &))
        9    ??_7CIocpServer@@6B@ (const CIocpServer::`vftable')
       10    ??_7CIocpServerFactory@@6B@ (const CIocpServerFactory::`vftable')
       11    ?AddBlackIP@CIocpServer@@SAHPEBD@Z (public: static int __cdecl CIocpServer::AddBlackIP(char const *))
       12    ?DelBlackIP@CIocpServer@@SAXPEBD@Z (public: static void __cdecl CIocpServer::DelBlackIP(char const *))
       13    ?Destroy@CIocpServerFactory@@SAXPEAVCIocpServer@@@Z (public: static void __cdecl CIocpServerFactory::Destroy(class CIocpServer *))
       14    ?GetBlackIP@CIocpServer@@SA?AV?$map@V?$basic_string@DU?$char_traits@D@std@@V?$allocator@D@2@@std@@HU?$less@V?$basic_string@DU?$char_traits@D@std@@V?$allocator@D@2@@std@@@2@V?$allocator@U?$pair@$$CBV?$basic_string@DU?$char_traits@D@std@@V?$allocator@D@2@@std@@H@std@@@2@@std@@XZ (public: static class std::map<class std::basic_string<char,struct std::char_traits<char>,class std::allocator<char> >,int,struct std::less<class std::basic_string<char,struct std::char_traits<char>,class std::allocator<char> > >,class std::allocator<struct std::pair<class std::basic_string<char,struct std::char_traits<char>,class std::allocator<char> > const ,int> > > __cdecl CIocpServer::GetBlackIP(void))
       15    ?New@CIocpServerFactory@@SAPEAVCIocpServer@@XZ (public: static class CIocpServer * __cdecl CIocpServerFactory::New(void))
