 IocpServer64

 Timestamp is 57c7e0c5 (Thu Sep 01 16:03:17 2016)

 Preferred load address is 0000000180000000

 Start         Length     Name                   Class
 0001:00000000 0000132cH .text$di                CODE
 0001:00001330 0001d4f2H .text$mn                CODE
 0001:0001e830 00001648H .text$x                 CODE
 0001:0001fe80 00000874H .text$yd                CODE
 0002:00000000 00000640H .idata$5                DATA
 0002:00000640 00000008H .CRT$XCA                DATA
 0002:00000648 00000010H .CRT$XCL                DATA
 0002:00000658 00000068H .CRT$XCU                DATA
 0002:000006c0 00000008H .CRT$XCZ                DATA
 0002:000006c8 00000008H .CRT$XIA                DATA
 0002:000006d0 00000008H .CRT$XIAA               DATA
 0002:000006d8 00000008H .CRT$XIC                DATA
 0002:000006e0 00000008H .CRT$XIZ                DATA
 0002:000006f0 000031c0H .rdata                  DATA
 0002:000038b0 00000064H .rdata$debug            DATA
 0002:00003918 0000091cH .rdata$r                DATA
 0002:00004238 00000008H .rtc$IAA                DATA
 0002:00004240 00000008H .rtc$IZZ                DATA
 0002:00004248 00000008H .rtc$TAA                DATA
 0002:00004250 00000008H .rtc$TZZ                DATA
 0002:00004258 00005874H .xdata                  DATA
 0002:00009ad0 00000008H ATL$__a                 DATA
 0002:00009ad8 00000008H ATL$__z                 DATA
 0002:00009ae0 000003bdH .edata                  DATA
 0002:00009ea0 000000dcH .idata$2                DATA
 0002:00009f7c 00000014H .idata$3                DATA
 0002:00009f90 00000640H .idata$4                DATA
 0002:0000a5d0 000009c8H .idata$6                DATA
 0003:00000000 00000098H .data                   DATA
 0003:00000098 00000378H .data$r                 DATA
 0003:00000410 00000ad0H .bss                    DATA
 0004:00000000 00002874H .pdata                  DATA
 0005:00000000 000000a0H .rsrc$01                DATA
 0005:000000a0 00000560H .rsrc$02                DATA

  Address         Publics by Value              Rva+Base               Lib:Object

 0000:00000000       __guard_flags              0000000000000000     <absolute>
 0000:00000000       __guard_fids_table         0000000000000000     <absolute>
 0000:00000000       ___safe_se_handler_count   0000000000000000     <absolute>
 0000:00000000       ___safe_se_handler_table   0000000000000000     <absolute>
 0000:00000000       __guard_fids_count         0000000000000000     <absolute>
 0000:00000000       __ImageBase                0000000180000000     <linker-defined>
 0001:00001330       ?_AfxInitManaged@@YAHXZ    0000000180002330 f i Adapter.obj
 0001:00001340       ??$AtlAdd@H@ATL@@YAJPEAHHH@Z 0000000180002340 f i Adapter.obj
 0001:00001360       ??$AtlAdd@K@ATL@@YAJPEAKKK@Z 0000000180002360 f i Adapter.obj
 0001:00001380       ??$AtlAdd@_K@ATL@@YAJPEA_K_K1@Z 0000000180002380 f i Adapter.obj
 0001:000013a0       ??$AtlAlignUp@H@ATL@@YAHHK@Z 00000001800023a0 f i Adapter.obj
 0001:000013b0       ??$AtlMultiply@K@ATL@@YAJPEAKKK@Z 00000001800023b0 f i Adapter.obj
 0001:000013d0       ??$AtlMultiply@_K@ATL@@YAJPEA_K_K1@Z 00000001800023d0 f i Adapter.obj
 0001:00001400       ??$_Allocate@D@std@@YAPEAD_KPEAD@Z 0000000180002400 f i Adapter.obj
 0001:00001430       ??$_Allocate@V?$basic_string@DU?$char_traits@D@std@@V?$allocator@D@2@@std@@@std@@YAPEAV?$basic_string@DU?$char_traits@D@std@@V?$allocator@D@2@@0@_KPEAV10@@Z 0000000180002430 f i Adapter.obj
 0001:00001470       ??$_Destroy_range@U?$_Wrap_alloc@V?$allocator@V?$basic_string@DU?$char_traits@D@std@@V?$allocator@D@2@@std@@@std@@@std@@@std@@YAXPEAV?$basic_string@DU?$char_traits@D@std@@V?$allocator@D@2@@0@0AEAU?$_Wrap_alloc@V?$allocator@V?$basic_string@DU?$char_traits@D@std@@V?$allocator@D@2@@std@@@std@@@0@@Z 0000000180002470 f i Adapter.obj
 0001:000014d0       ??$_Destroy_range@U?$_Wrap_alloc@V?$allocator@V?$basic_string@DU?$char_traits@D@std@@V?$allocator@D@2@@std@@@std@@@std@@@std@@YAXPEAV?$basic_string@DU?$char_traits@D@std@@V?$allocator@D@2@@0@0AEAU?$_Wrap_alloc@V?$allocator@V?$basic_string@DU?$char_traits@D@std@@V?$allocator@D@2@@std@@@std@@@0@U_Nonscalar_ptr_iterator_tag@0@@Z 00000001800024d0 f i Adapter.obj
 0001:00001530       ??$_Ptr_cat@V?$basic_string@DU?$char_traits@D@std@@V?$allocator@D@2@@std@@V12@@std@@YA?AU_Nonscalar_ptr_iterator_tag@0@PEAV?$basic_string@DU?$char_traits@D@std@@V?$allocator@D@2@@0@0@Z 0000000180002530 f i Adapter.obj
 0001:00001540       ??$_Rechecked@PEAV?$basic_string@DU?$char_traits@D@std@@V?$allocator@D@2@@std@@PEAV12@@std@@YAAEAPEAV?$basic_string@DU?$char_traits@D@std@@V?$allocator@D@2@@0@AEAPEAV10@PEAV10@@Z 0000000180002540 f i Adapter.obj
 0001:00001550       ??$_Umove@PEAV?$basic_string@DU?$char_traits@D@std@@V?$allocator@D@2@@std@@@?$vector@V?$basic_string@DU?$char_traits@D@std@@V?$allocator@D@2@@std@@V?$allocator@V?$basic_string@DU?$char_traits@D@std@@V?$allocator@D@2@@std@@@2@@std@@IEAAPEAV?$basic_string@DU?$char_traits@D@std@@V?$allocator@D@2@@1@PEAV21@00@Z 0000000180002550 f i Adapter.obj
 0001:00001590       ??$_Unchecked@PEAV?$basic_string@DU?$char_traits@D@std@@V?$allocator@D@2@@std@@@std@@YAPEAV?$basic_string@DU?$char_traits@D@std@@V?$allocator@D@2@@0@PEAV10@@Z 0000000180002590 f i Adapter.obj
 0001:000015a0       ??$_Uninit_move@PEAV?$basic_string@DU?$char_traits@D@std@@V?$allocator@D@2@@std@@PEAV12@U?$_Wrap_alloc@V?$allocator@V?$basic_string@DU?$char_traits@D@std@@V?$allocator@D@2@@std@@@std@@@2@@std@@YAPEAV?$basic_string@DU?$char_traits@D@std@@V?$allocator@D@2@@0@PEAV10@00AEAU?$_Wrap_alloc@V?$allocator@V?$basic_string@DU?$char_traits@D@std@@V?$allocator@D@2@@std@@@std@@@0@@Z 00000001800025a0 f i Adapter.obj
 0001:000015c0       ??$_Uninit_move@PEAV?$basic_string@DU?$char_traits@D@std@@V?$allocator@D@2@@std@@PEAV12@V?$allocator@V?$basic_string@DU?$char_traits@D@std@@V?$allocator@D@2@@std@@@2@V12@@std@@YAPEAV?$basic_string@DU?$char_traits@D@std@@V?$allocator@D@2@@0@PEAV10@00AEAU?$_Wrap_alloc@V?$allocator@V?$basic_string@DU?$char_traits@D@std@@V?$allocator@D@2@@std@@@std@@@0@0U_Nonscalar_ptr_iterator_tag@0@@Z 00000001800025c0 f i Adapter.obj
 0001:00001680       ??$_Uninitialized_move@PEAV?$basic_string@DU?$char_traits@D@std@@V?$allocator@D@2@@std@@PEAV12@U?$_Wrap_alloc@V?$allocator@V?$basic_string@DU?$char_traits@D@std@@V?$allocator@D@2@@std@@@std@@@2@@std@@YAPEAV?$basic_string@DU?$char_traits@D@std@@V?$allocator@D@2@@0@PEAV10@00AEAU?$_Wrap_alloc@V?$allocator@V?$basic_string@DU?$char_traits@D@std@@V?$allocator@D@2@@std@@@std@@@0@@Z 0000000180002680 f i Adapter.obj
 0001:000016a0       ??$_Val_type@PEAV?$basic_string@DU?$char_traits@D@std@@V?$allocator@D@2@@std@@@std@@YAPEAV?$basic_string@DU?$char_traits@D@std@@V?$allocator@D@2@@0@PEAV10@@Z 00000001800026a0 f i Adapter.obj
 0001:000016b0       ??$addressof@D@std@@YAPEADAEAD@Z 00000001800026b0 f i Adapter.obj
 0001:000016c0       ??$addressof@V?$basic_string@DU?$char_traits@D@std@@V?$allocator@D@2@@std@@@std@@YAPEAV?$basic_string@DU?$char_traits@D@std@@V?$allocator@D@2@@0@AEAV10@@Z 00000001800026c0 f i Adapter.obj
 0001:000016d0       ??$construct@PEADAEAPEAD@?$_Wrap_alloc@V?$allocator@D@std@@@std@@QEAAXPEAPEADAEAPEAD@Z 00000001800026d0 f i Adapter.obj
 0001:000016e0       ??$construct@PEADAEAPEAD@?$allocator@D@std@@QEAAXPEAPEADAEAPEAD@Z 00000001800026e0 f i Adapter.obj
 0001:000016f0       ??$construct@PEADAEAPEAD@?$allocator_traits@V?$allocator@D@std@@@std@@SAXAEAV?$allocator@D@1@PEAPEADAEAPEAD@Z 00000001800026f0 f i Adapter.obj
 0001:00001700       ??$construct@V?$basic_string@DU?$char_traits@D@std@@V?$allocator@D@2@@std@@V12@@?$_Wrap_alloc@V?$allocator@V?$basic_string@DU?$char_traits@D@std@@V?$allocator@D@2@@std@@@std@@@std@@QEAAXPEAV?$basic_string@DU?$char_traits@D@std@@V?$allocator@D@2@@1@$$QEAV21@@Z 0000000180002700 f i Adapter.obj
 0001:00001790       ??$construct@V?$basic_string@DU?$char_traits@D@std@@V?$allocator@D@2@@std@@V12@@?$allocator@V?$basic_string@DU?$char_traits@D@std@@V?$allocator@D@2@@std@@@std@@QEAAXPEAV?$basic_string@DU?$char_traits@D@std@@V?$allocator@D@2@@1@$$QEAV21@@Z 0000000180002790 f i Adapter.obj
 0001:00001820       ??$construct@V?$basic_string@DU?$char_traits@D@std@@V?$allocator@D@2@@std@@V12@@?$allocator_traits@V?$allocator@V?$basic_string@DU?$char_traits@D@std@@V?$allocator@D@2@@std@@@std@@@std@@SAXAEAV?$allocator@V?$basic_string@DU?$char_traits@D@std@@V?$allocator@D@2@@std@@@1@PEAV?$basic_string@DU?$char_traits@D@std@@V?$allocator@D@2@@1@$$QEAV31@@Z 0000000180002820 f i Adapter.obj
 0001:000018b0       ??$destroy@PEAD@?$_Wrap_alloc@V?$allocator@D@std@@@std@@QEAAXPEAPEAD@Z 00000001800028b0 f i Adapter.obj
 0001:000018c0       ??$destroy@PEAD@?$allocator@D@std@@QEAAXPEAPEAD@Z 00000001800028c0 f i Adapter.obj
 0001:000018d0       ??$destroy@PEAD@?$allocator_traits@V?$allocator@D@std@@@std@@SAXAEAV?$allocator@D@1@PEAPEAD@Z 00000001800028d0 f i Adapter.obj
 0001:000018e0       ??$destroy@V?$basic_string@DU?$char_traits@D@std@@V?$allocator@D@2@@std@@@?$_Wrap_alloc@V?$allocator@V?$basic_string@DU?$char_traits@D@std@@V?$allocator@D@2@@std@@@std@@@std@@QEAAXPEAV?$basic_string@DU?$char_traits@D@std@@V?$allocator@D@2@@1@@Z 00000001800028e0 f i Adapter.obj
 0001:00001920       ??$destroy@V?$basic_string@DU?$char_traits@D@std@@V?$allocator@D@2@@std@@@?$allocator@V?$basic_string@DU?$char_traits@D@std@@V?$allocator@D@2@@std@@@std@@QEAAXPEAV?$basic_string@DU?$char_traits@D@std@@V?$allocator@D@2@@1@@Z 0000000180002920 f i Adapter.obj
 0001:00001960       ??$destroy@V?$basic_string@DU?$char_traits@D@std@@V?$allocator@D@2@@std@@@?$allocator_traits@V?$allocator@V?$basic_string@DU?$char_traits@D@std@@V?$allocator@D@2@@std@@@std@@@std@@SAXAEAV?$allocator@V?$basic_string@DU?$char_traits@D@std@@V?$allocator@D@2@@std@@@1@PEAV?$basic_string@DU?$char_traits@D@std@@V?$allocator@D@2@@1@@Z 0000000180002960 f i Adapter.obj
 0001:000019a0       ??$forward@AEAPEAD@std@@YAAEAPEADAEAPEAD@Z 00000001800029a0 f i Adapter.obj
 0001:000019b0       ??$forward@V?$basic_string@DU?$char_traits@D@std@@V?$allocator@D@2@@std@@@std@@YA$$QEAV?$basic_string@DU?$char_traits@D@std@@V?$allocator@D@2@@0@AEAV10@@Z 00000001800029b0 f i Adapter.obj
 0001:000019c0       ??0?$CSimpleArray@GV?$CSimpleArrayEqualHelper@G@ATL@@@ATL@@QEAA@XZ 00000001800029c0 f i Adapter.obj
 0001:000019d0       ??0?$CTraceCategoryEx@$00$0A@@ATL@@QEAA@PEBD@Z 00000001800029d0 f i Adapter.obj
 0001:000019e0       ??0?$CTraceCategoryEx@$01$0A@@ATL@@QEAA@PEBD@Z 00000001800029e0 f i Adapter.obj
 0001:000019f0       ??0?$CTraceCategoryEx@$03$0A@@ATL@@QEAA@PEBD@Z 00000001800029f0 f i Adapter.obj
 0001:00001a00       ??0?$CTraceCategoryEx@$07$0A@@ATL@@QEAA@PEBD@Z 0000000180002a00 f i Adapter.obj
 0001:00001a10       ??0?$CTraceCategoryEx@$0BA@$0A@@ATL@@QEAA@PEBD@Z 0000000180002a10 f i Adapter.obj
 0001:00001a20       ??0?$CTraceCategoryEx@$0BAA@$0A@@ATL@@QEAA@PEBD@Z 0000000180002a20 f i Adapter.obj
 0001:00001a30       ??0?$CTraceCategoryEx@$0BAAA@$0A@@ATL@@QEAA@PEBD@Z 0000000180002a30 f i Adapter.obj
 0001:00001a40       ??0?$CTraceCategoryEx@$0BAAAA@$0A@@ATL@@QEAA@PEBD@Z 0000000180002a40 f i Adapter.obj
 0001:00001a50       ??0?$CTraceCategoryEx@$0BAAAAA@$0A@@ATL@@QEAA@PEBD@Z 0000000180002a50 f i Adapter.obj
 0001:00001a60       ??0?$CTraceCategoryEx@$0CA@$0A@@ATL@@QEAA@PEBD@Z 0000000180002a60 f i Adapter.obj
 0001:00001a70       ??0?$CTraceCategoryEx@$0CAA@$0A@@ATL@@QEAA@PEBD@Z 0000000180002a70 f i Adapter.obj
 0001:00001a80       ??0?$CTraceCategoryEx@$0CAAA@$0A@@ATL@@QEAA@PEBD@Z 0000000180002a80 f i Adapter.obj
 0001:00001a90       ??0?$CTraceCategoryEx@$0CAAAA@$0A@@ATL@@QEAA@PEBD@Z 0000000180002a90 f i Adapter.obj
 0001:00001aa0       ??0?$CTraceCategoryEx@$0CAAAAA@$0A@@ATL@@QEAA@PEBD@Z 0000000180002aa0 f i Adapter.obj
 0001:00001ab0       ??0?$CTraceCategoryEx@$0EA@$0A@@ATL@@QEAA@PEBD@Z 0000000180002ab0 f i Adapter.obj
 0001:00001ac0       ??0?$CTraceCategoryEx@$0EAA@$0A@@ATL@@QEAA@PEBD@Z 0000000180002ac0 f i Adapter.obj
 0001:00001ad0       ??0?$CTraceCategoryEx@$0EAAA@$0A@@ATL@@QEAA@PEBD@Z 0000000180002ad0 f i Adapter.obj
 0001:00001ae0       ??0?$CTraceCategoryEx@$0EAAAA@$0A@@ATL@@QEAA@PEBD@Z 0000000180002ae0 f i Adapter.obj
 0001:00001af0       ??0?$CTraceCategoryEx@$0EAAAAA@$0A@@ATL@@QEAA@PEBD@Z 0000000180002af0 f i Adapter.obj
 0001:00001b00       ??0?$CTraceCategoryEx@$0IA@$0A@@ATL@@QEAA@PEBD@Z 0000000180002b00 f i Adapter.obj
 0001:00001b10       ??0?$CTraceCategoryEx@$0IAA@$0A@@ATL@@QEAA@PEBD@Z 0000000180002b10 f i Adapter.obj
 0001:00001b20       ??0?$CTraceCategoryEx@$0IAAA@$0A@@ATL@@QEAA@PEBD@Z 0000000180002b20 f i Adapter.obj
 0001:00001b30       ??0?$CTraceCategoryEx@$0IAAAA@$0A@@ATL@@QEAA@PEBD@Z 0000000180002b30 f i Adapter.obj
 0001:00001b40       ??0?$_String_alloc@$0A@U?$_String_base_types@DV?$allocator@D@std@@@std@@@std@@QEAA@AEBV?$allocator@D@1@@Z 0000000180002b40 f i Adapter.obj
 0001:00001b50       ??0?$_String_val@U?$_Simple_types@D@std@@@std@@QEAA@XZ 0000000180002b50 f i Adapter.obj
 0001:00001b60       ??0?$_Wrap_alloc@V?$allocator@D@std@@@std@@QEAA@XZ 0000000180002b60 f i Adapter.obj
 0001:00001b70       ??0?$_Wrap_alloc@V?$allocator@V?$basic_string@DU?$char_traits@D@std@@V?$allocator@D@2@@std@@@std@@@std@@QEAA@XZ 0000000180002b70 f i Adapter.obj
 0001:00001b80       ??0?$allocator@D@std@@QEAA@XZ 0000000180002b80 f i Adapter.obj
 0001:00001b90       ??0?$allocator@V?$basic_string@DU?$char_traits@D@std@@V?$allocator@D@2@@std@@@std@@QEAA@XZ 0000000180002b90 f i Adapter.obj
 0001:00001ba0       ??0?$basic_string@DU?$char_traits@D@std@@V?$allocator@D@2@@std@@QEAA@$$QEAV01@@Z 0000000180002ba0 f i Adapter.obj
 0001:00001c20       ??0?$basic_string@DU?$char_traits@D@std@@V?$allocator@D@2@@std@@QEAA@PEBD@Z 0000000180002c20 f i Adapter.obj
 0001:00001c60       ??0CAtlComModule@ATL@@QEAA@XZ 0000000180002c60 f i Adapter.obj
 0001:00001cf0       ??0CAtlStringMgr@ATL@@QEAA@PEAUIAtlMemMgr@1@@Z 0000000180002cf0 f i Adapter.obj
 0001:00001d20       ??0CAtlWinModule@ATL@@QEAA@XZ 0000000180002d20 f i Adapter.obj
 0001:00001db0       ??0CComCriticalSection@ATL@@QEAA@XZ 0000000180002db0 f i Adapter.obj
 0001:00001dd0       ??0CNilStringData@ATL@@QEAA@XZ 0000000180002dd0 f i Adapter.obj
 0001:00001df0       ??0COleDateTime@ATL@@QEAA@XZ 0000000180002df0 f i Adapter.obj
 0001:00001e00       ??0CTime@ATL@@QEAA@XZ      0000000180002e00 f i Adapter.obj
 0001:00001e10       ??0CTime@ATL@@QEAA@_J@Z    0000000180002e10 f i Adapter.obj
 0001:00001e20       ??0CTimeSpan@ATL@@QEAA@XZ  0000000180002e20 f i Adapter.obj
 0001:00001e30       ??0CTimeSpan@ATL@@QEAA@_J@Z 0000000180002e30 f i Adapter.obj
 0001:00001e40       ??0CWin32Heap@ATL@@QEAA@PEAX@Z 0000000180002e40 f i Adapter.obj
 0001:00001e60       ??0_ATL_COM_MODULE70@ATL@@QEAA@XZ 0000000180002e60 f i Adapter.obj
 0001:00001e80       ??0_ATL_WIN_MODULE70@ATL@@QEAA@XZ 0000000180002e80 f i Adapter.obj
 0001:00001eb0       ??0_Generic_error_category@std@@QEAA@XZ 0000000180002eb0 f i Adapter.obj
 0001:00001ec0       ??0_Iostream_error_category@std@@QEAA@XZ 0000000180002ec0 f i Adapter.obj
 0001:00001ed0       ??0_System_error_category@std@@QEAA@XZ 0000000180002ed0 f i Adapter.obj
 0001:00001ee0       ??0error_category@std@@QEAA@XZ 0000000180002ee0 f i Adapter.obj
 0001:00001ef0       ??0error_condition@std@@QEAA@HAEBVerror_category@1@@Z 0000000180002ef0 f i Adapter.obj
 0001:00001f00       ??1?$CSimpleArray@GV?$CSimpleArrayEqualHelper@G@ATL@@@ATL@@QEAA@XZ 0000000180002f00 f i Adapter.obj
 0001:00001f40       ??1?$basic_string@DU?$char_traits@D@std@@V?$allocator@D@2@@std@@QEAA@XZ 0000000180002f40 f i Adapter.obj
 0001:00001f80       ??1CAtlComModule@ATL@@QEAA@XZ 0000000180002f80 f i Adapter.obj
 0001:00001f90       ??1CAtlStringMgr@ATL@@UEAA@XZ 0000000180002f90 f i Adapter.obj
 0001:00001fb0       ??1CAtlWinModule@ATL@@QEAA@XZ 0000000180002fb0 f i Adapter.obj
 0001:00001ff0       ??1CComCriticalSection@ATL@@QEAA@XZ 0000000180002ff0 f i Adapter.obj
 0001:00002000       ??1CWin32Heap@ATL@@UEAA@XZ 0000000180003000 f i Adapter.obj
 0001:00002030       ??1_ATL_COM_MODULE70@ATL@@QEAA@XZ 0000000180003030 f i Adapter.obj
 0001:00002040       ??1_ATL_WIN_MODULE70@ATL@@QEAA@XZ 0000000180003040 f i Adapter.obj
 0001:00002080       ??1_Generic_error_category@std@@UEAA@XZ 0000000180003080 f i Adapter.obj
 0001:00002090       ??1_Iostream_error_category@std@@UEAA@XZ 0000000180003090 f i Adapter.obj
 0001:000020a0       ??1_System_error_category@std@@UEAA@XZ 00000001800030a0 f i Adapter.obj
 0001:000020b0       ??1error_category@std@@UEAA@XZ 00000001800030b0 f i Adapter.obj
 0001:000020c0       ??2@YAPEAX_KPEAX@Z         00000001800030c0 f i Adapter.obj
 0001:000020d0       ??3@YAXPEAX0@Z             00000001800030d0 f i Adapter.obj
 0001:000020e0       ??8error_category@std@@QEBA_NAEBV01@@Z 00000001800030e0 f i Adapter.obj
 0001:000020f0       ??8error_condition@std@@QEBA_NAEBV01@@Z 00000001800030f0 f i Adapter.obj
 0001:00002110       ??A?$CSimpleArray@GV?$CSimpleArrayEqualHelper@G@ATL@@@ATL@@QEAAAEAGH@Z 0000000180003110 f i Adapter.obj
 0001:00002150       ??GCTime@ATL@@QEBA?AVCTimeSpan@1@V01@@Z 0000000180003150 f i Adapter.obj
 0001:00002160       ??_G?$basic_string@DU?$char_traits@D@std@@V?$allocator@D@2@@std@@QEAAPEAXI@Z 0000000180003160 f i Adapter.obj
 0001:000021b0       ??_ECAtlStringMgr@ATL@@UEAAPEAXI@Z 00000001800031b0 f i Adapter.obj
 0001:000021b0       ??_GCAtlStringMgr@ATL@@UEAAPEAXI@Z 00000001800031b0 f i Adapter.obj
 0001:000021e0       ??_ECWin32Heap@ATL@@UEAAPEAXI@Z 00000001800031e0 f i Adapter.obj
 0001:000021e0       ??_GCWin32Heap@ATL@@UEAAPEAXI@Z 00000001800031e0 f i Adapter.obj
 0001:00002230       ??_G_Generic_error_category@std@@UEAAPEAXI@Z 0000000180003230 f i Adapter.obj
 0001:00002230       ??_E_Generic_error_category@std@@UEAAPEAXI@Z 0000000180003230 f i Adapter.obj
 0001:00002260       ??_G_Iostream_error_category@std@@UEAAPEAXI@Z 0000000180003260 f i Adapter.obj
 0001:00002260       ??_E_Iostream_error_category@std@@UEAAPEAXI@Z 0000000180003260 f i Adapter.obj
 0001:00002290       ??_E_System_error_category@std@@UEAAPEAXI@Z 0000000180003290 f i Adapter.obj
 0001:00002290       ??_G_System_error_category@std@@UEAAPEAXI@Z 0000000180003290 f i Adapter.obj
 0001:000022c0       ??_Gerror_category@std@@UEAAPEAXI@Z 00000001800032c0 f i Adapter.obj
 0001:000022c0       ??_Eerror_category@std@@UEAAPEAXI@Z 00000001800032c0 f i Adapter.obj
 0001:000022f0       ?AddRef@CStringData@ATL@@QEAAXXZ 00000001800032f0 f i Adapter.obj
 0001:00002300       ?Allocate@CAtlStringMgr@ATL@@UEAAPEAUCStringData@2@HH@Z 0000000180003300 f i Adapter.obj
 0001:000023a0       ?Allocate@CWin32Heap@ATL@@UEAAPEAX_K@Z 00000001800033a0 f i Adapter.obj
 0001:000023b0       ?AsciiToUS2@CAdapter@@SAHPEBDPEAEPEAI@Z 00000001800033b0 f   Adapter.obj
 0001:000024e0       ?AtlConvertSystemTimeToVariantTime@ATL@@YAHAEBU_SYSTEMTIME@@PEAN@Z 00000001800034e0 f i Adapter.obj
 0001:000025a0       ?AtlThrowImpl@ATL@@YAXJ@Z  00000001800035a0 f i Adapter.obj
 0001:000025c0       ?AtlWinModuleInit@ATL@@YAJPEAU_ATL_WIN_MODULE70@1@@Z 00000001800035c0 f i Adapter.obj
 0001:00002620       ?AtlWinModuleTerm@ATL@@YAJPEAU_ATL_WIN_MODULE70@1@PEAUHINSTANCE__@@@Z 0000000180003620 f i Adapter.obj
 0001:000026f0       ?Beep@CAdapter@@SAXKK@Z    00000001800036f0 f   Adapter.obj
 0001:00002700       ?Clone@CAtlStringMgr@ATL@@UEAAPEAUIAtlStringMgr@2@XZ 0000000180003700 f i Adapter.obj
 0001:00002710       ?CloseSocket@CAdapter@@SAHAEA_K@Z 0000000180003710 f   Adapter.obj
 0001:00002720       ?ConvertSystemTimeToVariantTime@COleDateTime@ATL@@IEAAHAEBU_SYSTEMTIME@@@Z 0000000180003720 f i Adapter.obj
 0001:00002730       ?CreateCompatibleThread@CAdapter@@SA_NP6AIPEAX@Z0@Z 0000000180003730 f   Adapter.obj
 0001:00002750       ?CreateCompatibleThread@CAdapter@@SA_NP6AIPEAX@Z0I@Z 0000000180003750 f   Adapter.obj
 0001:00002770       ?CreateDirectoryA@CAdapter@@SAHPEBDPEAU_SECURITY_ATTRIBUTES@@@Z 0000000180003770 f   Adapter.obj
 0001:00002780       ?EndCompatibleThread@CAdapter@@SAXXZ 0000000180003780 f   Adapter.obj
 0001:00002790       ?EnumDir@CAdapter@@SAXPEBDAEAV?$vector@V?$basic_string@DU?$char_traits@D@std@@V?$allocator@D@2@@std@@V?$allocator@V?$basic_string@DU?$char_traits@D@std@@V?$allocator@D@2@@std@@@2@@std@@@Z 0000000180003790 f   Adapter.obj
 0001:00002930       ?EnumDirEx@CAdapter@@SAXPEBDHAEAV?$vector@V?$basic_string@DU?$char_traits@D@std@@V?$allocator@D@2@@std@@V?$allocator@V?$basic_string@DU?$char_traits@D@std@@V?$allocator@D@2@@std@@@2@@std@@@Z 0000000180003930 f   Adapter.obj
 0001:00002b20       ?EnumFile@CAdapter@@SAXPEBD0AEAV?$vector@V?$basic_string@DU?$char_traits@D@std@@V?$allocator@D@2@@std@@V?$allocator@V?$basic_string@DU?$char_traits@D@std@@V?$allocator@D@2@@std@@@2@@std@@@Z 0000000180003b20 f   Adapter.obj
 0001:00002c90       ?EnumFile@CAdapter@@SAXPEBD0HAEAV?$vector@V?$basic_string@DU?$char_traits@D@std@@V?$allocator@D@2@@std@@V?$allocator@V?$basic_string@DU?$char_traits@D@std@@V?$allocator@D@2@@std@@@2@@std@@@Z 0000000180003c90 f   Adapter.obj
 0001:00002e70       ?Free@CAtlStringMgr@ATL@@UEAAXPEAUCStringData@2@@Z 0000000180003e70 f i Adapter.obj
 0001:00002e80       ?Free@CWin32Heap@ATL@@UEAAXPEAX@Z 0000000180003e80 f i Adapter.obj
 0001:00002ea0       ?FreeLibrary@CAdapter@@SAHPEAUHINSTANCE__@@@Z 0000000180003ea0 f   Adapter.obj
 0001:00002eb0       ?GetCurrentPath@CAdapter@@SAXPEADH@Z 0000000180003eb0 f   Adapter.obj
 0001:00003040       ?GetCurrentThreadId@CAdapter@@SAKXZ 0000000180004040 f   Adapter.obj
 0001:00003050       ?GetDays@CTimeSpan@ATL@@QEBA_JXZ 0000000180004050 f i Adapter.obj
 0001:00003070       ?GetInstance@CAtlStringMgr@ATL@@SAPEAUIAtlStringMgr@2@XZ 0000000180004070 f i Adapter.obj
 0001:00003140       ?GetLocalTime@CAdapter@@SAXPEAUSYSTEMTIME_EX@@@Z 0000000180004140 f   Adapter.obj
 0001:000031c0       ?GetLocalTimeEx@CAdapter@@SAXPEAUSYSTEMTIME_EX@@I@Z 00000001800041c0 f   Adapter.obj
 0001:00003280       ?GetLocalTimeExEx@CAdapter@@SAXPEAUSYSTEMTIME_EX@@I@Z 0000000180004280 f   Adapter.obj
 0001:00003340       ?GetModuleInstance@CAtlBaseModule@ATL@@QEAAPEAUHINSTANCE__@@XZ 0000000180004340 f i Adapter.obj
 0001:00003350       ?GetNilString@CAtlStringMgr@ATL@@UEAAPEAUCStringData@2@XZ 0000000180004350 f i Adapter.obj
 0001:00003360       ?GetPrivateProfileIntA@CAdapter@@SAIPEBD0H0@Z 0000000180004360 f   Adapter.obj
 0001:00003370       ?GetPrivateProfileStringA@CAdapter@@SAKPEBD00PEADK0@Z 0000000180004370 f   Adapter.obj
 0001:00003380       ?GetProcAddress@CAdapter@@SAP6A_JXZPEAUHINSTANCE__@@PEBD@Z 0000000180004380 f   Adapter.obj
 0001:00003390       ?GetSize@?$CSimpleArray@GV?$CSimpleArrayEqualHelper@G@ATL@@@ATL@@QEBAHXZ 0000000180004390 f i Adapter.obj
 0001:000033a0       ?GetSize@CWin32Heap@ATL@@UEAA_KPEAX@Z 00000001800043a0 f i Adapter.obj
 0001:000033b0       ?GetTickCount@CAdapter@@SAKXZ 00000001800043b0 f   Adapter.obj
 0001:000033c0       ?GetTickCount@CTime@ATL@@SA?AV12@XZ 00000001800043c0 f i Adapter.obj
 0001:000033e0       ?GlobalMemoryStatus@CAdapter@@SAXPEAU_MEMORYSTATUSEX@@@Z 00000001800043e0 f   Adapter.obj
 0001:000033f0       ?Init@CComCriticalSection@ATL@@QEAAJXZ 00000001800043f0 f i Adapter.obj
 0001:00003420       ?InitCompatibleEvent@CAdapter@@SA_NAEAVCCompatibleEvent@@_N@Z 0000000180004420 f   Adapter.obj
 0001:00003430       ?InitSocket@CAdapter@@SAHXZ 0000000180004430 f   Adapter.obj
 0001:000034b0       ?InterlockedCompareExchangeEx@CAdapter@@SAJPEAJJJ@Z 00000001800044b0 f   Adapter.obj
 0001:000034c0       ?IsDirectory@CFileFind@@QEBAHXZ 00000001800044c0 f i Adapter.obj
 0001:000034d0       ?IsHidden@CFileFind@@QEBAHXZ 00000001800044d0 f i Adapter.obj
 0001:000034e0       ?IsSystem@CFileFind@@QEBAHXZ 00000001800044e0 f i Adapter.obj
 0001:000034f0       ?IsTemporary@CFileFind@@QEBAHXZ 00000001800044f0 f i Adapter.obj
 0001:00003500       ?LoadLibraryA@CAdapter@@SAPEAUHINSTANCE__@@PEBDH@Z 0000000180004500 f   Adapter.obj
 0001:00003510       ?MultiByteToWideChar@CAdapter@@SAHIKPEBDHPEA_WH@Z 0000000180004510 f   Adapter.obj
 0001:00003520       ?PathFileExistsA@CAdapter@@SAHPEBD@Z 0000000180004520 f   Adapter.obj
 0001:00003530       ?ReadString@CAdapter@@SAPEADPEADHPEAU_iobuf@@@Z 0000000180004530 f   Adapter.obj
 0001:00003640       ?Reallocate@CAtlStringMgr@ATL@@UEAAPEAUCStringData@2@PEAU32@HH@Z 0000000180004640 f i Adapter.obj
 0001:000036d0       ?Reallocate@CWin32Heap@ATL@@UEAAPEAXPEAX_K@Z 00000001800046d0 f i Adapter.obj
 0001:00003710       ?RemoveAll@?$CSimpleArray@GV?$CSimpleArrayEqualHelper@G@ATL@@@ATL@@QEAAXXZ 0000000180004710 f i Adapter.obj
 0001:00003750       ?RemoveChar@CAdapter@@KAXPEADD@Z 0000000180004750 f   Adapter.obj
 0001:000037b0       ?RemoveSpace@CAdapter@@KAXPEAD@Z 00000001800047b0 f   Adapter.obj
 0001:00003860       ?ResetCompatibleEvent@CAdapter@@SAXAEAVCCompatibleEvent@@@Z 0000000180004860 f   Adapter.obj
 0001:00003870       ?SetCompatibleEvent@CAdapter@@SAXAEAVCCompatibleEvent@@@Z 0000000180004870 f   Adapter.obj
 0001:00003880       ?SetDateTime@COleDateTime@ATL@@QEAAHHHHHHH@Z 0000000180004880 f i Adapter.obj
 0001:00003910       ?SetManager@CNilStringData@ATL@@QEAAXPEAUIAtlStringMgr@2@@Z 0000000180004910 f i Adapter.obj
 0001:00003920       ?SetTime@COleDateTime@ATL@@QEAAHHHH@Z 0000000180004920 f i Adapter.obj
 0001:000039a0       ?ShellDeleteFiles@CAdapter@@SAHPEBD@Z 00000001800049a0 f   Adapter.obj
 0001:00003ab0       ?Sleep@CAdapter@@SAXK@Z    0000000180004ab0 f   Adapter.obj
 0001:00003ac0       ?StaticInitialize@CAtlStringMgr@ATL@@CA_NXZ 0000000180004ac0 f i Adapter.obj
 0001:00003ad0       ?StrStrIA@CAdapter@@SAPEADPEBD0@Z 0000000180004ad0 f   Adapter.obj
 0001:00003ae0       ?Term@CAtlComModule@ATL@@QEAAXXZ 0000000180004ae0 f i Adapter.obj
 0001:00003b70       ?Term@CAtlWinModule@ATL@@QEAAXXZ 0000000180004b70 f i Adapter.obj
 0001:00003b80       ?Term@CComCriticalSection@ATL@@QEAAJXZ 0000000180004b80 f i Adapter.obj
 0001:00003ba0       ?TrimLeft@CAdapter@@SAXPEAD@Z 0000000180004ba0 f   Adapter.obj
 0001:00003bd0       ?TrimRight@CAdapter@@SAXPEAD@Z 0000000180004bd0 f   Adapter.obj
 0001:00003c20       ?US2ToAscii@CAdapter@@SAHPEBDHPEADPEAH@Z 0000000180004c20 f   Adapter.obj
 0001:00003d50       ?UnInitCompatibleEvent@CAdapter@@SAXAEAVCCompatibleEvent@@@Z 0000000180004d50 f   Adapter.obj
 0001:00003d60       ?UninitSocket@CAdapter@@SAHXZ 0000000180004d60 f   Adapter.obj
 0001:00003d80       ?WSACleanup@CAdapter@@SAHXZ 0000000180004d80 f   Adapter.obj
 0001:00003d90       ?WSAStartup@CAdapter@@SAHGPEAUWSAData@@@Z 0000000180004d90 f   Adapter.obj
 0001:00003da0       ?WaitForCompatibleEvent@CAdapter@@SAHAEAVCCompatibleEvent@@K@Z 0000000180004da0 f   Adapter.obj
 0001:00003dc0       ?WaitForMultipleCompatibleEvent@CAdapter@@SAKKPEAPEAVCCompatibleEvent@@HK@Z 0000000180004dc0 f   Adapter.obj
 0001:00003e90       ?WideCharToMultiByte@CAdapter@@SAHIKPEB_WHPEADHPEBDPEAH@Z 0000000180004e90 f   Adapter.obj
 0001:00003ea0       ?WritePrivateProfileStringA@CAdapter@@SAHPEBD000@Z 0000000180004ea0 f   Adapter.obj
 0001:00003eb0       ?_Assign_rv@?$basic_string@DU?$char_traits@D@std@@V?$allocator@D@2@@std@@QEAAX$$QEAV12@@Z 0000000180004eb0 f i Adapter.obj
 0001:00003f20       ?_AtlInitializeCriticalSectionEx@ATL@@YAHPEAU_RTL_CRITICAL_SECTION@@KK@Z 0000000180004f20 f i Adapter.obj
 0001:00003f30       ?_AtlRaiseException@ATL@@YAXKK@Z 0000000180004f30 f i Adapter.obj
 0001:00003f40       ?_Copy@?$basic_string@DU?$char_traits@D@std@@V?$allocator@D@2@@std@@QEAAX_K0@Z 0000000180004f40 f i Adapter.obj
 0001:00004050       ?_Destroy@?$vector@V?$basic_string@DU?$char_traits@D@std@@V?$allocator@D@2@@std@@V?$allocator@V?$basic_string@DU?$char_traits@D@std@@V?$allocator@D@2@@std@@@2@@std@@IEAAXPEAV?$basic_string@DU?$char_traits@D@std@@V?$allocator@D@2@@2@0@Z 0000000180005050 f i Adapter.obj
 0001:000040b0       ?_Eos@?$basic_string@DU?$char_traits@D@std@@V?$allocator@D@2@@std@@QEAAX_K@Z 00000001800050b0 f i Adapter.obj
 0001:000040d0       ?_Getal@?$_String_alloc@$0A@U?$_String_base_types@DV?$allocator@D@std@@@std@@@std@@QEBA?AU?$_Wrap_alloc@V?$allocator@D@std@@@2@XZ 00000001800050d0 f i Adapter.obj
 0001:000040e0       ?_Getal@?$_Vector_alloc@$0A@U?$_Vec_base_types@V?$basic_string@DU?$char_traits@D@std@@V?$allocator@D@2@@std@@V?$allocator@V?$basic_string@DU?$char_traits@D@std@@V?$allocator@D@2@@std@@@2@@std@@@std@@QEBA?AU?$_Wrap_alloc@V?$allocator@V?$basic_string@DU?$char_traits@D@std@@V?$allocator@D@2@@std@@@std@@@2@XZ 00000001800050e0 f i Adapter.obj
 0001:000040f0       ?_Grow@?$basic_string@DU?$char_traits@D@std@@V?$allocator@D@2@@std@@QEAA_N_K_N@Z 00000001800050f0 f i Adapter.obj
 0001:000041c0       ?_Grow_to@?$vector@V?$basic_string@DU?$char_traits@D@std@@V?$allocator@D@2@@std@@V?$allocator@V?$basic_string@DU?$char_traits@D@std@@V?$allocator@D@2@@std@@@2@@std@@IEBA_K_K@Z 00000001800051c0 f i Adapter.obj
 0001:00004200       ?_Inside@?$basic_string@DU?$char_traits@D@std@@V?$allocator@D@2@@std@@QEAA_NPEBD@Z 0000000180005200 f i Adapter.obj
 0001:00004240       ?_Inside@?$vector@V?$basic_string@DU?$char_traits@D@std@@V?$allocator@D@2@@std@@V?$allocator@V?$basic_string@DU?$char_traits@D@std@@V?$allocator@D@2@@std@@@2@@std@@IEBA_NPEBV?$basic_string@DU?$char_traits@D@std@@V?$allocator@D@2@@2@@Z 0000000180005240 f i Adapter.obj
 0001:00004260       ?_InterlockedDecrement@CAdapter@@SAJPEAJ@Z 0000000180005260 f   Adapter.obj
 0001:00004270       ?_InterlockedExchange@CAdapter@@SAJPEAJJ@Z 0000000180005270 f   Adapter.obj
 0001:00004280       ?_InterlockedExchangeAdd@CAdapter@@SAJPEAJJ@Z 0000000180005280 f   Adapter.obj
 0001:00004290       ?_InterlockedIncrement@CAdapter@@SAJPEAJ@Z 0000000180005290 f   Adapter.obj
 0001:000042a0       ?_Myptr@?$_String_val@U?$_Simple_types@D@std@@@std@@QEAAPEADXZ 00000001800052a0 f i Adapter.obj
 0001:000042b0       ?_Myptr@?$_String_val@U?$_Simple_types@D@std@@@std@@QEBAPEBDXZ 00000001800052b0 f i Adapter.obj
 0001:000042c0       ?_Orphan_range@?$vector@V?$basic_string@DU?$char_traits@D@std@@V?$allocator@D@2@@std@@V?$allocator@V?$basic_string@DU?$char_traits@D@std@@V?$allocator@D@2@@std@@@2@@std@@IEBAXPEAV?$basic_string@DU?$char_traits@D@std@@V?$allocator@D@2@@2@0@Z 00000001800052c0 f i Adapter.obj
 0001:000042d0       ?_Reallocate@?$vector@V?$basic_string@DU?$char_traits@D@std@@V?$allocator@D@2@@std@@V?$allocator@V?$basic_string@DU?$char_traits@D@std@@V?$allocator@D@2@@std@@@2@@std@@IEAAX_K@Z 00000001800052d0 f i Adapter.obj
 0001:000043f0       ?_Reserve@?$vector@V?$basic_string@DU?$char_traits@D@std@@V?$allocator@D@2@@std@@V?$allocator@V?$basic_string@DU?$char_traits@D@std@@V?$allocator@D@2@@std@@@2@@std@@IEAAX_K@Z 00000001800053f0 f i Adapter.obj
 0001:00004480       ?_Tidy@?$basic_string@DU?$char_traits@D@std@@V?$allocator@D@2@@std@@QEAAX_N_K@Z 0000000180005480 f i Adapter.obj
 0001:000044e0       ?_Unused_capacity@?$vector@V?$basic_string@DU?$char_traits@D@std@@V?$allocator@D@2@@std@@V?$allocator@V?$basic_string@DU?$char_traits@D@std@@V?$allocator@D@2@@std@@@2@@std@@QEBA_KXZ 00000001800054e0 f i Adapter.obj
 0001:000044f0       ?_Xlen@?$basic_string@DU?$char_traits@D@std@@V?$allocator@D@2@@std@@QEBAXXZ 00000001800054f0 f i Adapter.obj
 0001:00004510       ?_Xlen@?$vector@V?$basic_string@DU?$char_traits@D@std@@V?$allocator@D@2@@std@@V?$allocator@V?$basic_string@DU?$char_traits@D@std@@V?$allocator@D@2@@std@@@2@@std@@IEBAXXZ 0000000180005510 f i Adapter.obj
 0001:00004530       ?_Xran@?$basic_string@DU?$char_traits@D@std@@V?$allocator@D@2@@std@@QEBAXXZ 0000000180005530 f i Adapter.obj
 0001:00004550       ?_i64toa@CAdapter@@SAPEAD_JPEADH@Z 0000000180005550 f   Adapter.obj
 0001:00004560       ?_ui64toa@CAdapter@@SAPEAD_KPEADH@Z 0000000180005560 f   Adapter.obj
 0001:00004570       ?allocate@?$_Wrap_alloc@V?$allocator@D@std@@@std@@QEAAPEAD_K@Z 0000000180005570 f i Adapter.obj
 0001:000045a0       ?allocate@?$_Wrap_alloc@V?$allocator@V?$basic_string@DU?$char_traits@D@std@@V?$allocator@D@2@@std@@@std@@@std@@QEAAPEAV?$basic_string@DU?$char_traits@D@std@@V?$allocator@D@2@@2@_K@Z 00000001800055a0 f i Adapter.obj
 0001:000045e0       ?allocate@?$allocator@D@std@@QEAAPEAD_K@Z 00000001800055e0 f i Adapter.obj
 0001:00004610       ?allocate@?$allocator@V?$basic_string@DU?$char_traits@D@std@@V?$allocator@D@2@@std@@@std@@QEAAPEAV?$basic_string@DU?$char_traits@D@std@@V?$allocator@D@2@@2@_K@Z 0000000180005610 f i Adapter.obj
 0001:00004650       ?assign@?$basic_string@DU?$char_traits@D@std@@V?$allocator@D@2@@std@@QEAAAEAV12@AEBV12@_K1@Z 0000000180005650 f i Adapter.obj
 0001:00004780       ?assign@?$basic_string@DU?$char_traits@D@std@@V?$allocator@D@2@@std@@QEAAAEAV12@PEBD@Z 0000000180005780 f i Adapter.obj
 0001:000047a0       ?assign@?$basic_string@DU?$char_traits@D@std@@V?$allocator@D@2@@std@@QEAAAEAV12@PEBD_K@Z 00000001800057a0 f i Adapter.obj
 0001:000048d0       ?assign@?$char_traits@D@std@@SAXAEADAEBD@Z 00000001800058d0 f i Adapter.obj
 0001:000048e0       ?capacity@?$vector@V?$basic_string@DU?$char_traits@D@std@@V?$allocator@D@2@@std@@V?$allocator@V?$basic_string@DU?$char_traits@D@std@@V?$allocator@D@2@@std@@@2@@std@@QEBA_KXZ 00000001800058e0 f i Adapter.obj
 0001:000048f0       ?category@error_code@std@@QEBAAEBVerror_category@2@XZ 00000001800058f0 f i Adapter.obj
 0001:00004900       ?category@error_condition@std@@QEBAAEBVerror_category@2@XZ 0000000180005900 f i Adapter.obj
 0001:00004910       ?closesocket@CAdapter@@SAH_K@Z 0000000180005910 f   Adapter.obj
 0001:00004920       ?copy@?$char_traits@D@std@@SAPEADPEADPEBD_K@Z 0000000180005920 f i Adapter.obj
 0001:00004940       ?deallocate@?$_Wrap_alloc@V?$allocator@D@std@@@std@@QEAAXPEAD_K@Z 0000000180005940 f i Adapter.obj
 0001:00004950       ?deallocate@?$_Wrap_alloc@V?$allocator@V?$basic_string@DU?$char_traits@D@std@@V?$allocator@D@2@@std@@@std@@@std@@QEAAXPEAV?$basic_string@DU?$char_traits@D@std@@V?$allocator@D@2@@2@_K@Z 0000000180005950 f i Adapter.obj
 0001:00004960       ?deallocate@?$allocator@D@std@@QEAAXPEAD_K@Z 0000000180005960 f i Adapter.obj
 0001:00004970       ?deallocate@?$allocator@V?$basic_string@DU?$char_traits@D@std@@V?$allocator@D@2@@std@@@std@@QEAAXPEAV?$basic_string@DU?$char_traits@D@std@@V?$allocator@D@2@@2@_K@Z 0000000180005970 f i Adapter.obj
 0001:00004980       ?default_error_condition@_System_error_category@std@@UEBA?AVerror_condition@2@H@Z 0000000180005980 f i Adapter.obj
 0001:000049c0       ?default_error_condition@error_category@std@@UEBA?AVerror_condition@2@H@Z 00000001800059c0 f i Adapter.obj
 0001:000049d0       ?equivalent@error_category@std@@UEBA_NAEBVerror_code@2@H@Z 00000001800059d0 f i Adapter.obj
 0001:000049f0       ?equivalent@error_category@std@@UEBA_NHAEBVerror_condition@2@@Z 00000001800059f0 f i Adapter.obj
 0001:00004a30       ?erase@?$basic_string@DU?$char_traits@D@std@@V?$allocator@D@2@@std@@QEAAAEAV12@_K0@Z 0000000180005a30 f i Adapter.obj
 0001:00004b00       ?erase@?$basic_string@DU?$char_traits@D@std@@V?$allocator@D@2@@std@@QEAAAEAV12@_K@Z 0000000180005b00 f i Adapter.obj
 0001:00004b40       ?find@?$char_traits@D@std@@SAPEBDPEBD_KAEBD@Z 0000000180005b40 f i Adapter.obj
 0001:00004b60       ?find_last_of@?$basic_string@DU?$char_traits@D@std@@V?$allocator@D@2@@std@@QEBA_KPEBD_K1@Z 0000000180005b60 f i Adapter.obj
 0001:00004c00       ?find_last_of@?$basic_string@DU?$char_traits@D@std@@V?$allocator@D@2@@std@@QEBA_KPEBD_K@Z 0000000180005c00 f i Adapter.obj
 0001:00004c20       ?generic_category@std@@YAAEBVerror_category@1@XZ 0000000180005c20 f i Adapter.obj
 0001:00004c30       ?get_current_time@CAdapter@@SANXZ 0000000180005c30 f   Adapter.obj
 0001:00004cd0       ?i64toa_linux@CAdapter@@KAPEAD_JPEADH@Z 0000000180005cd0 f   Adapter.obj
 0001:00004d70       ?itoa@CAdapter@@SAPEADHPEADH@Z 0000000180005d70 f   Adapter.obj
 0001:00004d80       ?itoa_linux@CAdapter@@KAPEADHPEADH@Z 0000000180005d80 f   Adapter.obj
 0001:00004e40       ?length@?$char_traits@D@std@@SA_KPEBD@Z 0000000180005e40 f i Adapter.obj
 0001:00004e60       ?ltoa@CAdapter@@SAPEADHPEADH@Z 0000000180005e60 f   Adapter.obj
 0001:00004e70       ?ltoa_linux@CAdapter@@KAPEADJPEADH@Z 0000000180005e70 f   Adapter.obj
 0001:00004f30       ?max_size@?$_Wrap_alloc@V?$allocator@D@std@@@std@@QEBA_KXZ 0000000180005f30 f i Adapter.obj
 0001:00004f40       ?max_size@?$_Wrap_alloc@V?$allocator@V?$basic_string@DU?$char_traits@D@std@@V?$allocator@D@2@@std@@@std@@@std@@QEBA_KXZ 0000000180005f40 f i Adapter.obj
 0001:00004f50       ?max_size@?$allocator@D@std@@QEBA_KXZ 0000000180005f50 f i Adapter.obj
 0001:00004f60       ?max_size@?$allocator@V?$basic_string@DU?$char_traits@D@std@@V?$allocator@D@2@@std@@@std@@QEBA_KXZ 0000000180005f60 f i Adapter.obj
 0001:00004f70       ?max_size@?$allocator_traits@V?$allocator@D@std@@@std@@SA_KAEBV?$allocator@D@2@@Z 0000000180005f70 f i Adapter.obj
 0001:00004f80       ?max_size@?$allocator_traits@V?$allocator@V?$basic_string@DU?$char_traits@D@std@@V?$allocator@D@2@@std@@@std@@@std@@SA_KAEBV?$allocator@V?$basic_string@DU?$char_traits@D@std@@V?$allocator@D@2@@std@@@2@@Z 0000000180005f80 f i Adapter.obj
 0001:00004f90       ?max_size@?$basic_string@DU?$char_traits@D@std@@V?$allocator@D@2@@std@@QEBA_KXZ 0000000180005f90 f i Adapter.obj
 0001:00004fa0       ?max_size@?$vector@V?$basic_string@DU?$char_traits@D@std@@V?$allocator@D@2@@std@@V?$allocator@V?$basic_string@DU?$char_traits@D@std@@V?$allocator@D@2@@std@@@2@@std@@QEBA_KXZ 0000000180005fa0 f i Adapter.obj
 0001:00004fb0       ?message@_Generic_error_category@std@@UEBA?AV?$basic_string@DU?$char_traits@D@std@@V?$allocator@D@2@@2@H@Z 0000000180005fb0 f i Adapter.obj
 0001:00005020       ?message@_Iostream_error_category@std@@UEBA?AV?$basic_string@DU?$char_traits@D@std@@V?$allocator@D@2@@2@H@Z 0000000180006020 f i Adapter.obj
 0001:00005070       ?message@_System_error_category@std@@UEBA?AV?$basic_string@DU?$char_traits@D@std@@V?$allocator@D@2@@2@H@Z 0000000180006070 f i Adapter.obj
 0001:000050e0       ?move@?$char_traits@D@std@@SAPEADPEADPEBD_K@Z 00000001800060e0 f i Adapter.obj
 0001:000050f0       ?name@_Generic_error_category@std@@UEBAPEBDXZ 00000001800060f0 f i Adapter.obj
 0001:00005100       ?name@_Iostream_error_category@std@@UEBAPEBDXZ 0000000180006100 f i Adapter.obj
 0001:00005110       ?name@_System_error_category@std@@UEBAPEBDXZ 0000000180006110 f i Adapter.obj
 0001:00005120       ?push_back@?$vector@V?$basic_string@DU?$char_traits@D@std@@V?$allocator@D@2@@std@@V?$allocator@V?$basic_string@DU?$char_traits@D@std@@V?$allocator@D@2@@std@@@2@@std@@QEAAX$$QEAV?$basic_string@DU?$char_traits@D@std@@V?$allocator@D@2@@2@@Z 0000000180006120 f i Adapter.obj
 0001:00005200       ?size@?$basic_string@DU?$char_traits@D@std@@V?$allocator@D@2@@std@@QEBA_KXZ 0000000180006200 f i Adapter.obj
 0001:00005210       ?size@?$vector@V?$basic_string@DU?$char_traits@D@std@@V?$allocator@D@2@@std@@V?$allocator@V?$basic_string@DU?$char_traits@D@std@@V?$allocator@D@2@@std@@@2@@std@@QEBA_KXZ 0000000180006210 f i Adapter.obj
 0001:00005220       ?strlow@CAdapter@@SAPEADPEAD@Z 0000000180006220 f   Adapter.obj
 0001:000052b0       ?strstri@@YAPEADPEBD0@Z    00000001800062b0 f   Adapter.obj
 0001:00005370       ?strupr@CAdapter@@SAPEADPEAD@Z 0000000180006370 f   Adapter.obj
 0001:00005400       ?system_category@std@@YAAEBVerror_category@1@XZ 0000000180006400 f i Adapter.obj
 0001:00005410       ?ui64toa_linux@CAdapter@@KAPEAD_KPEADH@Z 0000000180006410 f   Adapter.obj
 0001:000054b0       ?value@error_code@std@@QEBAHXZ 00000001800064b0 f i Adapter.obj
 0001:000054c0       ?value@error_condition@std@@QEBAHXZ 00000001800064c0 f i Adapter.obj
 0001:000054d0       HRESULT_FROM_WIN32         00000001800064d0 f i Adapter.obj
 0001:000054e0       hypot                      00000001800064e0 f i Adapter.obj
 0001:00005500       ??0CCompatibleEvent@@QEAA@XZ 0000000180006500 f   CompatibleEvent.obj
 0001:00005510       ??1CCompatibleEvent@@QEAA@XZ 0000000180006510 f   CompatibleEvent.obj
 0001:00005520       ??4CCompatibleEvent@@QEAAAEAV0@AEAV0@@Z 0000000180006520 f   CompatibleEvent.obj
 0001:00005560       ?GetEvent@CCompatibleEvent@@AEAAAEAPEAXXZ 0000000180006560 f   CompatibleEvent.obj
 0001:00005570       ?GetMEvent@CCompatibleEvent@@AEAAPEAUMEvent@@XZ 0000000180006570 f   CompatibleEvent.obj
 0001:00005580       ?Init@CCompatibleEvent@@AEAA_N_N@Z 0000000180006580 f   CompatibleEvent.obj
 0001:000055c0       ?IsManualReset@CCompatibleEvent@@AEBA_NXZ 00000001800065c0 f   CompatibleEvent.obj
 0001:000055d0       ?IsSignaled@CCompatibleEvent@@AEAA_NXZ 00000001800065d0 f   CompatibleEvent.obj
 0001:000055e0       ?ResetSignalCnt@CCompatibleEvent@@AEAAXXZ 00000001800065e0 f   CompatibleEvent.obj
 0001:00005600       ?SetCompatibleEvent@CCompatibleEvent@@AEAAXXZ 0000000180006600 f   CompatibleEvent.obj
 0001:00005610       ?SetMEvent@CCompatibleEvent@@AEAAXPEAV1@I@Z 0000000180006610 f   CompatibleEvent.obj
 0001:00005620       ?UnInit@CCompatibleEvent@@AEAAXXZ 0000000180006620 f   CompatibleEvent.obj
 0001:00005650       ??0CCompatibleThread@@QEAA@XZ 0000000180006650 f   CompatibleThread.obj
 0001:00005660       ??1CCompatibleThread@@QEAA@XZ 0000000180006660 f   CompatibleThread.obj
 0001:00005670       ?CreateThread@CCompatibleThread@@CAHP6AIPEAX@Z0@Z 0000000180006670 f   CompatibleThread.obj
 0001:000056c0       ?CreateThread@CCompatibleThread@@CAHP6AIPEAX@Z0I@Z 00000001800066c0 f   CompatibleThread.obj
 0001:00005720       ??0DerivedLock@@QEAA@XZ    0000000180006720 f   DerivedLock.obj
 0001:00005750       ??1DerivedLock@@UEAA@XZ    0000000180006750 f   DerivedLock.obj
 0001:00005780       ??_EDerivedLock@@UEAAPEAXI@Z 0000000180006780 f i DerivedLock.obj
 0001:00005780       ??_GDerivedLock@@UEAAPEAXI@Z 0000000180006780 f i DerivedLock.obj
 0001:000057b0       ?Destroy@DerivedLock@@UEAAXXZ 00000001800067b0 f   DerivedLock.obj
 0001:000057c0       ?Lock@DerivedLock@@UEAAXXZ 00000001800067c0 f   DerivedLock.obj
 0001:000057d0       ?UnLock@DerivedLock@@UEAAXXZ 00000001800067d0 f   DerivedLock.obj
 0001:000057e0       ??0_Ignore@std@@QEAA@XZ    00000001800067e0 f i DoubleListEx.obj
 0001:000057f0       ?GetGlobalKey@@YAHXZ       00000001800067f0 f   DoubleListEx.obj
 0001:00005840       ??0?$_String_const_iterator@V?$_String_val@U?$_Simple_types@D@std@@@std@@@std@@QEAA@PEBDPEBU_Container_base0@1@@Z 0000000180006840 f i Global.obj
 0001:00005850       ??0?$_String_iterator@V?$_String_val@U?$_Simple_types@D@std@@@std@@@std@@QEAA@PEADPEBU_Container_base0@1@@Z 0000000180006850 f i Global.obj
 0001:00005860       ??0?$basic_string@DU?$char_traits@D@std@@V?$allocator@D@2@@std@@QEAA@XZ 0000000180006860 f i Global.obj
 0001:00005880       ??0CGlobal@@QEAA@XZ        0000000180006880 f   Global.obj
 0001:00005890       ??0COleDateTime@ATL@@QEAA@N@Z 0000000180006890 f i Global.obj
 0001:000058a0       ??0CSpeedLimit@@QEAA@XZ    00000001800068a0 f   Global.obj
 0001:000058e0       ??0SYSTEMTIME_EX@@QEAA@XZ  00000001800068e0 f i Global.obj
 0001:00005900       ??0Systime_Bigint@@QEAA@XZ 0000000180006900 f i Global.obj
 0001:00005960       ??0Systime_Bigint@@QEAA@_J@Z 0000000180006960 f i Global.obj
 0001:00005a70       ??1CSpeedLimit@@UEAA@XZ    0000000180006a70 f   Global.obj
 0001:00005a80       ??4?$basic_string@DU?$char_traits@D@std@@V?$allocator@D@2@@std@@QEAAAEAV01@PEBD@Z 0000000180006a80 f i Global.obj
 0001:00005aa0       ??G?$_String_const_iterator@V?$_String_val@U?$_Simple_types@D@std@@@std@@@std@@QEBA_JAEBV01@@Z 0000000180006aa0 f i Global.obj
 0001:00005ab0       ??H?$_String_iterator@V?$_String_val@U?$_Simple_types@D@std@@@std@@@std@@QEBA?AV01@_J@Z 0000000180006ab0 f i Global.obj
 0001:00005ac0       ??Y?$_String_const_iterator@V?$_String_val@U?$_Simple_types@D@std@@@std@@@std@@QEAAAEAV01@_J@Z 0000000180006ac0 f i Global.obj
 0001:00005ad0       ??Y?$_String_iterator@V?$_String_val@U?$_Simple_types@D@std@@@std@@@std@@QEAAAEAV01@_J@Z 0000000180006ad0 f i Global.obj
 0001:00005ae0       ??_ECSpeedLimit@@UEAAPEAXI@Z 0000000180006ae0 f i Global.obj
 0001:00005ae0       ??_GCSpeedLimit@@UEAAPEAXI@Z 0000000180006ae0 f i Global.obj
 0001:00005b10       ?AsciiToUS2@CGlobal@@SAHPEBDPEAEPEAI@Z 0000000180006b10 f   Global.obj
 0001:00005c30       ?Base64Decode@CGlobal@@SAHPEAEK0@Z 0000000180006c30 f   Global.obj
 0001:00005cf0       ?Base64Encode@CGlobal@@SAHPEAEK0@Z 0000000180006cf0 f   Global.obj
 0001:00005df0       ?BeepEx@CGlobal@@SAXKK@Z   0000000180006df0 f   Global.obj
 0001:00005ed0       ?BinStr2Num@CGlobal@@AEAAHPEAD@Z 0000000180006ed0 f   Global.obj
 0001:00005f00       ?CalcMsgLen@CGlobal@@SAHHHPEBD@Z 0000000180006f00 f   Global.obj
 0001:00006030       ?CalcMsgNum@CGlobal@@SAHHHHHPEBD_N@Z 0000000180007030 f   Global.obj
 0001:00006100       ?CharToASCII@CGlobal@@SAHPEBDHPEADH@Z 0000000180007100 f   Global.obj
 0001:00006180       ?CharToASCIIEx@CGlobal@@SAHPEBDHPEAD@Z 0000000180007180 f   Global.obj
 0001:00006200       ?CheckMsgValidity@CGlobal@@SAHHHAEAGPEAD_N2@Z 0000000180007200 f   Global.obj
 0001:000065c0       ?CheckMtExParam@CGlobal@@SA_NPEBD00H@Z 00000001800075c0 f   Global.obj
 0001:000066b0       ?ClrBit@CGlobal@@SAXAEAHH@Z 00000001800076b0 f   Global.obj
 0001:000066d0       ?DateToTimeStr@CGlobal@@SA?AV?$basic_string@DU?$char_traits@D@std@@V?$allocator@D@2@@std@@N@Z 00000001800076d0 f   Global.obj
 0001:00006820       ?DecodeHtmlStr@CGlobal@@SAXPEAD0AEAH@Z 0000000180007820 f   Global.obj
 0001:00006910       ?Delay@CGlobal@@SAXH@Z     0000000180007910 f   Global.obj
 0001:00006950       ?FORMATI64D@@YA?AV?$basic_string@DU?$char_traits@D@std@@V?$allocator@D@2@@std@@PEBD@Z 0000000180007950 f   Global.obj
 0001:000069c0       ?FormatBigintToSystime@Systime_Bigint@@QEAAXPEAUSYSTEMTIME_EX@@@Z 00000001800079c0 f i Global.obj
 0001:000069d0       ?FormatBigintToSystime@Systime_Bigint@@QEAAX_JPEAUSYSTEMTIME_EX@@@Z 00000001800079d0 f i Global.obj
 0001:00006ae0       ?FormatSystimeToBigint@Systime_Bigint@@QEAA_JUSYSTEMTIME_EX@@@Z 0000000180007ae0 f i Global.obj
 0001:00006b90       ?GenMtExParam@CGlobal@@SAHPEBD00PEAD@Z 0000000180007b90 f   Global.obj
 0001:00006c90       ?GeneranteSeqID@CGlobal@@SAHXZ 0000000180007c90 f   Global.obj
 0001:00006ca0       ?GenernateMsgIDEx@CGlobal@@AEAAXPEAEH@Z 0000000180007ca0 f   Global.obj
 0001:00007b90       ?GetAsSystemTime@COleDateTime@ATL@@QEBA_NAEAU_SYSTEMTIME@@@Z 0000000180008b90 f i Global.obj
 0001:00007bc0       ?GetBit@CGlobal@@SA_NHH@Z  0000000180008bc0 f   Global.obj
 0001:00007bd0       ?GetCmdValue@CGlobal@@SAHPEAD0H0_N@Z 0000000180008bd0 f   Global.obj
 0001:00007ee0       ?GetCmdValueEx@CGlobal@@SAHPEAD0H0_N@Z 0000000180008ee0 f   Global.obj
 0001:00008100       ?GetHour@COleDateTime@ATL@@QEBAHXZ 0000000180009100 f i Global.obj
 0001:00008170       ?GetI64MsgIdAt@CGlobal@@SA_J_JH@Z 0000000180009170 f   Global.obj
 0001:00008180       ?GetInt64Bit@CGlobal@@SA_N_JH@Z 0000000180009180 f   Global.obj
 0001:00008190       ?GetIpFromUrl@CGlobal@@SAHPEBDPEAD11AEAH@Z 0000000180009190 f   Global.obj
 0001:00008380       ?GetMaxSpeed@CSpeedLimit@@QEAAHXZ 0000000180009380 f   Global.obj
 0001:00008390       ?GetMinute@COleDateTime@ATL@@QEBAHXZ 0000000180009390 f i Global.obj
 0001:00008400       ?GetMsgId@CGlobal@@CAHH@Z  0000000180009400 f   Global.obj
 0001:00008460       ?GetMsgId@CGlobal@@CAHHAEA_N@Z 0000000180009460 f   Global.obj
 0001:000084d0       ?GetRptDayFromMsgId@CGlobal@@SAHPEBE@Z 00000001800094d0 f   Global.obj
 0001:000085f0       ?GetSecond@COleDateTime@ATL@@QEBAHXZ 00000001800095f0 f i Global.obj
 0001:00008660       ?GetStatus@COleDateTime@ATL@@QEBA?AW4DateTimeStatus@12@XZ 0000000180009660 f i Global.obj
 0001:00008670       ?GetSubStr@CGlobal@@SA?AV?$basic_string@DU?$char_traits@D@std@@V?$allocator@D@2@@std@@PEBDH@Z 0000000180009670 f   Global.obj
 0001:000088b0       ?GetSubStrFirst@CGlobal@@SA?AV?$basic_string@DU?$char_traits@D@std@@V?$allocator@D@2@@std@@PEBD@Z 00000001800098b0 f   Global.obj
 0001:00008960       ?GetTimeInMsgId@CGlobal@@SAXPEADPEBE@Z 0000000180009960 f   Global.obj
 0001:00008a00       ?GetTimeInMsgId@CGlobal@@SA_JPEBE@Z 0000000180009a00 f   Global.obj
 0001:00008b00       ?GetTimeInMsgId@CGlobal@@SA_JPEBE_J@Z 0000000180009b00 f   Global.obj
 0001:00008bb0       ?GetTimeInMsgId@CGlobal@@SA_J_J@Z 0000000180009bb0 f   Global.obj
 0001:00008c00       ?GetUserPrivilege@CGlobal@@SAHHH@Z 0000000180009c00 f   Global.obj
 0001:00008c20       ?GetValidTime@CGlobal@@SAHPEBD0PEAD@Z 0000000180009c20 f   Global.obj
 0001:00008ef0       ?HexStrToMemBytes@CGlobal@@SAHPEAEPEBDHH@Z 0000000180009ef0 f   Global.obj
 0001:00008fb0       ?HexchartoInt@CGlobal@@SAHD@Z 0000000180009fb0 f   Global.obj
 0001:00009040       ?InitSocket@CGlobal@@SAHXZ 000000018000a040 f   Global.obj
 0001:000090c0       ?IsAllAlpNum@CGlobal@@SA_NPEBD@Z 000000018000a0c0 f   Global.obj
 0001:00009120       ?IsAllDigital@CGlobal@@SA_NPEBD@Z 000000018000a120 f   Global.obj
 0001:00009170       ?IsInSpan@CGlobal@@SA_NNNN@Z 000000018000a170 f   Global.obj
 0001:000091c0       ?IsInnerErrRpt@CGlobal@@SA_NPEBD@Z 000000018000a1c0 f   Global.obj
 0001:00009250       ?IsMsgIdInToday@CGlobal@@SA_NPEBE@Z 000000018000a250 f   Global.obj
 0001:000092d0       ?IsSuccessRpt@CGlobal@@SA_NPEBD@Z 000000018000a2d0 f   Global.obj
 0001:00009310       ?IsTimeOutRpt@CGlobal@@SA_NPEBEE@Z 000000018000a310 f   Global.obj
 0001:00009370       ?IsTodayMtRpt@CGlobal@@SA_NPEBE_J@Z 000000018000a370 f   Global.obj
 0001:00009410       ?IsUnKnownCode@CGlobal@@SA_NH@Z 000000018000a410 f   Global.obj
 0001:00009430       ?IsZHCN@CGlobal@@SA_NPEBD@Z 000000018000a430 f   Global.obj
 0001:00009450       ?LimitSpeed@CSpeedLimit@@QEAAHH@Z 000000018000a450 f   Global.obj
 0001:00009570       ?MIN2@@YAHHH@Z             000000018000a570 f   Global.obj
 0001:00009580       ?MakeMsgId@CGlobal@@SAXPEAEII@Z 000000018000a580 f   Global.obj
 0001:000096c0       ?MakeMsgId@CGlobal@@SAXPEAEPEAD@Z 000000018000a6c0 f   Global.obj
 0001:000098e0       ?MakeMsgValid@CGlobal@@SAXPEBDPEADHHH_N2@Z 000000018000a8e0 f   Global.obj
 0001:00009ae0       ?MakeSgipMsgId@CGlobal@@SAXPEAEIII@Z 000000018000aae0 f   Global.obj
 0001:00009c50       ?MakeSysTmValid@CGlobal@@SAXPEBDPEAD@Z 000000018000ac50 f   Global.obj
 0001:00009e00       ?MakeTimeValid@Systime_Bigint@@QEAAXPEAUSYSTEMTIME_EX@@@Z 000000018000ae00 f i Global.obj
 0001:00009e50       ?MemBytesToHexStr@CGlobal@@SAHPEBEHPEAD@Z 000000018000ae50 f   Global.obj
 0001:00009ed0       ?ParaseJavaEncode@CGlobal@@SAXPEAD0AEAH@Z 000000018000aed0 f   Global.obj
 0001:0000a070       ?PhoneListToDestId@CGlobal@@SAXPEADPEBDII@Z 000000018000b070 f   Global.obj
 0001:0000a0f0       ?ReplaceChar@CGlobal@@SAXPEAEDDI@Z 000000018000b0f0 f   Global.obj
 0001:0000a130       ?ReplaceChar@CGlobal@@SAXPEAEDPEADI@Z 000000018000b130 f   Global.obj
 0001:0000a220       ?SetBit@CGlobal@@SAXAEAHH@Z 000000018000b220 f   Global.obj
 0001:0000a230       ?SetBitValue@CGlobal@@SAXAEAHH_N@Z 000000018000b230 f   Global.obj
 0001:0000a240       ?SetInt64Bit@CGlobal@@SAXAEA_JH@Z 000000018000b240 f   Global.obj
 0001:0000a260       ?SetMaxSpeed@CSpeedLimit@@QEAAXH@Z 000000018000b260 f   Global.obj
 0001:0000a280       ?SplitMsg@CGlobal@@SAHPEBDHPEAD1@Z 000000018000b280 f   Global.obj
 0001:0000a480       ?SplitMsgEx@CGlobal@@SAHPEBEPEADHHHHHH_NH@Z 000000018000b480 f   Global.obj
 0001:0000a5d0       ?SplitStr@CGlobal@@SAHPEBDAEAV?$vector@V?$basic_string@DU?$char_traits@D@std@@V?$allocator@D@2@@std@@V?$allocator@V?$basic_string@DU?$char_traits@D@std@@V?$allocator@D@2@@std@@@2@@std@@H@Z 000000018000b5d0 f   Global.obj
 0001:0000a920       ?StrTimeToLong@CGlobal@@SAJPEBD@Z 000000018000b920 f   Global.obj
 0001:0000a980       ?TranHttpSpace@CGlobal@@SAHPEAD@Z 000000018000b980 f   Global.obj
 0001:0000aae0       ?TranMsgId@CGlobal@@SAHPEAEPEAD@Z 000000018000bae0 f   Global.obj
 0001:0000abd0       ?TranMsgIdCharToI64@CGlobal@@SA_JPEBE@Z 000000018000bbd0 f   Global.obj
 0001:0000ac30       ?TranMsgIdI64ToChar@CGlobal@@SAXPEAE_J@Z 000000018000bc30 f   Global.obj
 0001:0000ac80       ?TransMsg@CGlobal@@SAHPEADPEBDHHH@Z 000000018000bc80 f   Global.obj
 0001:0000ad80       ?TrimGarbledCharacter@CGlobal@@SAHPEADHH@Z 000000018000bd80 f   Global.obj
 0001:0000ae40       ?TrimRight@CGlobal@@SAIPEADI@Z 000000018000be40 f   Global.obj
 0001:0000ae70       ?TrimRight@CGlobal@@SAIPEADID@Z 000000018000be70 f   Global.obj
 0001:0000aea0       ?US2ToAscii@CGlobal@@SAHPEBDHPEADPEAH@Z 000000018000bea0 f   Global.obj
 0001:0000afc0       ?UnInitSocket@CGlobal@@SAHXZ 000000018000bfc0 f   Global.obj
 0001:0000afe0       ?UnMakeMsgId@CGlobal@@QEAAXPEADPEBE@Z 000000018000bfe0 f   Global.obj
 0001:0000b0c0       ?UnMakeSgipMsgId@CGlobal@@SAXPEBEPEAI11@Z 000000018000c0c0 f   Global.obj
 0001:0000b1e0       ?_Adopt@_Iterator_base0@std@@QEAAXPEBX@Z 000000018000c1e0 f i Global.obj
 0001:0000b1f0       ?_Chassign@?$basic_string@DU?$char_traits@D@std@@V?$allocator@D@2@@std@@QEAAX_K0D@Z 000000018000c1f0 f i Global.obj
 0001:0000b220       ?_Compat@?$_String_const_iterator@V?$_String_val@U?$_Simple_types@D@std@@@std@@@std@@QEBAXAEBV12@@Z 000000018000c220 f i Global.obj
 0001:0000b230       ?_Pdif@?$basic_string@DU?$char_traits@D@std@@V?$allocator@D@2@@std@@SA_KV?$_String_const_iterator@V?$_String_val@U?$_Simple_types@D@std@@@std@@@2@0@Z 000000018000c230 f i Global.obj
 0001:0000b240       ?assign@?$char_traits@D@std@@SAPEADPEAD_KD@Z 000000018000c240 f i Global.obj
 0001:0000b270       ?begin@?$basic_string@DU?$char_traits@D@std@@V?$allocator@D@2@@std@@QEAA?AV?$_String_iterator@V?$_String_val@U?$_Simple_types@D@std@@@std@@@2@XZ 000000018000c270 f i Global.obj
 0001:0000b290       ?c_str@?$basic_string@DU?$char_traits@D@std@@V?$allocator@D@2@@std@@QEBAPEBDXZ 000000018000c290 f i Global.obj
 0001:0000b2a0       ?compare@?$char_traits@D@std@@SAHPEBD0_K@Z 000000018000c2a0 f i Global.obj
 0001:0000b2b0       ?find@?$basic_string@DU?$char_traits@D@std@@V?$allocator@D@2@@std@@QEBA_KPEBD_K1@Z 000000018000c2b0 f i Global.obj
 0001:0000b3a0       ?find@?$basic_string@DU?$char_traits@D@std@@V?$allocator@D@2@@std@@QEBA_KPEBD_K@Z 000000018000c3a0 f i Global.obj
 0001:0000b3c0       ?insert@?$basic_string@DU?$char_traits@D@std@@V?$allocator@D@2@@std@@QEAA?AV?$_String_iterator@V?$_String_val@U?$_Simple_types@D@std@@@std@@@2@V?$_String_const_iterator@V?$_String_val@U?$_Simple_types@D@std@@@std@@@2@D@Z 000000018000c3c0 f i Global.obj
 0001:0000b430       ?insert@?$basic_string@DU?$char_traits@D@std@@V?$allocator@D@2@@std@@QEAAAEAV12@_K0D@Z 000000018000c430 f i Global.obj
 0001:0000b5a0       ?replace@?$basic_string@DU?$char_traits@D@std@@V?$allocator@D@2@@std@@QEAAAEAV12@_K0AEBV12@00@Z 000000018000c5a0 f i Global.obj
 0001:0000b920       ?replace@?$basic_string@DU?$char_traits@D@std@@V?$allocator@D@2@@std@@QEAAAEAV12@_K0PEBD0@Z 000000018000c920 f i Global.obj
 0001:0000bb50       ?replace@?$basic_string@DU?$char_traits@D@std@@V?$allocator@D@2@@std@@QEAAAEAV12@_K0PEBD@Z 000000018000cb50 f i Global.obj
 0001:0000bb90       ?replace@cstr@@SAXAEAV?$basic_string@DU?$char_traits@D@std@@V?$allocator@D@2@@std@@PEBD1@Z 000000018000cb90 f i Global.obj
 0001:0000bcc0       ?strstr@@YAPEADPEADPEBD@Z  000000018000ccc0 f i Global.obj
 0001:0000bd00       ??$?0AEAHAEAPEAUIOCPKEY@@X@?$pair@HPEAUIOCPKEY@@@std@@QEAA@AEAHAEAPEAUIOCPKEY@@@Z 000000018000cd00 f i IocpKeyIoMgr.obj
 0001:0000bd10       ??$?0AEAV?$_Tree_iterator@V?$_Tree_val@U?$_Tree_simple_types@U?$pair@$$CBHPEAUIOCPIO@@@std@@@std@@@std@@@std@@AEAV01@X@?$pair@V?$_Tree_iterator@V?$_Tree_val@U?$_Tree_simple_types@U?$pair@$$CBHPEAUIOCPIO@@@std@@@std@@@std@@@std@@V12@@std@@QEAA@AEAV?$_Tree_iterator@V?$_Tree_val@U?$_Tree_simple_types@U?$pair@$$CBHPEAUIOCPIO@@@std@@@std@@@std@@@1@0@Z 000000018000cd10 f i IocpKeyIoMgr.obj
 0001:0000bd30       ??$?0AEAV?$_Tree_iterator@V?$_Tree_val@U?$_Tree_simple_types@U?$pair@$$CBHPEAUIOCPIO@@@std@@@std@@@std@@@std@@_NX@?$pair@V?$_Tree_iterator@V?$_Tree_val@U?$_Tree_simple_types@U?$pair@$$CBHPEAUIOCPIO@@@std@@@std@@@std@@@std@@_N@std@@QEAA@AEAV?$_Tree_iterator@V?$_Tree_val@U?$_Tree_simple_types@U?$pair@$$CBHPEAUIOCPIO@@@std@@@std@@@std@@@1@$$QEA_N@Z 000000018000cd30 f i IocpKeyIoMgr.obj
 0001:0000bd50       ??$?0AEAV?$_Tree_iterator@V?$_Tree_val@U?$_Tree_simple_types@U?$pair@$$CBHPEAUIOCPKEY@@@std@@@std@@@std@@@std@@AEAV01@X@?$pair@V?$_Tree_iterator@V?$_Tree_val@U?$_Tree_simple_types@U?$pair@$$CBHPEAUIOCPKEY@@@std@@@std@@@std@@@std@@V12@@std@@QEAA@AEAV?$_Tree_iterator@V?$_Tree_val@U?$_Tree_simple_types@U?$pair@$$CBHPEAUIOCPKEY@@@std@@@std@@@std@@@1@0@Z 000000018000cd50 f i IocpKeyIoMgr.obj
 0001:0000bd70       ??$?0AEAV?$_Tree_iterator@V?$_Tree_val@U?$_Tree_simple_types@U?$pair@$$CBHPEAUIOCPKEY@@@std@@@std@@@std@@@std@@_NX@?$pair@V?$_Tree_iterator@V?$_Tree_val@U?$_Tree_simple_types@U?$pair@$$CBHPEAUIOCPKEY@@@std@@@std@@@std@@@std@@_N@std@@QEAA@AEAV?$_Tree_iterator@V?$_Tree_val@U?$_Tree_simple_types@U?$pair@$$CBHPEAUIOCPKEY@@@std@@@std@@@std@@@1@$$QEA_N@Z 000000018000cd70 f i IocpKeyIoMgr.obj
 0001:0000bd90       ??$?0HAEAPEAUIOCPIO@@X@?$pair@HPEAUIOCPIO@@@std@@QEAA@$$QEAHAEAPEAUIOCPIO@@@Z 000000018000cd90 f i IocpKeyIoMgr.obj
 0001:0000bda0       ??$?0HPEAUIOCPIO@@X@?$pair@$$CBHPEAUIOCPIO@@@std@@QEAA@$$QEAU?$pair@HPEAUIOCPIO@@@1@@Z 000000018000cda0 f i IocpKeyIoMgr.obj
 0001:0000bdb0       ??$?0HPEAUIOCPKEY@@X@?$pair@$$CBHPEAUIOCPKEY@@@std@@QEAA@$$QEAU?$pair@HPEAUIOCPKEY@@@1@@Z 000000018000cdb0 f i IocpKeyIoMgr.obj
 0001:0000bdc0       ??$?0V?$_Tree_iterator@V?$_Tree_val@U?$_Tree_simple_types@U?$pair@$$CBHPEAUIOCPIO@@@std@@@std@@@std@@@std@@_NX@?$pair@V?$_Tree_iterator@V?$_Tree_val@U?$_Tree_simple_types@U?$pair@$$CBHPEAUIOCPIO@@@std@@@std@@@std@@@std@@_N@std@@QEAA@$$QEAV?$_Tree_iterator@V?$_Tree_val@U?$_Tree_simple_types@U?$pair@$$CBHPEAUIOCPIO@@@std@@@std@@@std@@@1@$$QEA_N@Z 000000018000cdc0 f i IocpKeyIoMgr.obj
 0001:0000bde0       ??$?0V?$_Tree_iterator@V?$_Tree_val@U?$_Tree_simple_types@U?$pair@$$CBHPEAUIOCPKEY@@@std@@@std@@@std@@@std@@_NX@?$pair@V?$_Tree_iterator@V?$_Tree_val@U?$_Tree_simple_types@U?$pair@$$CBHPEAUIOCPKEY@@@std@@@std@@@std@@@std@@_N@std@@QEAA@$$QEAV?$_Tree_iterator@V?$_Tree_val@U?$_Tree_simple_types@U?$pair@$$CBHPEAUIOCPKEY@@@std@@@std@@@std@@@1@$$QEA_N@Z 000000018000cde0 f i IocpKeyIoMgr.obj
 0001:0000be00       ??$_Allocate@U?$_List_node@PEAUIOCPIO@@PEAX@std@@@std@@YAPEAU?$_List_node@PEAUIOCPIO@@PEAX@0@_KPEAU10@@Z 000000018000ce00 f i IocpKeyIoMgr.obj
 0001:0000be40       ??$_Allocate@U?$_List_node@PEAUIOCPKEY@@PEAX@std@@@std@@YAPEAU?$_List_node@PEAUIOCPKEY@@PEAX@0@_KPEAU10@@Z 000000018000ce40 f i IocpKeyIoMgr.obj
 0001:0000be80       ??$_Allocate@U?$_Tree_node@U?$pair@$$CBHPEAUIOCPIO@@@std@@PEAX@std@@@std@@YAPEAU?$_Tree_node@U?$pair@$$CBHPEAUIOCPIO@@@std@@PEAX@0@_KPEAU10@@Z 000000018000ce80 f i IocpKeyIoMgr.obj
 0001:0000bec0       ??$_Allocate@U?$_Tree_node@U?$pair@$$CBHPEAUIOCPKEY@@@std@@PEAX@std@@@std@@YAPEAU?$_Tree_node@U?$pair@$$CBHPEAUIOCPKEY@@@std@@PEAX@0@_KPEAU10@@Z 000000018000cec0 f i IocpKeyIoMgr.obj
 0001:0000bf00       ??$_Buynode@AEBQEAUIOCPIO@@@?$_List_buy@PEAUIOCPIO@@V?$allocator@PEAUIOCPIO@@@std@@@std@@QEAAPEAU?$_List_node@PEAUIOCPIO@@PEAX@1@PEAU21@0AEBQEAUIOCPIO@@@Z 000000018000cf00 f i IocpKeyIoMgr.obj
 0001:0000bf40       ??$_Buynode@AEBQEAUIOCPKEY@@@?$_List_buy@PEAUIOCPKEY@@V?$allocator@PEAUIOCPKEY@@@std@@@std@@QEAAPEAU?$_List_node@PEAUIOCPKEY@@PEAX@1@PEAU21@0AEBQEAUIOCPKEY@@@Z 000000018000cf40 f i IocpKeyIoMgr.obj
 0001:0000bf80       ??$_Buynode@U?$pair@HPEAUIOCPIO@@@std@@@?$_Tree_buy@U?$pair@$$CBHPEAUIOCPIO@@@std@@V?$allocator@U?$pair@$$CBHPEAUIOCPIO@@@std@@@2@@std@@QEAAPEAU?$_Tree_node@U?$pair@$$CBHPEAUIOCPIO@@@std@@PEAX@1@$$QEAU?$pair@HPEAUIOCPIO@@@1@@Z 000000018000cf80 f i IocpKeyIoMgr.obj
 0001:0000bfc0       ??$_Buynode@U?$pair@HPEAUIOCPKEY@@@std@@@?$_Tree_buy@U?$pair@$$CBHPEAUIOCPKEY@@@std@@V?$allocator@U?$pair@$$CBHPEAUIOCPKEY@@@std@@@2@@std@@QEAAPEAU?$_Tree_node@U?$pair@$$CBHPEAUIOCPKEY@@@std@@PEAX@1@$$QEAU?$pair@HPEAUIOCPKEY@@@1@@Z 000000018000cfc0 f i IocpKeyIoMgr.obj
 0001:0000c000       ??$_Buynode_if_nil@AEAU?$pair@$$CBHPEAUIOCPIO@@@std@@@?$_Tree@V?$_Tmap_traits@HPEAUIOCPIO@@U?$less@H@std@@V?$allocator@U?$pair@$$CBHPEAUIOCPIO@@@std@@@3@$0A@@std@@@std@@IEAAPEAU?$_Tree_node@U?$pair@$$CBHPEAUIOCPIO@@@std@@PEAX@1@PEAU21@AEAU?$pair@$$CBHPEAUIOCPIO@@@1@@Z 000000018000d000 f i IocpKeyIoMgr.obj
 0001:0000c010       ??$_Buynode_if_nil@AEAU?$pair@$$CBHPEAUIOCPKEY@@@std@@@?$_Tree@V?$_Tmap_traits@HPEAUIOCPKEY@@U?$less@H@std@@V?$allocator@U?$pair@$$CBHPEAUIOCPKEY@@@std@@@3@$0A@@std@@@std@@IEAAPEAU?$_Tree_node@U?$pair@$$CBHPEAUIOCPKEY@@@std@@PEAX@1@PEAU21@AEAU?$pair@$$CBHPEAUIOCPKEY@@@1@@Z 000000018000d010 f i IocpKeyIoMgr.obj
 0001:0000c020       ??$_Distance2@V?$_Tree_iterator@V?$_Tree_val@U?$_Tree_simple_types@U?$pair@$$CBHPEAUIOCPIO@@@std@@@std@@@std@@@std@@_K@std@@YAXV?$_Tree_iterator@V?$_Tree_val@U?$_Tree_simple_types@U?$pair@$$CBHPEAUIOCPIO@@@std@@@std@@@std@@@0@0AEA_KUbidirectional_iterator_tag@0@@Z 000000018000d020 f i IocpKeyIoMgr.obj
 0001:0000c0a0       ??$_Distance2@V?$_Tree_iterator@V?$_Tree_val@U?$_Tree_simple_types@U?$pair@$$CBHPEAUIOCPKEY@@@std@@@std@@@std@@@std@@_K@std@@YAXV?$_Tree_iterator@V?$_Tree_val@U?$_Tree_simple_types@U?$pair@$$CBHPEAUIOCPKEY@@@std@@@std@@@std@@@0@0AEA_KUbidirectional_iterator_tag@0@@Z 000000018000d0a0 f i IocpKeyIoMgr.obj
 0001:0000c120       ??$_Distance@V?$_Tree_iterator@V?$_Tree_val@U?$_Tree_simple_types@U?$pair@$$CBHPEAUIOCPIO@@@std@@@std@@@std@@@std@@_K@std@@YAXV?$_Tree_iterator@V?$_Tree_val@U?$_Tree_simple_types@U?$pair@$$CBHPEAUIOCPIO@@@std@@@std@@@std@@@0@0AEA_K@Z 000000018000d120 f i IocpKeyIoMgr.obj
 0001:0000c140       ??$_Distance@V?$_Tree_iterator@V?$_Tree_val@U?$_Tree_simple_types@U?$pair@$$CBHPEAUIOCPKEY@@@std@@@std@@@std@@@std@@_K@std@@YAXV?$_Tree_iterator@V?$_Tree_val@U?$_Tree_simple_types@U?$pair@$$CBHPEAUIOCPKEY@@@std@@@std@@@std@@@0@0AEA_K@Z 000000018000d140 f i IocpKeyIoMgr.obj
 0001:0000c160       ??$_Insert@AEBQEAUIOCPIO@@@?$list@PEAUIOCPIO@@V?$allocator@PEAUIOCPIO@@@std@@@std@@QEAAXV?$_List_unchecked_const_iterator@V?$_List_val@U?$_List_simple_types@PEAUIOCPIO@@@std@@@std@@U_Iterator_base0@2@@1@AEBQEAUIOCPIO@@@Z 000000018000d160 f i IocpKeyIoMgr.obj
 0001:0000c1d0       ??$_Insert@AEBQEAUIOCPKEY@@@?$list@PEAUIOCPKEY@@V?$allocator@PEAUIOCPKEY@@@std@@@std@@QEAAXV?$_List_unchecked_const_iterator@V?$_List_val@U?$_List_simple_types@PEAUIOCPKEY@@@std@@@std@@U_Iterator_base0@2@@1@AEBQEAUIOCPKEY@@@Z 000000018000d1d0 f i IocpKeyIoMgr.obj
 0001:0000c240       ??$_Insert_at@AEAU?$pair@$$CBHPEAUIOCPIO@@@std@@PEAU?$_Tree_node@U?$pair@$$CBHPEAUIOCPIO@@@std@@PEAX@2@@?$_Tree@V?$_Tmap_traits@HPEAUIOCPIO@@U?$less@H@std@@V?$allocator@U?$pair@$$CBHPEAUIOCPIO@@@std@@@3@$0A@@std@@@std@@IEAA?AV?$_Tree_iterator@V?$_Tree_val@U?$_Tree_simple_types@U?$pair@$$CBHPEAUIOCPIO@@@std@@@std@@@std@@@1@_NPEAU?$_Tree_node@U?$pair@$$CBHPEAUIOCPIO@@@std@@PEAX@1@AEAU?$pair@$$CBHPEAUIOCPIO@@@1@1@Z 000000018000d240 f i IocpKeyIoMgr.obj
 0001:0000c4f0       ??$_Insert_at@AEAU?$pair@$$CBHPEAUIOCPKEY@@@std@@PEAU?$_Tree_node@U?$pair@$$CBHPEAUIOCPKEY@@@std@@PEAX@2@@?$_Tree@V?$_Tmap_traits@HPEAUIOCPKEY@@U?$less@H@std@@V?$allocator@U?$pair@$$CBHPEAUIOCPKEY@@@std@@@3@$0A@@std@@@std@@IEAA?AV?$_Tree_iterator@V?$_Tree_val@U?$_Tree_simple_types@U?$pair@$$CBHPEAUIOCPKEY@@@std@@@std@@@std@@@1@_NPEAU?$_Tree_node@U?$pair@$$CBHPEAUIOCPKEY@@@std@@PEAX@1@AEAU?$pair@$$CBHPEAUIOCPKEY@@@1@1@Z 000000018000d4f0 f i IocpKeyIoMgr.obj
 0001:0000c7a0       ??$_Insert_nohint@AEAU?$pair@$$CBHPEAUIOCPIO@@@std@@PEAU?$_Tree_node@U?$pair@$$CBHPEAUIOCPIO@@@std@@PEAX@2@@?$_Tree@V?$_Tmap_traits@HPEAUIOCPIO@@U?$less@H@std@@V?$allocator@U?$pair@$$CBHPEAUIOCPIO@@@std@@@3@$0A@@std@@@std@@IEAA?AU?$pair@V?$_Tree_iterator@V?$_Tree_val@U?$_Tree_simple_types@U?$pair@$$CBHPEAUIOCPIO@@@std@@@std@@@std@@@std@@_N@1@_NAEAU?$pair@$$CBHPEAUIOCPIO@@@1@PEAU?$_Tree_node@U?$pair@$$CBHPEAUIOCPIO@@@std@@PEAX@1@@Z 000000018000d7a0 f i IocpKeyIoMgr.obj
 0001:0000c900       ??$_Insert_nohint@AEAU?$pair@$$CBHPEAUIOCPKEY@@@std@@PEAU?$_Tree_node@U?$pair@$$CBHPEAUIOCPKEY@@@std@@PEAX@2@@?$_Tree@V?$_Tmap_traits@HPEAUIOCPKEY@@U?$less@H@std@@V?$allocator@U?$pair@$$CBHPEAUIOCPKEY@@@std@@@3@$0A@@std@@@std@@IEAA?AU?$pair@V?$_Tree_iterator@V?$_Tree_val@U?$_Tree_simple_types@U?$pair@$$CBHPEAUIOCPKEY@@@std@@@std@@@std@@@std@@_N@1@_NAEAU?$pair@$$CBHPEAUIOCPKEY@@@1@PEAU?$_Tree_node@U?$pair@$$CBHPEAUIOCPKEY@@@std@@PEAX@1@@Z 000000018000d900 f i IocpKeyIoMgr.obj
 0001:0000ca60       ??$_Iter_cat@V?$_Tree_iterator@V?$_Tree_val@U?$_Tree_simple_types@U?$pair@$$CBHPEAUIOCPIO@@@std@@@std@@@std@@@std@@@std@@YA?AUbidirectional_iterator_tag@0@AEBV?$_Tree_iterator@V?$_Tree_val@U?$_Tree_simple_types@U?$pair@$$CBHPEAUIOCPIO@@@std@@@std@@@std@@@0@@Z 000000018000da60 f i IocpKeyIoMgr.obj
 0001:0000ca70       ??$_Iter_cat@V?$_Tree_iterator@V?$_Tree_val@U?$_Tree_simple_types@U?$pair@$$CBHPEAUIOCPKEY@@@std@@@std@@@std@@@std@@@std@@YA?AUbidirectional_iterator_tag@0@AEBV?$_Tree_iterator@V?$_Tree_val@U?$_Tree_simple_types@U?$pair@$$CBHPEAUIOCPKEY@@@std@@@std@@@std@@@0@@Z 000000018000da70 f i IocpKeyIoMgr.obj
 0001:0000ca80       ??$_Kfn@$$CBHPEAUIOCPIO@@@?$_Tmap_traits@HPEAUIOCPIO@@U?$less@H@std@@V?$allocator@U?$pair@$$CBHPEAUIOCPIO@@@std@@@3@$0A@@std@@SAAEBHAEBU?$pair@$$CBHPEAUIOCPIO@@@1@@Z 000000018000da80 f i IocpKeyIoMgr.obj
 0001:0000ca90       ??$_Kfn@$$CBHPEAUIOCPKEY@@@?$_Tmap_traits@HPEAUIOCPKEY@@U?$less@H@std@@V?$allocator@U?$pair@$$CBHPEAUIOCPKEY@@@std@@@3@$0A@@std@@SAAEBHAEBU?$pair@$$CBHPEAUIOCPKEY@@@1@@Z 000000018000da90 f i IocpKeyIoMgr.obj
 0001:0000caa0       ??$_Move@AEAD@std@@YA$$QEADAEAD@Z 000000018000daa0 f i IocpKeyIoMgr.obj
 0001:0000cab0       ??$addressof@PEAU?$_List_node@PEAUIOCPIO@@PEAX@std@@@std@@YAPEAPEAU?$_List_node@PEAUIOCPIO@@PEAX@0@AEAPEAU10@@Z 000000018000dab0 f i IocpKeyIoMgr.obj
 0001:0000cac0       ??$addressof@PEAU?$_List_node@PEAUIOCPKEY@@PEAX@std@@@std@@YAPEAPEAU?$_List_node@PEAUIOCPKEY@@PEAX@0@AEAPEAU10@@Z 000000018000dac0 f i IocpKeyIoMgr.obj
 0001:0000cad0       ??$addressof@PEAU?$_Tree_node@U?$pair@$$CBHPEAUIOCPIO@@@std@@PEAX@std@@@std@@YAPEAPEAU?$_Tree_node@U?$pair@$$CBHPEAUIOCPIO@@@std@@PEAX@0@AEAPEAU10@@Z 000000018000dad0 f i IocpKeyIoMgr.obj
 0001:0000cae0       ??$addressof@PEAU?$_Tree_node@U?$pair@$$CBHPEAUIOCPKEY@@@std@@PEAX@std@@@std@@YAPEAPEAU?$_Tree_node@U?$pair@$$CBHPEAUIOCPKEY@@@std@@PEAX@0@AEAPEAU10@@Z 000000018000dae0 f i IocpKeyIoMgr.obj
 0001:0000caf0       ??$addressof@PEAUIOCPIO@@@std@@YAPEAPEAUIOCPIO@@AEAPEAU1@@Z 000000018000daf0 f i IocpKeyIoMgr.obj
 0001:0000cb00       ??$addressof@PEAUIOCPKEY@@@std@@YAPEAPEAUIOCPKEY@@AEAPEAU1@@Z 000000018000db00 f i IocpKeyIoMgr.obj
 0001:0000cb10       ??$addressof@U?$pair@$$CBHPEAUIOCPIO@@@std@@@std@@YAPEAU?$pair@$$CBHPEAUIOCPIO@@@0@AEAU10@@Z 000000018000db10 f i IocpKeyIoMgr.obj
 0001:0000cb20       ??$addressof@U?$pair@$$CBHPEAUIOCPKEY@@@std@@@std@@YAPEAU?$pair@$$CBHPEAUIOCPKEY@@@0@AEAU10@@Z 000000018000db20 f i IocpKeyIoMgr.obj
 0001:0000cb30       ??$construct@PEAU?$_List_node@PEAUIOCPIO@@PEAX@std@@AEAPEAU12@@?$_Wrap_alloc@V?$allocator@U?$_List_node@PEAUIOCPIO@@PEAX@std@@@std@@@std@@QEAAXPEAPEAU?$_List_node@PEAUIOCPIO@@PEAX@1@AEAPEAU21@@Z 000000018000db30 f i IocpKeyIoMgr.obj
 0001:0000cb40       ??$construct@PEAU?$_List_node@PEAUIOCPIO@@PEAX@std@@AEAPEAU12@@?$allocator@U?$_List_node@PEAUIOCPIO@@PEAX@std@@@std@@QEAAXPEAPEAU?$_List_node@PEAUIOCPIO@@PEAX@1@AEAPEAU21@@Z 000000018000db40 f i IocpKeyIoMgr.obj
 0001:0000cb50       ??$construct@PEAU?$_List_node@PEAUIOCPIO@@PEAX@std@@AEAPEAU12@@?$allocator_traits@V?$allocator@U?$_List_node@PEAUIOCPIO@@PEAX@std@@@std@@@std@@SAXAEAV?$allocator@U?$_List_node@PEAUIOCPIO@@PEAX@std@@@1@PEAPEAU?$_List_node@PEAUIOCPIO@@PEAX@1@AEAPEAU31@@Z 000000018000db50 f i IocpKeyIoMgr.obj
 0001:0000cb60       ??$construct@PEAU?$_List_node@PEAUIOCPKEY@@PEAX@std@@AEAPEAU12@@?$_Wrap_alloc@V?$allocator@U?$_List_node@PEAUIOCPKEY@@PEAX@std@@@std@@@std@@QEAAXPEAPEAU?$_List_node@PEAUIOCPKEY@@PEAX@1@AEAPEAU21@@Z 000000018000db60 f i IocpKeyIoMgr.obj
 0001:0000cb70       ??$construct@PEAU?$_List_node@PEAUIOCPKEY@@PEAX@std@@AEAPEAU12@@?$allocator@U?$_List_node@PEAUIOCPKEY@@PEAX@std@@@std@@QEAAXPEAPEAU?$_List_node@PEAUIOCPKEY@@PEAX@1@AEAPEAU21@@Z 000000018000db70 f i IocpKeyIoMgr.obj
 0001:0000cb80       ??$construct@PEAU?$_List_node@PEAUIOCPKEY@@PEAX@std@@AEAPEAU12@@?$allocator_traits@V?$allocator@U?$_List_node@PEAUIOCPKEY@@PEAX@std@@@std@@@std@@SAXAEAV?$allocator@U?$_List_node@PEAUIOCPKEY@@PEAX@std@@@1@PEAPEAU?$_List_node@PEAUIOCPKEY@@PEAX@1@AEAPEAU31@@Z 000000018000db80 f i IocpKeyIoMgr.obj
 0001:0000cb90       ??$construct@PEAU?$_Tree_node@U?$pair@$$CBHPEAUIOCPIO@@@std@@PEAX@std@@AEAPEAU12@@?$_Wrap_alloc@V?$allocator@U?$_Tree_node@U?$pair@$$CBHPEAUIOCPIO@@@std@@PEAX@std@@@std@@@std@@QEAAXPEAPEAU?$_Tree_node@U?$pair@$$CBHPEAUIOCPIO@@@std@@PEAX@1@AEAPEAU21@@Z 000000018000db90 f i IocpKeyIoMgr.obj
 0001:0000cba0       ??$construct@PEAU?$_Tree_node@U?$pair@$$CBHPEAUIOCPIO@@@std@@PEAX@std@@AEAPEAU12@@?$allocator@U?$_Tree_node@U?$pair@$$CBHPEAUIOCPIO@@@std@@PEAX@std@@@std@@QEAAXPEAPEAU?$_Tree_node@U?$pair@$$CBHPEAUIOCPIO@@@std@@PEAX@1@AEAPEAU21@@Z 000000018000dba0 f i IocpKeyIoMgr.obj
 0001:0000cbb0       ??$construct@PEAU?$_Tree_node@U?$pair@$$CBHPEAUIOCPIO@@@std@@PEAX@std@@AEAPEAU12@@?$allocator_traits@V?$allocator@U?$_Tree_node@U?$pair@$$CBHPEAUIOCPIO@@@std@@PEAX@std@@@std@@@std@@SAXAEAV?$allocator@U?$_Tree_node@U?$pair@$$CBHPEAUIOCPIO@@@std@@PEAX@std@@@1@PEAPEAU?$_Tree_node@U?$pair@$$CBHPEAUIOCPIO@@@std@@PEAX@1@AEAPEAU31@@Z 000000018000dbb0 f i IocpKeyIoMgr.obj
 0001:0000cbc0       ??$construct@PEAU?$_Tree_node@U?$pair@$$CBHPEAUIOCPKEY@@@std@@PEAX@std@@AEAPEAU12@@?$_Wrap_alloc@V?$allocator@U?$_Tree_node@U?$pair@$$CBHPEAUIOCPKEY@@@std@@PEAX@std@@@std@@@std@@QEAAXPEAPEAU?$_Tree_node@U?$pair@$$CBHPEAUIOCPKEY@@@std@@PEAX@1@AEAPEAU21@@Z 000000018000dbc0 f i IocpKeyIoMgr.obj
 0001:0000cbd0       ??$construct@PEAU?$_Tree_node@U?$pair@$$CBHPEAUIOCPKEY@@@std@@PEAX@std@@AEAPEAU12@@?$allocator@U?$_Tree_node@U?$pair@$$CBHPEAUIOCPKEY@@@std@@PEAX@std@@@std@@QEAAXPEAPEAU?$_Tree_node@U?$pair@$$CBHPEAUIOCPKEY@@@std@@PEAX@1@AEAPEAU21@@Z 000000018000dbd0 f i IocpKeyIoMgr.obj
 0001:0000cbe0       ??$construct@PEAU?$_Tree_node@U?$pair@$$CBHPEAUIOCPKEY@@@std@@PEAX@std@@AEAPEAU12@@?$allocator_traits@V?$allocator@U?$_Tree_node@U?$pair@$$CBHPEAUIOCPKEY@@@std@@PEAX@std@@@std@@@std@@SAXAEAV?$allocator@U?$_Tree_node@U?$pair@$$CBHPEAUIOCPKEY@@@std@@PEAX@std@@@1@PEAPEAU?$_Tree_node@U?$pair@$$CBHPEAUIOCPKEY@@@std@@PEAX@1@AEAPEAU31@@Z 000000018000dbe0 f i IocpKeyIoMgr.obj
 0001:0000cbf0       ??$construct@PEAUIOCPIO@@AEBQEAU1@@?$_Wrap_alloc@V?$allocator@U?$_List_node@PEAUIOCPIO@@PEAX@std@@@std@@@std@@QEAAXPEAPEAUIOCPIO@@AEBQEAU2@@Z 000000018000dbf0 f i IocpKeyIoMgr.obj
 0001:0000cc00       ??$construct@PEAUIOCPIO@@AEBQEAU1@@?$allocator@U?$_List_node@PEAUIOCPIO@@PEAX@std@@@std@@QEAAXPEAPEAUIOCPIO@@AEBQEAU2@@Z 000000018000dc00 f i IocpKeyIoMgr.obj
 0001:0000cc10       ??$construct@PEAUIOCPIO@@AEBQEAU1@@?$allocator_traits@V?$allocator@U?$_List_node@PEAUIOCPIO@@PEAX@std@@@std@@@std@@SAXAEAV?$allocator@U?$_List_node@PEAUIOCPIO@@PEAX@std@@@1@PEAPEAUIOCPIO@@AEBQEAU3@@Z 000000018000dc10 f i IocpKeyIoMgr.obj
 0001:0000cc20       ??$construct@PEAUIOCPKEY@@AEBQEAU1@@?$_Wrap_alloc@V?$allocator@U?$_List_node@PEAUIOCPKEY@@PEAX@std@@@std@@@std@@QEAAXPEAPEAUIOCPKEY@@AEBQEAU2@@Z 000000018000dc20 f i IocpKeyIoMgr.obj
 0001:0000cc30       ??$construct@PEAUIOCPKEY@@AEBQEAU1@@?$allocator@U?$_List_node@PEAUIOCPKEY@@PEAX@std@@@std@@QEAAXPEAPEAUIOCPKEY@@AEBQEAU2@@Z 000000018000dc30 f i IocpKeyIoMgr.obj
 0001:0000cc40       ??$construct@PEAUIOCPKEY@@AEBQEAU1@@?$allocator_traits@V?$allocator@U?$_List_node@PEAUIOCPKEY@@PEAX@std@@@std@@@std@@SAXAEAV?$allocator@U?$_List_node@PEAUIOCPKEY@@PEAX@std@@@1@PEAPEAUIOCPKEY@@AEBQEAU3@@Z 000000018000dc40 f i IocpKeyIoMgr.obj
 0001:0000cc50       ??$construct@U?$pair@$$CBHPEAUIOCPIO@@@std@@U?$pair@HPEAUIOCPIO@@@2@@?$_Wrap_alloc@V?$allocator@U?$_Tree_node@U?$pair@$$CBHPEAUIOCPIO@@@std@@PEAX@std@@@std@@@std@@QEAAXPEAU?$pair@$$CBHPEAUIOCPIO@@@1@$$QEAU?$pair@HPEAUIOCPIO@@@1@@Z 000000018000dc50 f i IocpKeyIoMgr.obj
 0001:0000cc70       ??$construct@U?$pair@$$CBHPEAUIOCPIO@@@std@@U?$pair@HPEAUIOCPIO@@@2@@?$allocator@U?$_Tree_node@U?$pair@$$CBHPEAUIOCPIO@@@std@@PEAX@std@@@std@@QEAAXPEAU?$pair@$$CBHPEAUIOCPIO@@@1@$$QEAU?$pair@HPEAUIOCPIO@@@1@@Z 000000018000dc70 f i IocpKeyIoMgr.obj
 0001:0000cc90       ??$construct@U?$pair@$$CBHPEAUIOCPIO@@@std@@U?$pair@HPEAUIOCPIO@@@2@@?$allocator_traits@V?$allocator@U?$_Tree_node@U?$pair@$$CBHPEAUIOCPIO@@@std@@PEAX@std@@@std@@@std@@SAXAEAV?$allocator@U?$_Tree_node@U?$pair@$$CBHPEAUIOCPIO@@@std@@PEAX@std@@@1@PEAU?$pair@$$CBHPEAUIOCPIO@@@1@$$QEAU?$pair@HPEAUIOCPIO@@@1@@Z 000000018000dc90 f i IocpKeyIoMgr.obj
 0001:0000ccb0       ??$construct@U?$pair@$$CBHPEAUIOCPKEY@@@std@@U?$pair@HPEAUIOCPKEY@@@2@@?$_Wrap_alloc@V?$allocator@U?$_Tree_node@U?$pair@$$CBHPEAUIOCPKEY@@@std@@PEAX@std@@@std@@@std@@QEAAXPEAU?$pair@$$CBHPEAUIOCPKEY@@@1@$$QEAU?$pair@HPEAUIOCPKEY@@@1@@Z 000000018000dcb0 f i IocpKeyIoMgr.obj
 0001:0000ccd0       ??$construct@U?$pair@$$CBHPEAUIOCPKEY@@@std@@U?$pair@HPEAUIOCPKEY@@@2@@?$allocator@U?$_Tree_node@U?$pair@$$CBHPEAUIOCPKEY@@@std@@PEAX@std@@@std@@QEAAXPEAU?$pair@$$CBHPEAUIOCPKEY@@@1@$$QEAU?$pair@HPEAUIOCPKEY@@@1@@Z 000000018000dcd0 f i IocpKeyIoMgr.obj
 0001:0000ccf0       ??$construct@U?$pair@$$CBHPEAUIOCPKEY@@@std@@U?$pair@HPEAUIOCPKEY@@@2@@?$allocator_traits@V?$allocator@U?$_Tree_node@U?$pair@$$CBHPEAUIOCPKEY@@@std@@PEAX@std@@@std@@@std@@SAXAEAV?$allocator@U?$_Tree_node@U?$pair@$$CBHPEAUIOCPKEY@@@std@@PEAX@std@@@1@PEAU?$pair@$$CBHPEAUIOCPKEY@@@1@$$QEAU?$pair@HPEAUIOCPKEY@@@1@@Z 000000018000dcf0 f i IocpKeyIoMgr.obj
 0001:0000cd10       ??$destroy@PEAU?$_List_node@PEAUIOCPIO@@PEAX@std@@@?$_Wrap_alloc@V?$allocator@U?$_List_node@PEAUIOCPIO@@PEAX@std@@@std@@@std@@QEAAXPEAPEAU?$_List_node@PEAUIOCPIO@@PEAX@1@@Z 000000018000dd10 f i IocpKeyIoMgr.obj
 0001:0000cd20       ??$destroy@PEAU?$_List_node@PEAUIOCPIO@@PEAX@std@@@?$allocator@U?$_List_node@PEAUIOCPIO@@PEAX@std@@@std@@QEAAXPEAPEAU?$_List_node@PEAUIOCPIO@@PEAX@1@@Z 000000018000dd20 f i IocpKeyIoMgr.obj
 0001:0000cd30       ??$destroy@PEAU?$_List_node@PEAUIOCPIO@@PEAX@std@@@?$allocator_traits@V?$allocator@U?$_List_node@PEAUIOCPIO@@PEAX@std@@@std@@@std@@SAXAEAV?$allocator@U?$_List_node@PEAUIOCPIO@@PEAX@std@@@1@PEAPEAU?$_List_node@PEAUIOCPIO@@PEAX@1@@Z 000000018000dd30 f i IocpKeyIoMgr.obj
 0001:0000cd40       ??$destroy@PEAU?$_List_node@PEAUIOCPKEY@@PEAX@std@@@?$_Wrap_alloc@V?$allocator@U?$_List_node@PEAUIOCPKEY@@PEAX@std@@@std@@@std@@QEAAXPEAPEAU?$_List_node@PEAUIOCPKEY@@PEAX@1@@Z 000000018000dd40 f i IocpKeyIoMgr.obj
 0001:0000cd50       ??$destroy@PEAU?$_List_node@PEAUIOCPKEY@@PEAX@std@@@?$allocator@U?$_List_node@PEAUIOCPKEY@@PEAX@std@@@std@@QEAAXPEAPEAU?$_List_node@PEAUIOCPKEY@@PEAX@1@@Z 000000018000dd50 f i IocpKeyIoMgr.obj
 0001:0000cd60       ??$destroy@PEAU?$_List_node@PEAUIOCPKEY@@PEAX@std@@@?$allocator_traits@V?$allocator@U?$_List_node@PEAUIOCPKEY@@PEAX@std@@@std@@@std@@SAXAEAV?$allocator@U?$_List_node@PEAUIOCPKEY@@PEAX@std@@@1@PEAPEAU?$_List_node@PEAUIOCPKEY@@PEAX@1@@Z 000000018000dd60 f i IocpKeyIoMgr.obj
 0001:0000cd70       ??$destroy@PEAU?$_Tree_node@U?$pair@$$CBHPEAUIOCPIO@@@std@@PEAX@std@@@?$_Wrap_alloc@V?$allocator@U?$_Tree_node@U?$pair@$$CBHPEAUIOCPIO@@@std@@PEAX@std@@@std@@@std@@QEAAXPEAPEAU?$_Tree_node@U?$pair@$$CBHPEAUIOCPIO@@@std@@PEAX@1@@Z 000000018000dd70 f i IocpKeyIoMgr.obj
 0001:0000cd80       ??$destroy@PEAU?$_Tree_node@U?$pair@$$CBHPEAUIOCPIO@@@std@@PEAX@std@@@?$allocator@U?$_Tree_node@U?$pair@$$CBHPEAUIOCPIO@@@std@@PEAX@std@@@std@@QEAAXPEAPEAU?$_Tree_node@U?$pair@$$CBHPEAUIOCPIO@@@std@@PEAX@1@@Z 000000018000dd80 f i IocpKeyIoMgr.obj
 0001:0000cd90       ??$destroy@PEAU?$_Tree_node@U?$pair@$$CBHPEAUIOCPIO@@@std@@PEAX@std@@@?$allocator_traits@V?$allocator@U?$_Tree_node@U?$pair@$$CBHPEAUIOCPIO@@@std@@PEAX@std@@@std@@@std@@SAXAEAV?$allocator@U?$_Tree_node@U?$pair@$$CBHPEAUIOCPIO@@@std@@PEAX@std@@@1@PEAPEAU?$_Tree_node@U?$pair@$$CBHPEAUIOCPIO@@@std@@PEAX@1@@Z 000000018000dd90 f i IocpKeyIoMgr.obj
 0001:0000cda0       ??$destroy@PEAU?$_Tree_node@U?$pair@$$CBHPEAUIOCPKEY@@@std@@PEAX@std@@@?$_Wrap_alloc@V?$allocator@U?$_Tree_node@U?$pair@$$CBHPEAUIOCPKEY@@@std@@PEAX@std@@@std@@@std@@QEAAXPEAPEAU?$_Tree_node@U?$pair@$$CBHPEAUIOCPKEY@@@std@@PEAX@1@@Z 000000018000dda0 f i IocpKeyIoMgr.obj
 0001:0000cdb0       ??$destroy@PEAU?$_Tree_node@U?$pair@$$CBHPEAUIOCPKEY@@@std@@PEAX@std@@@?$allocator@U?$_Tree_node@U?$pair@$$CBHPEAUIOCPKEY@@@std@@PEAX@std@@@std@@QEAAXPEAPEAU?$_Tree_node@U?$pair@$$CBHPEAUIOCPKEY@@@std@@PEAX@1@@Z 000000018000ddb0 f i IocpKeyIoMgr.obj
 0001:0000cdc0       ??$destroy@PEAU?$_Tree_node@U?$pair@$$CBHPEAUIOCPKEY@@@std@@PEAX@std@@@?$allocator_traits@V?$allocator@U?$_Tree_node@U?$pair@$$CBHPEAUIOCPKEY@@@std@@PEAX@std@@@std@@@std@@SAXAEAV?$allocator@U?$_Tree_node@U?$pair@$$CBHPEAUIOCPKEY@@@std@@PEAX@std@@@1@PEAPEAU?$_Tree_node@U?$pair@$$CBHPEAUIOCPKEY@@@std@@PEAX@1@@Z 000000018000ddc0 f i IocpKeyIoMgr.obj
 0001:0000cdd0       ??$destroy@PEAUIOCPIO@@@?$_Wrap_alloc@V?$allocator@U?$_List_node@PEAUIOCPIO@@PEAX@std@@@std@@@std@@QEAAXPEAPEAUIOCPIO@@@Z 000000018000ddd0 f i IocpKeyIoMgr.obj
 0001:0000cde0       ??$destroy@PEAUIOCPIO@@@?$allocator@U?$_List_node@PEAUIOCPIO@@PEAX@std@@@std@@QEAAXPEAPEAUIOCPIO@@@Z 000000018000dde0 f i IocpKeyIoMgr.obj
 0001:0000cdf0       ??$destroy@PEAUIOCPIO@@@?$allocator_traits@V?$allocator@U?$_List_node@PEAUIOCPIO@@PEAX@std@@@std@@@std@@SAXAEAV?$allocator@U?$_List_node@PEAUIOCPIO@@PEAX@std@@@1@PEAPEAUIOCPIO@@@Z 000000018000ddf0 f i IocpKeyIoMgr.obj
 0001:0000ce00       ??$destroy@PEAUIOCPKEY@@@?$_Wrap_alloc@V?$allocator@U?$_List_node@PEAUIOCPKEY@@PEAX@std@@@std@@@std@@QEAAXPEAPEAUIOCPKEY@@@Z 000000018000de00 f i IocpKeyIoMgr.obj
 0001:0000ce10       ??$destroy@PEAUIOCPKEY@@@?$allocator@U?$_List_node@PEAUIOCPKEY@@PEAX@std@@@std@@QEAAXPEAPEAUIOCPKEY@@@Z 000000018000de10 f i IocpKeyIoMgr.obj
 0001:0000ce20       ??$destroy@PEAUIOCPKEY@@@?$allocator_traits@V?$allocator@U?$_List_node@PEAUIOCPKEY@@PEAX@std@@@std@@@std@@SAXAEAV?$allocator@U?$_List_node@PEAUIOCPKEY@@PEAX@std@@@1@PEAPEAUIOCPKEY@@@Z 000000018000de20 f i IocpKeyIoMgr.obj
 0001:0000ce30       ??$destroy@U?$pair@$$CBHPEAUIOCPIO@@@std@@@?$_Wrap_alloc@V?$allocator@U?$_Tree_node@U?$pair@$$CBHPEAUIOCPIO@@@std@@PEAX@std@@@std@@@std@@QEAAXPEAU?$pair@$$CBHPEAUIOCPIO@@@1@@Z 000000018000de30 f i IocpKeyIoMgr.obj
 0001:0000ce40       ??$destroy@U?$pair@$$CBHPEAUIOCPIO@@@std@@@?$allocator@U?$_Tree_node@U?$pair@$$CBHPEAUIOCPIO@@@std@@PEAX@std@@@std@@QEAAXPEAU?$pair@$$CBHPEAUIOCPIO@@@1@@Z 000000018000de40 f i IocpKeyIoMgr.obj
 0001:0000ce50       ??$destroy@U?$pair@$$CBHPEAUIOCPIO@@@std@@@?$allocator_traits@V?$allocator@U?$_Tree_node@U?$pair@$$CBHPEAUIOCPIO@@@std@@PEAX@std@@@std@@@std@@SAXAEAV?$allocator@U?$_Tree_node@U?$pair@$$CBHPEAUIOCPIO@@@std@@PEAX@std@@@1@PEAU?$pair@$$CBHPEAUIOCPIO@@@1@@Z 000000018000de50 f i IocpKeyIoMgr.obj
 0001:0000ce60       ??$destroy@U?$pair@$$CBHPEAUIOCPKEY@@@std@@@?$_Wrap_alloc@V?$allocator@U?$_Tree_node@U?$pair@$$CBHPEAUIOCPKEY@@@std@@PEAX@std@@@std@@@std@@QEAAXPEAU?$pair@$$CBHPEAUIOCPKEY@@@1@@Z 000000018000de60 f i IocpKeyIoMgr.obj
 0001:0000ce70       ??$destroy@U?$pair@$$CBHPEAUIOCPKEY@@@std@@@?$allocator@U?$_Tree_node@U?$pair@$$CBHPEAUIOCPKEY@@@std@@PEAX@std@@@std@@QEAAXPEAU?$pair@$$CBHPEAUIOCPKEY@@@1@@Z 000000018000de70 f i IocpKeyIoMgr.obj
 0001:0000ce80       ??$destroy@U?$pair@$$CBHPEAUIOCPKEY@@@std@@@?$allocator_traits@V?$allocator@U?$_Tree_node@U?$pair@$$CBHPEAUIOCPKEY@@@std@@PEAX@std@@@std@@@std@@SAXAEAV?$allocator@U?$_Tree_node@U?$pair@$$CBHPEAUIOCPKEY@@@std@@PEAX@std@@@1@PEAU?$pair@$$CBHPEAUIOCPKEY@@@1@@Z 000000018000de80 f i IocpKeyIoMgr.obj
 0001:0000ce90       ??$forward@AEAH@std@@YAAEAHAEAH@Z 000000018000de90 f i IocpKeyIoMgr.obj
 0001:0000cea0       ??$forward@AEAPEAU?$_List_node@PEAUIOCPIO@@PEAX@std@@@std@@YAAEAPEAU?$_List_node@PEAUIOCPIO@@PEAX@0@AEAPEAU10@@Z 000000018000dea0 f i IocpKeyIoMgr.obj
 0001:0000ceb0       ??$forward@AEAPEAU?$_List_node@PEAUIOCPKEY@@PEAX@std@@@std@@YAAEAPEAU?$_List_node@PEAUIOCPKEY@@PEAX@0@AEAPEAU10@@Z 000000018000deb0 f i IocpKeyIoMgr.obj
 0001:0000cec0       ??$forward@AEAPEAU?$_Tree_node@U?$pair@$$CBHPEAUIOCPIO@@@std@@PEAX@std@@@std@@YAAEAPEAU?$_Tree_node@U?$pair@$$CBHPEAUIOCPIO@@@std@@PEAX@0@AEAPEAU10@@Z 000000018000dec0 f i IocpKeyIoMgr.obj
 0001:0000ced0       ??$forward@AEAPEAU?$_Tree_node@U?$pair@$$CBHPEAUIOCPKEY@@@std@@PEAX@std@@@std@@YAAEAPEAU?$_Tree_node@U?$pair@$$CBHPEAUIOCPKEY@@@std@@PEAX@0@AEAPEAU10@@Z 000000018000ded0 f i IocpKeyIoMgr.obj
 0001:0000cee0       ??$forward@AEAPEAUIOCPIO@@@std@@YAAEAPEAUIOCPIO@@AEAPEAU1@@Z 000000018000dee0 f i IocpKeyIoMgr.obj
 0001:0000cef0       ??$forward@AEAPEAUIOCPKEY@@@std@@YAAEAPEAUIOCPKEY@@AEAPEAU1@@Z 000000018000def0 f i IocpKeyIoMgr.obj
 0001:0000cf00       ??$forward@AEAU?$pair@$$CBHPEAUIOCPIO@@@std@@@std@@YAAEAU?$pair@$$CBHPEAUIOCPIO@@@0@AEAU10@@Z 000000018000df00 f i IocpKeyIoMgr.obj
 0001:0000cf10       ??$forward@AEAU?$pair@$$CBHPEAUIOCPKEY@@@std@@@std@@YAAEAU?$pair@$$CBHPEAUIOCPKEY@@@0@AEAU10@@Z 000000018000df10 f i IocpKeyIoMgr.obj
 0001:0000cf20       ??$forward@AEAV?$_Tree_iterator@V?$_Tree_val@U?$_Tree_simple_types@U?$pair@$$CBHPEAUIOCPIO@@@std@@@std@@@std@@@std@@@std@@YAAEAV?$_Tree_iterator@V?$_Tree_val@U?$_Tree_simple_types@U?$pair@$$CBHPEAUIOCPIO@@@std@@@std@@@std@@@0@AEAV10@@Z 000000018000df20 f i IocpKeyIoMgr.obj
 0001:0000cf30       ??$forward@AEAV?$_Tree_iterator@V?$_Tree_val@U?$_Tree_simple_types@U?$pair@$$CBHPEAUIOCPKEY@@@std@@@std@@@std@@@std@@@std@@YAAEAV?$_Tree_iterator@V?$_Tree_val@U?$_Tree_simple_types@U?$pair@$$CBHPEAUIOCPKEY@@@std@@@std@@@std@@@0@AEAV10@@Z 000000018000df30 f i IocpKeyIoMgr.obj
 0001:0000cf40       ??$forward@AEBQEAUIOCPIO@@@std@@YAAEBQEAUIOCPIO@@AEBQEAU1@@Z 000000018000df40 f i IocpKeyIoMgr.obj
 0001:0000cf50       ??$forward@AEBQEAUIOCPKEY@@@std@@YAAEBQEAUIOCPKEY@@AEBQEAU1@@Z 000000018000df50 f i IocpKeyIoMgr.obj
 0001:0000cf60       ??$forward@H@std@@YA$$QEAHAEAH@Z 000000018000df60 f i IocpKeyIoMgr.obj
 0001:0000cf70       ??$forward@PEAUIOCPIO@@@std@@YA$$QEAPEAUIOCPIO@@AEAPEAU1@@Z 000000018000df70 f i IocpKeyIoMgr.obj
 0001:0000cf80       ??$forward@PEAUIOCPKEY@@@std@@YA$$QEAPEAUIOCPKEY@@AEAPEAU1@@Z 000000018000df80 f i IocpKeyIoMgr.obj
 0001:0000cf90       ??$forward@U?$pair@HPEAUIOCPIO@@@std@@@std@@YA$$QEAU?$pair@HPEAUIOCPIO@@@0@AEAU10@@Z 000000018000df90 f i IocpKeyIoMgr.obj
 0001:0000cfa0       ??$forward@U?$pair@HPEAUIOCPKEY@@@std@@@std@@YA$$QEAU?$pair@HPEAUIOCPKEY@@@0@AEAU10@@Z 000000018000dfa0 f i IocpKeyIoMgr.obj
 0001:0000cfb0       ??$forward@V?$_Tree_iterator@V?$_Tree_val@U?$_Tree_simple_types@U?$pair@$$CBHPEAUIOCPIO@@@std@@@std@@@std@@@std@@@std@@YA$$QEAV?$_Tree_iterator@V?$_Tree_val@U?$_Tree_simple_types@U?$pair@$$CBHPEAUIOCPIO@@@std@@@std@@@std@@@0@AEAV10@@Z 000000018000dfb0 f i IocpKeyIoMgr.obj
 0001:0000cfc0       ??$forward@V?$_Tree_iterator@V?$_Tree_val@U?$_Tree_simple_types@U?$pair@$$CBHPEAUIOCPKEY@@@std@@@std@@@std@@@std@@@std@@YA$$QEAV?$_Tree_iterator@V?$_Tree_val@U?$_Tree_simple_types@U?$pair@$$CBHPEAUIOCPKEY@@@std@@@std@@@std@@@0@AEAV10@@Z 000000018000dfc0 f i IocpKeyIoMgr.obj
 0001:0000cfd0       ??$forward@_N@std@@YA$$QEA_NAEA_N@Z 000000018000dfd0 f i IocpKeyIoMgr.obj
 0001:0000cfe0       ??$insert@U?$pair@HPEAUIOCPIO@@@std@@@?$_Tree@V?$_Tmap_traits@HPEAUIOCPIO@@U?$less@H@std@@V?$allocator@U?$pair@$$CBHPEAUIOCPIO@@@std@@@3@$0A@@std@@@std@@QEAA?AU?$pair@V?$_Tree_iterator@V?$_Tree_val@U?$_Tree_simple_types@U?$pair@$$CBHPEAUIOCPIO@@@std@@@std@@@std@@@std@@_N@1@$$QEAU?$pair@HPEAUIOCPIO@@@1@@Z 000000018000dfe0 f i IocpKeyIoMgr.obj
 0001:0000d020       ??$insert@U?$pair@HPEAUIOCPKEY@@@std@@@?$_Tree@V?$_Tmap_traits@HPEAUIOCPKEY@@U?$less@H@std@@V?$allocator@U?$pair@$$CBHPEAUIOCPKEY@@@std@@@3@$0A@@std@@@std@@QEAA?AU?$pair@V?$_Tree_iterator@V?$_Tree_val@U?$_Tree_simple_types@U?$pair@$$CBHPEAUIOCPKEY@@@std@@@std@@@std@@@std@@_N@1@$$QEAU?$pair@HPEAUIOCPKEY@@@1@@Z 000000018000e020 f i IocpKeyIoMgr.obj
 0001:0000d060       ??$make_pair@AEAHAEAPEAUIOCPKEY@@@std@@YA?AU?$pair@HPEAUIOCPKEY@@@0@AEAHAEAPEAUIOCPKEY@@@Z 000000018000e060 f i IocpKeyIoMgr.obj
 0001:0000d070       ??$make_pair@HAEAPEAUIOCPIO@@@std@@YA?AU?$pair@HPEAUIOCPIO@@@0@$$QEAHAEAPEAUIOCPIO@@@Z 000000018000e070 f i IocpKeyIoMgr.obj
 0001:0000d080       ??$swap@D@std@@YAXAEAD0@Z  000000018000e080 f i IocpKeyIoMgr.obj
 0001:0000d090       ??0?$_List_alloc@$0A@U?$_List_base_types@PEAUIOCPIO@@V?$allocator@PEAUIOCPIO@@@std@@@std@@@std@@QEAA@AEBV?$allocator@PEAUIOCPIO@@@1@@Z 000000018000e090 f i IocpKeyIoMgr.obj
 0001:0000d0c0       ??0?$_List_alloc@$0A@U?$_List_base_types@PEAUIOCPKEY@@V?$allocator@PEAUIOCPKEY@@@std@@@std@@@std@@QEAA@AEBV?$allocator@PEAUIOCPKEY@@@1@@Z 000000018000e0c0 f i IocpKeyIoMgr.obj
 0001:0000d0f0       ??0?$_List_buy@PEAUIOCPIO@@V?$allocator@PEAUIOCPIO@@@std@@@std@@QEAA@AEBV?$allocator@PEAUIOCPIO@@@1@@Z 000000018000e0f0 f i IocpKeyIoMgr.obj
 0001:0000d120       ??0?$_List_buy@PEAUIOCPKEY@@V?$allocator@PEAUIOCPKEY@@@std@@@std@@QEAA@AEBV?$allocator@PEAUIOCPKEY@@@1@@Z 000000018000e120 f i IocpKeyIoMgr.obj
 0001:0000d150       ??0?$_List_const_iterator@V?$_List_val@U?$_List_simple_types@PEAUIOCPIO@@@std@@@std@@@std@@QEAA@PEAU?$_List_node@PEAUIOCPIO@@PEAX@1@PEBV?$_List_val@U?$_List_simple_types@PEAUIOCPIO@@@std@@@1@@Z 000000018000e150 f i IocpKeyIoMgr.obj
 0001:0000d160       ??0?$_List_const_iterator@V?$_List_val@U?$_List_simple_types@PEAUIOCPKEY@@@std@@@std@@@std@@QEAA@PEAU?$_List_node@PEAUIOCPKEY@@PEAX@1@PEBV?$_List_val@U?$_List_simple_types@PEAUIOCPKEY@@@std@@@1@@Z 000000018000e160 f i IocpKeyIoMgr.obj
 0001:0000d170       ??0?$_List_iterator@V?$_List_val@U?$_List_simple_types@PEAUIOCPIO@@@std@@@std@@@std@@QEAA@PEAU?$_List_node@PEAUIOCPIO@@PEAX@1@PEBV?$_List_val@U?$_List_simple_types@PEAUIOCPIO@@@std@@@1@@Z 000000018000e170 f i IocpKeyIoMgr.obj
 0001:0000d180       ??0?$_List_iterator@V?$_List_val@U?$_List_simple_types@PEAUIOCPKEY@@@std@@@std@@@std@@QEAA@PEAU?$_List_node@PEAUIOCPKEY@@PEAX@1@PEBV?$_List_val@U?$_List_simple_types@PEAUIOCPKEY@@@std@@@1@@Z 000000018000e180 f i IocpKeyIoMgr.obj
 0001:0000d190       ??0?$_List_unchecked_const_iterator@V?$_List_val@U?$_List_simple_types@PEAUIOCPIO@@@std@@@std@@U_Iterator_base0@2@@std@@QEAA@PEAU?$_List_node@PEAUIOCPIO@@PEAX@1@PEBV?$_List_val@U?$_List_simple_types@PEAUIOCPIO@@@std@@@1@@Z 000000018000e190 f i IocpKeyIoMgr.obj
 0001:0000d1a0       ??0?$_List_unchecked_const_iterator@V?$_List_val@U?$_List_simple_types@PEAUIOCPKEY@@@std@@@std@@U_Iterator_base0@2@@std@@QEAA@PEAU?$_List_node@PEAUIOCPKEY@@PEAX@1@PEBV?$_List_val@U?$_List_simple_types@PEAUIOCPKEY@@@std@@@1@@Z 000000018000e1a0 f i IocpKeyIoMgr.obj
 0001:0000d1b0       ??0?$_List_unchecked_iterator@V?$_List_val@U?$_List_simple_types@PEAUIOCPIO@@@std@@@std@@@std@@QEAA@PEAU?$_List_node@PEAUIOCPIO@@PEAX@1@PEBV?$_List_val@U?$_List_simple_types@PEAUIOCPIO@@@std@@@1@@Z 000000018000e1b0 f i IocpKeyIoMgr.obj
 0001:0000d1c0       ??0?$_List_unchecked_iterator@V?$_List_val@U?$_List_simple_types@PEAUIOCPKEY@@@std@@@std@@@std@@QEAA@PEAU?$_List_node@PEAUIOCPKEY@@PEAX@1@PEBV?$_List_val@U?$_List_simple_types@PEAUIOCPKEY@@@std@@@1@@Z 000000018000e1c0 f i IocpKeyIoMgr.obj
 0001:0000d1d0       ??0?$_List_val@U?$_List_simple_types@PEAUIOCPIO@@@std@@@std@@QEAA@XZ 000000018000e1d0 f i IocpKeyIoMgr.obj
 0001:0000d1e0       ??0?$_List_val@U?$_List_simple_types@PEAUIOCPKEY@@@std@@@std@@QEAA@XZ 000000018000e1e0 f i IocpKeyIoMgr.obj
 0001:0000d1f0       ??0?$_Tree@V?$_Tmap_traits@HPEAUIOCPIO@@U?$less@H@std@@V?$allocator@U?$pair@$$CBHPEAUIOCPIO@@@std@@@3@$0A@@std@@@std@@QEAA@AEBU?$less@H@1@AEBV?$allocator@U?$pair@$$CBHPEAUIOCPIO@@@std@@@1@@Z 000000018000e1f0 f i IocpKeyIoMgr.obj
 0001:0000d220       ??0?$_Tree@V?$_Tmap_traits@HPEAUIOCPKEY@@U?$less@H@std@@V?$allocator@U?$pair@$$CBHPEAUIOCPKEY@@@std@@@3@$0A@@std@@@std@@QEAA@AEBU?$less@H@1@AEBV?$allocator@U?$pair@$$CBHPEAUIOCPKEY@@@std@@@1@@Z 000000018000e220 f i IocpKeyIoMgr.obj
 0001:0000d250       ??0?$_Tree_alloc@$0A@U?$_Tree_base_types@U?$pair@$$CBHPEAUIOCPIO@@@std@@V?$allocator@U?$pair@$$CBHPEAUIOCPIO@@@std@@@2@@std@@@std@@QEAA@AEBV?$allocator@U?$pair@$$CBHPEAUIOCPIO@@@std@@@1@@Z 000000018000e250 f i IocpKeyIoMgr.obj
 0001:0000d280       ??0?$_Tree_alloc@$0A@U?$_Tree_base_types@U?$pair@$$CBHPEAUIOCPKEY@@@std@@V?$allocator@U?$pair@$$CBHPEAUIOCPKEY@@@std@@@2@@std@@@std@@QEAA@AEBV?$allocator@U?$pair@$$CBHPEAUIOCPKEY@@@std@@@1@@Z 000000018000e280 f i IocpKeyIoMgr.obj
 0001:0000d2b0       ??0?$_Tree_buy@U?$pair@$$CBHPEAUIOCPIO@@@std@@V?$allocator@U?$pair@$$CBHPEAUIOCPIO@@@std@@@2@@std@@QEAA@AEBV?$allocator@U?$pair@$$CBHPEAUIOCPIO@@@std@@@1@@Z 000000018000e2b0 f i IocpKeyIoMgr.obj
 0001:0000d2e0       ??0?$_Tree_buy@U?$pair@$$CBHPEAUIOCPKEY@@@std@@V?$allocator@U?$pair@$$CBHPEAUIOCPKEY@@@std@@@2@@std@@QEAA@AEBV?$allocator@U?$pair@$$CBHPEAUIOCPKEY@@@std@@@1@@Z 000000018000e2e0 f i IocpKeyIoMgr.obj
 0001:0000d310       ??0?$_Tree_comp@$0A@V?$_Tmap_traits@HPEAUIOCPIO@@U?$less@H@std@@V?$allocator@U?$pair@$$CBHPEAUIOCPIO@@@std@@@3@$0A@@std@@@std@@QEAA@AEBU?$less@H@1@AEBV?$allocator@U?$pair@$$CBHPEAUIOCPIO@@@std@@@1@@Z 000000018000e310 f i IocpKeyIoMgr.obj
 0001:0000d340       ??0?$_Tree_comp@$0A@V?$_Tmap_traits@HPEAUIOCPKEY@@U?$less@H@std@@V?$allocator@U?$pair@$$CBHPEAUIOCPKEY@@@std@@@3@$0A@@std@@@std@@QEAA@AEBU?$less@H@1@AEBV?$allocator@U?$pair@$$CBHPEAUIOCPKEY@@@std@@@1@@Z 000000018000e340 f i IocpKeyIoMgr.obj
 0001:0000d370       ??0?$_Tree_const_iterator@V?$_Tree_val@U?$_Tree_simple_types@U?$pair@$$CBHPEAUIOCPIO@@@std@@@std@@@std@@@std@@QEAA@PEAU?$_Tree_node@U?$pair@$$CBHPEAUIOCPIO@@@std@@PEAX@1@PEBV?$_Tree_val@U?$_Tree_simple_types@U?$pair@$$CBHPEAUIOCPIO@@@std@@@std@@@1@@Z 000000018000e370 f i IocpKeyIoMgr.obj
 0001:0000d380       ??0?$_Tree_const_iterator@V?$_Tree_val@U?$_Tree_simple_types@U?$pair@$$CBHPEAUIOCPKEY@@@std@@@std@@@std@@@std@@QEAA@PEAU?$_Tree_node@U?$pair@$$CBHPEAUIOCPKEY@@@std@@PEAX@1@PEBV?$_Tree_val@U?$_Tree_simple_types@U?$pair@$$CBHPEAUIOCPKEY@@@std@@@std@@@1@@Z 000000018000e380 f i IocpKeyIoMgr.obj
 0001:0000d390       ??0?$_Tree_iterator@V?$_Tree_val@U?$_Tree_simple_types@U?$pair@$$CBHPEAUIOCPIO@@@std@@@std@@@std@@@std@@QEAA@PEAU?$_Tree_node@U?$pair@$$CBHPEAUIOCPIO@@@std@@PEAX@1@PEBV?$_Tree_val@U?$_Tree_simple_types@U?$pair@$$CBHPEAUIOCPIO@@@std@@@std@@@1@@Z 000000018000e390 f i IocpKeyIoMgr.obj
 0001:0000d3a0       ??0?$_Tree_iterator@V?$_Tree_val@U?$_Tree_simple_types@U?$pair@$$CBHPEAUIOCPKEY@@@std@@@std@@@std@@@std@@QEAA@PEAU?$_Tree_node@U?$pair@$$CBHPEAUIOCPKEY@@@std@@PEAX@1@PEBV?$_Tree_val@U?$_Tree_simple_types@U?$pair@$$CBHPEAUIOCPKEY@@@std@@@std@@@1@@Z 000000018000e3a0 f i IocpKeyIoMgr.obj
 0001:0000d3b0       ??0?$_Tree_unchecked_const_iterator@V?$_Tree_val@U?$_Tree_simple_types@U?$pair@$$CBHPEAUIOCPIO@@@std@@@std@@@std@@U_Iterator_base0@2@@std@@QEAA@PEAU?$_Tree_node@U?$pair@$$CBHPEAUIOCPIO@@@std@@PEAX@1@PEBV?$_Tree_val@U?$_Tree_simple_types@U?$pair@$$CBHPEAUIOCPIO@@@std@@@std@@@1@@Z 000000018000e3b0 f i IocpKeyIoMgr.obj
 0001:0000d3c0       ??0?$_Tree_unchecked_const_iterator@V?$_Tree_val@U?$_Tree_simple_types@U?$pair@$$CBHPEAUIOCPKEY@@@std@@@std@@@std@@U_Iterator_base0@2@@std@@QEAA@PEAU?$_Tree_node@U?$pair@$$CBHPEAUIOCPKEY@@@std@@PEAX@1@PEBV?$_Tree_val@U?$_Tree_simple_types@U?$pair@$$CBHPEAUIOCPKEY@@@std@@@std@@@1@@Z 000000018000e3c0 f i IocpKeyIoMgr.obj
 0001:0000d3d0       ??0?$_Tree_val@U?$_Tree_simple_types@U?$pair@$$CBHPEAUIOCPIO@@@std@@@std@@@std@@QEAA@XZ 000000018000e3d0 f i IocpKeyIoMgr.obj
 0001:0000d3e0       ??0?$_Tree_val@U?$_Tree_simple_types@U?$pair@$$CBHPEAUIOCPKEY@@@std@@@std@@@std@@QEAA@XZ 000000018000e3e0 f i IocpKeyIoMgr.obj
 0001:0000d3f0       ??0?$_Wrap_alloc@V?$allocator@U?$_List_node@PEAUIOCPIO@@PEAX@std@@@std@@@std@@QEAA@XZ 000000018000e3f0 f i IocpKeyIoMgr.obj
 0001:0000d400       ??0?$_Wrap_alloc@V?$allocator@U?$_List_node@PEAUIOCPKEY@@PEAX@std@@@std@@@std@@QEAA@XZ 000000018000e400 f i IocpKeyIoMgr.obj
 0001:0000d410       ??0?$_Wrap_alloc@V?$allocator@U?$_Tree_node@U?$pair@$$CBHPEAUIOCPIO@@@std@@PEAX@std@@@std@@@std@@QEAA@XZ 000000018000e410 f i IocpKeyIoMgr.obj
 0001:0000d420       ??0?$_Wrap_alloc@V?$allocator@U?$_Tree_node@U?$pair@$$CBHPEAUIOCPKEY@@@std@@PEAX@std@@@std@@@std@@QEAA@XZ 000000018000e420 f i IocpKeyIoMgr.obj
 0001:0000d430       ??0?$allocator@PEAUIOCPIO@@@std@@QEAA@XZ 000000018000e430 f i IocpKeyIoMgr.obj
 0001:0000d440       ??0?$allocator@PEAUIOCPKEY@@@std@@QEAA@XZ 000000018000e440 f i IocpKeyIoMgr.obj
 0001:0000d450       ??0?$allocator@U?$_List_node@PEAUIOCPIO@@PEAX@std@@@std@@QEAA@XZ 000000018000e450 f i IocpKeyIoMgr.obj
 0001:0000d460       ??0?$allocator@U?$_List_node@PEAUIOCPKEY@@PEAX@std@@@std@@QEAA@XZ 000000018000e460 f i IocpKeyIoMgr.obj
 0001:0000d470       ??0?$allocator@U?$_Tree_node@U?$pair@$$CBHPEAUIOCPIO@@@std@@PEAX@std@@@std@@QEAA@XZ 000000018000e470 f i IocpKeyIoMgr.obj
 0001:0000d480       ??0?$allocator@U?$_Tree_node@U?$pair@$$CBHPEAUIOCPKEY@@@std@@PEAX@std@@@std@@QEAA@XZ 000000018000e480 f i IocpKeyIoMgr.obj
 0001:0000d490       ??0?$allocator@U?$pair@$$CBHPEAUIOCPIO@@@std@@@std@@QEAA@XZ 000000018000e490 f i IocpKeyIoMgr.obj
 0001:0000d4a0       ??0?$allocator@U?$pair@$$CBHPEAUIOCPKEY@@@std@@@std@@QEAA@XZ 000000018000e4a0 f i IocpKeyIoMgr.obj
 0001:0000d4b0       ??0?$list@PEAUIOCPIO@@V?$allocator@PEAUIOCPIO@@@std@@@std@@QEAA@XZ 000000018000e4b0 f i IocpKeyIoMgr.obj
 0001:0000d4e0       ??0?$list@PEAUIOCPKEY@@V?$allocator@PEAUIOCPKEY@@@std@@@std@@QEAA@XZ 000000018000e4e0 f i IocpKeyIoMgr.obj
 0001:0000d510       ??0?$map@HPEAUIOCPIO@@U?$less@H@std@@V?$allocator@U?$pair@$$CBHPEAUIOCPIO@@@std@@@3@@std@@QEAA@XZ 000000018000e510 f i IocpKeyIoMgr.obj
 0001:0000d540       ??0?$map@HPEAUIOCPKEY@@U?$less@H@std@@V?$allocator@U?$pair@$$CBHPEAUIOCPKEY@@@std@@@3@@std@@QEAA@XZ 000000018000e540 f i IocpKeyIoMgr.obj
 0001:0000d570       ??0CIocpKeyIoMgr@@QEAA@XZ  000000018000e570 f   IocpKeyIoMgr.obj
 0001:0000d660       ??0IOCPIO@@QEAA@XZ         000000018000e660 f i IocpKeyIoMgr.obj
 0001:0000d680       ??0IOCPKEY@@QEAA@XZ        000000018000e680 f i IocpKeyIoMgr.obj
 0001:0000d6d0       ??0IOCP_RECV_BUF@@QEAA@XZ  000000018000e6d0 f i IocpKeyIoMgr.obj
 0001:0000d6f0       ??1?$_List_alloc@$0A@U?$_List_base_types@PEAUIOCPIO@@V?$allocator@PEAUIOCPIO@@@std@@@std@@@std@@QEAA@XZ 000000018000e6f0 f i IocpKeyIoMgr.obj
 0001:0000d700       ??1?$_List_alloc@$0A@U?$_List_base_types@PEAUIOCPKEY@@V?$allocator@PEAUIOCPKEY@@@std@@@std@@@std@@QEAA@XZ 000000018000e700 f i IocpKeyIoMgr.obj
 0001:0000d710       ??1?$_List_buy@PEAUIOCPIO@@V?$allocator@PEAUIOCPIO@@@std@@@std@@QEAA@XZ 000000018000e710 f i IocpKeyIoMgr.obj
 0001:0000d720       ??1?$_List_buy@PEAUIOCPKEY@@V?$allocator@PEAUIOCPKEY@@@std@@@std@@QEAA@XZ 000000018000e720 f i IocpKeyIoMgr.obj
 0001:0000d730       ??1?$_Tree@V?$_Tmap_traits@HPEAUIOCPIO@@U?$less@H@std@@V?$allocator@U?$pair@$$CBHPEAUIOCPIO@@@std@@@3@$0A@@std@@@std@@QEAA@XZ 000000018000e730 f i IocpKeyIoMgr.obj
 0001:0000d760       ??1?$_Tree@V?$_Tmap_traits@HPEAUIOCPKEY@@U?$less@H@std@@V?$allocator@U?$pair@$$CBHPEAUIOCPKEY@@@std@@@3@$0A@@std@@@std@@QEAA@XZ 000000018000e760 f i IocpKeyIoMgr.obj
 0001:0000d790       ??1?$_Tree_alloc@$0A@U?$_Tree_base_types@U?$pair@$$CBHPEAUIOCPIO@@@std@@V?$allocator@U?$pair@$$CBHPEAUIOCPIO@@@std@@@2@@std@@@std@@QEAA@XZ 000000018000e790 f i IocpKeyIoMgr.obj
 0001:0000d7a0       ??1?$_Tree_alloc@$0A@U?$_Tree_base_types@U?$pair@$$CBHPEAUIOCPKEY@@@std@@V?$allocator@U?$pair@$$CBHPEAUIOCPKEY@@@std@@@2@@std@@@std@@QEAA@XZ 000000018000e7a0 f i IocpKeyIoMgr.obj
 0001:0000d7b0       ??1?$_Tree_buy@U?$pair@$$CBHPEAUIOCPIO@@@std@@V?$allocator@U?$pair@$$CBHPEAUIOCPIO@@@std@@@2@@std@@QEAA@XZ 000000018000e7b0 f i IocpKeyIoMgr.obj
 0001:0000d7c0       ??1?$_Tree_buy@U?$pair@$$CBHPEAUIOCPKEY@@@std@@V?$allocator@U?$pair@$$CBHPEAUIOCPKEY@@@std@@@2@@std@@QEAA@XZ 000000018000e7c0 f i IocpKeyIoMgr.obj
 0001:0000d7d0       ??1?$_Tree_comp@$0A@V?$_Tmap_traits@HPEAUIOCPIO@@U?$less@H@std@@V?$allocator@U?$pair@$$CBHPEAUIOCPIO@@@std@@@3@$0A@@std@@@std@@QEAA@XZ 000000018000e7d0 f i IocpKeyIoMgr.obj
 0001:0000d7e0       ??1?$_Tree_comp@$0A@V?$_Tmap_traits@HPEAUIOCPKEY@@U?$less@H@std@@V?$allocator@U?$pair@$$CBHPEAUIOCPKEY@@@std@@@3@$0A@@std@@@std@@QEAA@XZ 000000018000e7e0 f i IocpKeyIoMgr.obj
 0001:0000d7f0       ??1?$list@PEAUIOCPIO@@V?$allocator@PEAUIOCPIO@@@std@@@std@@QEAA@XZ 000000018000e7f0 f i IocpKeyIoMgr.obj
 0001:0000d850       ??1?$list@PEAUIOCPKEY@@V?$allocator@PEAUIOCPKEY@@@std@@@std@@QEAA@XZ 000000018000e850 f i IocpKeyIoMgr.obj
 0001:0000d8b0       ??1?$map@HPEAUIOCPIO@@U?$less@H@std@@V?$allocator@U?$pair@$$CBHPEAUIOCPIO@@@std@@@3@@std@@QEAA@XZ 000000018000e8b0 f i IocpKeyIoMgr.obj
 0001:0000d8e0       ??1?$map@HPEAUIOCPKEY@@U?$less@H@std@@V?$allocator@U?$pair@$$CBHPEAUIOCPKEY@@@std@@@3@@std@@QEAA@XZ 000000018000e8e0 f i IocpKeyIoMgr.obj
 0001:0000d910       ??1CIocpKeyIoMgr@@UEAA@XZ  000000018000e910 f   IocpKeyIoMgr.obj
 0001:0000da50       ??8?$_List_const_iterator@V?$_List_val@U?$_List_simple_types@PEAUIOCPIO@@@std@@@std@@@std@@QEBA_NAEBV01@@Z 000000018000ea50 f i IocpKeyIoMgr.obj
 0001:0000da60       ??8?$_List_const_iterator@V?$_List_val@U?$_List_simple_types@PEAUIOCPKEY@@@std@@@std@@@std@@QEBA_NAEBV01@@Z 000000018000ea60 f i IocpKeyIoMgr.obj
 0001:0000da70       ??8?$_Tree_const_iterator@V?$_Tree_val@U?$_Tree_simple_types@U?$pair@$$CBHPEAUIOCPIO@@@std@@@std@@@std@@@std@@QEBA_NAEBV01@@Z 000000018000ea70 f i IocpKeyIoMgr.obj
 0001:0000da80       ??8?$_Tree_const_iterator@V?$_Tree_val@U?$_Tree_simple_types@U?$pair@$$CBHPEAUIOCPKEY@@@std@@@std@@@std@@@std@@QEBA_NAEBV01@@Z 000000018000ea80 f i IocpKeyIoMgr.obj
 0001:0000da90       ??9?$_List_const_iterator@V?$_List_val@U?$_List_simple_types@PEAUIOCPIO@@@std@@@std@@@std@@QEBA_NAEBV01@@Z 000000018000ea90 f i IocpKeyIoMgr.obj
 0001:0000daa0       ??9?$_List_const_iterator@V?$_List_val@U?$_List_simple_types@PEAUIOCPKEY@@@std@@@std@@@std@@QEBA_NAEBV01@@Z 000000018000eaa0 f i IocpKeyIoMgr.obj
 0001:0000dab0       ??9?$_Tree_const_iterator@V?$_Tree_val@U?$_Tree_simple_types@U?$pair@$$CBHPEAUIOCPIO@@@std@@@std@@@std@@@std@@QEBA_NAEBV01@@Z 000000018000eab0 f i IocpKeyIoMgr.obj
 0001:0000dac0       ??9?$_Tree_const_iterator@V?$_Tree_val@U?$_Tree_simple_types@U?$pair@$$CBHPEAUIOCPKEY@@@std@@@std@@@std@@@std@@QEBA_NAEBV01@@Z 000000018000eac0 f i IocpKeyIoMgr.obj
 0001:0000dad0       ??C?$_Tree_iterator@V?$_Tree_val@U?$_Tree_simple_types@U?$pair@$$CBHPEAUIOCPIO@@@std@@@std@@@std@@@std@@QEBAPEAU?$pair@$$CBHPEAUIOCPIO@@@1@XZ 000000018000ead0 f i IocpKeyIoMgr.obj
 0001:0000dae0       ??C?$_Tree_iterator@V?$_Tree_val@U?$_Tree_simple_types@U?$pair@$$CBHPEAUIOCPKEY@@@std@@@std@@@std@@@std@@QEBAPEAU?$pair@$$CBHPEAUIOCPKEY@@@1@XZ 000000018000eae0 f i IocpKeyIoMgr.obj
 0001:0000daf0       ??D?$_List_const_iterator@V?$_List_val@U?$_List_simple_types@PEAUIOCPIO@@@std@@@std@@@std@@QEBAAEBQEAUIOCPIO@@XZ 000000018000eaf0 f i IocpKeyIoMgr.obj
 0001:0000db00       ??D?$_List_const_iterator@V?$_List_val@U?$_List_simple_types@PEAUIOCPKEY@@@std@@@std@@@std@@QEBAAEBQEAUIOCPKEY@@XZ 000000018000eb00 f i IocpKeyIoMgr.obj
 0001:0000db10       ??D?$_List_iterator@V?$_List_val@U?$_List_simple_types@PEAUIOCPIO@@@std@@@std@@@std@@QEBAAEAPEAUIOCPIO@@XZ 000000018000eb10 f i IocpKeyIoMgr.obj
 0001:0000db20       ??D?$_List_iterator@V?$_List_val@U?$_List_simple_types@PEAUIOCPKEY@@@std@@@std@@@std@@QEBAAEAPEAUIOCPKEY@@XZ 000000018000eb20 f i IocpKeyIoMgr.obj
 0001:0000db30       ??D?$_Tree_const_iterator@V?$_Tree_val@U?$_Tree_simple_types@U?$pair@$$CBHPEAUIOCPIO@@@std@@@std@@@std@@@std@@QEBAAEBU?$pair@$$CBHPEAUIOCPIO@@@1@XZ 000000018000eb30 f i IocpKeyIoMgr.obj
 0001:0000db40       ??D?$_Tree_const_iterator@V?$_Tree_val@U?$_Tree_simple_types@U?$pair@$$CBHPEAUIOCPKEY@@@std@@@std@@@std@@@std@@QEBAAEBU?$pair@$$CBHPEAUIOCPKEY@@@1@XZ 000000018000eb40 f i IocpKeyIoMgr.obj
 0001:0000db50       ??D?$_Tree_iterator@V?$_Tree_val@U?$_Tree_simple_types@U?$pair@$$CBHPEAUIOCPIO@@@std@@@std@@@std@@@std@@QEBAAEAU?$pair@$$CBHPEAUIOCPIO@@@1@XZ 000000018000eb50 f i IocpKeyIoMgr.obj
 0001:0000db60       ??D?$_Tree_iterator@V?$_Tree_val@U?$_Tree_simple_types@U?$pair@$$CBHPEAUIOCPKEY@@@std@@@std@@@std@@@std@@QEBAAEAU?$pair@$$CBHPEAUIOCPKEY@@@1@XZ 000000018000eb60 f i IocpKeyIoMgr.obj
 0001:0000db70       ??E?$_List_const_iterator@V?$_List_val@U?$_List_simple_types@PEAUIOCPIO@@@std@@@std@@@std@@QEAA?AV01@H@Z 000000018000eb70 f i IocpKeyIoMgr.obj
 0001:0000db80       ??E?$_List_const_iterator@V?$_List_val@U?$_List_simple_types@PEAUIOCPIO@@@std@@@std@@@std@@QEAAAEAV01@XZ 000000018000eb80 f i IocpKeyIoMgr.obj
 0001:0000db90       ??E?$_List_const_iterator@V?$_List_val@U?$_List_simple_types@PEAUIOCPKEY@@@std@@@std@@@std@@QEAA?AV01@H@Z 000000018000eb90 f i IocpKeyIoMgr.obj
 0001:0000dba0       ??E?$_List_const_iterator@V?$_List_val@U?$_List_simple_types@PEAUIOCPKEY@@@std@@@std@@@std@@QEAAAEAV01@XZ 000000018000eba0 f i IocpKeyIoMgr.obj
 0001:0000dbb0       ??E?$_List_iterator@V?$_List_val@U?$_List_simple_types@PEAUIOCPIO@@@std@@@std@@@std@@QEAAAEAV01@XZ 000000018000ebb0 f i IocpKeyIoMgr.obj
 0001:0000dbc0       ??E?$_List_iterator@V?$_List_val@U?$_List_simple_types@PEAUIOCPKEY@@@std@@@std@@@std@@QEAAAEAV01@XZ 000000018000ebc0 f i IocpKeyIoMgr.obj
 0001:0000dbd0       ??E?$_Tree_const_iterator@V?$_Tree_val@U?$_Tree_simple_types@U?$pair@$$CBHPEAUIOCPIO@@@std@@@std@@@std@@@std@@QEAA?AV01@H@Z 000000018000ebd0 f i IocpKeyIoMgr.obj
 0001:0000dc30       ??E?$_Tree_const_iterator@V?$_Tree_val@U?$_Tree_simple_types@U?$pair@$$CBHPEAUIOCPIO@@@std@@@std@@@std@@@std@@QEAAAEAV01@XZ 000000018000ec30 f i IocpKeyIoMgr.obj
 0001:0000dc90       ??E?$_Tree_const_iterator@V?$_Tree_val@U?$_Tree_simple_types@U?$pair@$$CBHPEAUIOCPKEY@@@std@@@std@@@std@@@std@@QEAA?AV01@H@Z 000000018000ec90 f i IocpKeyIoMgr.obj
 0001:0000dcf0       ??E?$_Tree_const_iterator@V?$_Tree_val@U?$_Tree_simple_types@U?$pair@$$CBHPEAUIOCPKEY@@@std@@@std@@@std@@@std@@QEAAAEAV01@XZ 000000018000ecf0 f i IocpKeyIoMgr.obj
 0001:0000dd50       ??E?$_Tree_iterator@V?$_Tree_val@U?$_Tree_simple_types@U?$pair@$$CBHPEAUIOCPIO@@@std@@@std@@@std@@@std@@QEAAAEAV01@XZ 000000018000ed50 f i IocpKeyIoMgr.obj
 0001:0000ddb0       ??E?$_Tree_iterator@V?$_Tree_val@U?$_Tree_simple_types@U?$pair@$$CBHPEAUIOCPKEY@@@std@@@std@@@std@@@std@@QEAA?AV01@H@Z 000000018000edb0 f i IocpKeyIoMgr.obj
 0001:0000de10       ??E?$_Tree_iterator@V?$_Tree_val@U?$_Tree_simple_types@U?$pair@$$CBHPEAUIOCPKEY@@@std@@@std@@@std@@@std@@QEAAAEAV01@XZ 000000018000ee10 f i IocpKeyIoMgr.obj
 0001:0000de70       ??E?$_Tree_unchecked_const_iterator@V?$_Tree_val@U?$_Tree_simple_types@U?$pair@$$CBHPEAUIOCPIO@@@std@@@std@@@std@@U_Iterator_base0@2@@std@@QEAAAEAV01@XZ 000000018000ee70 f i IocpKeyIoMgr.obj
 0001:0000ded0       ??E?$_Tree_unchecked_const_iterator@V?$_Tree_val@U?$_Tree_simple_types@U?$pair@$$CBHPEAUIOCPKEY@@@std@@@std@@@std@@U_Iterator_base0@2@@std@@QEAAAEAV01@XZ 000000018000eed0 f i IocpKeyIoMgr.obj
 0001:0000df30       ??F?$_Tree_const_iterator@V?$_Tree_val@U?$_Tree_simple_types@U?$pair@$$CBHPEAUIOCPIO@@@std@@@std@@@std@@@std@@QEAAAEAV01@XZ 000000018000ef30 f i IocpKeyIoMgr.obj
 0001:0000df50       ??F?$_Tree_const_iterator@V?$_Tree_val@U?$_Tree_simple_types@U?$pair@$$CBHPEAUIOCPKEY@@@std@@@std@@@std@@@std@@QEAAAEAV01@XZ 000000018000ef50 f i IocpKeyIoMgr.obj
 0001:0000df70       ??F?$_Tree_iterator@V?$_Tree_val@U?$_Tree_simple_types@U?$pair@$$CBHPEAUIOCPIO@@@std@@@std@@@std@@@std@@QEAAAEAV01@XZ 000000018000ef70 f i IocpKeyIoMgr.obj
 0001:0000df90       ??F?$_Tree_iterator@V?$_Tree_val@U?$_Tree_simple_types@U?$pair@$$CBHPEAUIOCPKEY@@@std@@@std@@@std@@@std@@QEAAAEAV01@XZ 000000018000ef90 f i IocpKeyIoMgr.obj
 0001:0000dfb0       ??F?$_Tree_unchecked_const_iterator@V?$_Tree_val@U?$_Tree_simple_types@U?$pair@$$CBHPEAUIOCPIO@@@std@@@std@@@std@@U_Iterator_base0@2@@std@@QEAAAEAV01@XZ 000000018000efb0 f i IocpKeyIoMgr.obj
 0001:0000e030       ??F?$_Tree_unchecked_const_iterator@V?$_Tree_val@U?$_Tree_simple_types@U?$pair@$$CBHPEAUIOCPKEY@@@std@@@std@@@std@@U_Iterator_base0@2@@std@@QEAAAEAV01@XZ 000000018000f030 f i IocpKeyIoMgr.obj
 0001:0000e0b0       ??R?$less@H@std@@QEBA_NAEBH0@Z 000000018000f0b0 f i IocpKeyIoMgr.obj
 0001:0000e0c0       ??_ECIocpKeyIoMgr@@UEAAPEAXI@Z 000000018000f0c0 f i IocpKeyIoMgr.obj
 0001:0000e0c0       ??_GCIocpKeyIoMgr@@UEAAPEAXI@Z 000000018000f0c0 f i IocpKeyIoMgr.obj
 0001:0000e0f0       ?ApplyIocpAcceptIo@CIocpKeyIoMgr@@QEAAPEAUIOCPIO@@_K@Z 000000018000f0f0 f   IocpKeyIoMgr.obj
 0001:0000e250       ?ApplyIocpKey@CIocpKeyIoMgr@@QEAAPEAUIOCPKEY@@PEAUIOCPIO@@@Z 000000018000f250 f   IocpKeyIoMgr.obj
 0001:0000e420       ?ApplyIocpSendIo@CIocpKeyIoMgr@@QEAAPEAUIOCPIO@@HHPEBDHH@Z 000000018000f420 f   IocpKeyIoMgr.obj
 0001:0000e5c0       ?CancelDelay@CIocpKeyIoMgr@@QEAAHH@Z 000000018000f5c0 f   IocpKeyIoMgr.obj
 0001:0000e790       ?CancelPendingState@CIocpKeyIoMgr@@QEAA_NPEAUIOCPKEY@@@Z 000000018000f790 f   IocpKeyIoMgr.obj
 0001:0000e840       ?CheckKeyBeforeSend@CIocpKeyIoMgr@@AEAAPEAUIOCPKEY@@HHAEAH@Z 000000018000f840 f   IocpKeyIoMgr.obj
 0001:0000e910       ?CheckTimeOutConnections@CIocpKeyIoMgr@@QEAA_JH@Z 000000018000f910 f   IocpKeyIoMgr.obj
 0001:0000ed30       ?CloseAllConnections@CIocpKeyIoMgr@@QEAAXXZ 000000018000fd30 f   IocpKeyIoMgr.obj
 0001:0000eeb0       ?CloseSocket@CIocpKeyIoMgr@@QEAAXAEA_K@Z 000000018000feb0 f   IocpKeyIoMgr.obj
 0001:0000eef0       ?CloseSocket@CIocpKeyIoMgr@@QEAAXHAEA_K@Z 000000018000fef0 f   IocpKeyIoMgr.obj
 0001:0000efa0       ?FindIocpKey@CIocpKeyIoMgr@@QEAAPEAUIOCPKEY@@H@Z 000000018000ffa0 f   IocpKeyIoMgr.obj
 0001:0000f050       ?GetIdleIoCnt@CIocpKeyIoMgr@@QEAAHXZ 0000000180010050 f   IocpKeyIoMgr.obj
 0001:0000f0a0       ?GetIdleKeyCnt@CIocpKeyIoMgr@@QEAAHXZ 00000001800100a0 f   IocpKeyIoMgr.obj
 0001:0000f0f0       ?GetInUseIoCnt@CIocpKeyIoMgr@@QEAAHXZ 00000001800100f0 f   IocpKeyIoMgr.obj
 0001:0000f140       ?GetInUseKeyCnt@CIocpKeyIoMgr@@QEAAHXZ 0000000180010140 f   IocpKeyIoMgr.obj
 0001:0000f190       ?GetSocketState@CIocpKeyIoMgr@@QEAAHH@Z 0000000180010190 f   IocpKeyIoMgr.obj
 0001:0000f230       ?GetUniqueIo@@YAHXZ        0000000180010230 f   IocpKeyIoMgr.obj
 0001:0000f280       ?GetUniqueKey@@YAHXZ       0000000180010280 f   IocpKeyIoMgr.obj
 0001:0000f2d0       ?InitIo@CIocpKeyIoMgr@@AEAAXH@Z 00000001800102d0 f   IocpKeyIoMgr.obj
 0001:0000f3e0       ?InitIoContext_Recv@CIocpKeyIoMgr@@QEAAXPEAUIOCPIO@@@Z 00000001800103e0 f   IocpKeyIoMgr.obj
 0001:0000f410       ?InitIoContext_Write@CIocpKeyIoMgr@@QEAAXPEAUIOCPIO@@@Z 0000000180010410 f   IocpKeyIoMgr.obj
 0001:0000f440       ?InitIocpIo@CIocpKeyIoMgr@@QEAAXH@Z 0000000180010440 f   IocpKeyIoMgr.obj
 0001:0000f450       ?InitIocpKey@CIocpKeyIoMgr@@QEAAXHP6AHPEAUIOCPIO@@PEAUIOCPKEY@@HPEAXH@Z2@Z 0000000180010450 f   IocpKeyIoMgr.obj
 0001:0000f460       ?InitKey@CIocpKeyIoMgr@@AEAAXH@Z 0000000180010460 f   IocpKeyIoMgr.obj
 0001:0000f580       ?IocpAsyncSend@CIocpKeyIoMgr@@QEAAHHHPEBDHH@Z 0000000180010580 f   IocpKeyIoMgr.obj
 0001:0000f8d0       ?IsValidKey@CIocpKeyIoMgr@@QEAA_NPEAUIOCPKEY@@@Z 00000001800108d0 f   IocpKeyIoMgr.obj
 0001:0000f980       ?ReSetMaxIoCnt@CIocpKeyIoMgr@@QEAAXH@Z 0000000180010980 f   IocpKeyIoMgr.obj
 0001:0000f9c0       ?ReSetMaxKeyCnt@CIocpKeyIoMgr@@QEAAXH@Z 00000001800109c0 f   IocpKeyIoMgr.obj
 0001:0000fa00       ?ReleaseIocpIo@CIocpKeyIoMgr@@QEAAXPEAUIOCPIO@@@Z 0000000180010a00 f   IocpKeyIoMgr.obj
 0001:0000fb20       ?ReleaseIocpKey@CIocpKeyIoMgr@@QEAAXPEAUIOCPKEY@@@Z 0000000180010b20 f   IocpKeyIoMgr.obj
 0001:0000fc50       ?RemoveIdleIoItems@CIocpKeyIoMgr@@AEAAXXZ 0000000180010c50 f   IocpKeyIoMgr.obj
 0001:0000fd10       ?RemoveIdleKeyItems@CIocpKeyIoMgr@@AEAAXXZ 0000000180010d10 f   IocpKeyIoMgr.obj
 0001:0000fdc0       ?RemoveInUseIoItems@CIocpKeyIoMgr@@AEAAXXZ 0000000180010dc0 f   IocpKeyIoMgr.obj
 0001:0000fee0       ?RemoveInUseKeyItems@CIocpKeyIoMgr@@AEAAXXZ 0000000180010ee0 f   IocpKeyIoMgr.obj
 0001:00010000       ?SetPendingState@CIocpKeyIoMgr@@AEAAXH@Z 0000000180011000 f   IocpKeyIoMgr.obj
 0001:00010070       ?UpdateIocpKey@CIocpKeyIoMgr@@QEAAHHHHHEEPEBE@Z 0000000180011070 f   IocpKeyIoMgr.obj
 0001:000101e0       ?_Buyheadnode@?$_List_alloc@$0A@U?$_List_base_types@PEAUIOCPIO@@V?$allocator@PEAUIOCPIO@@@std@@@std@@@std@@QEAAPEAU?$_List_node@PEAUIOCPIO@@PEAX@2@XZ 00000001800111e0 f i IocpKeyIoMgr.obj
 0001:000101f0       ?_Buyheadnode@?$_List_alloc@$0A@U?$_List_base_types@PEAUIOCPKEY@@V?$allocator@PEAUIOCPKEY@@@std@@@std@@@std@@QEAAPEAU?$_List_node@PEAUIOCPKEY@@PEAX@2@XZ 00000001800111f0 f i IocpKeyIoMgr.obj
 0001:00010200       ?_Buyheadnode@?$_Tree_alloc@$0A@U?$_Tree_base_types@U?$pair@$$CBHPEAUIOCPIO@@@std@@V?$allocator@U?$pair@$$CBHPEAUIOCPIO@@@std@@@2@@std@@@std@@QEAAPEAU?$_Tree_node@U?$pair@$$CBHPEAUIOCPIO@@@std@@PEAX@2@XZ 0000000180011200 f i IocpKeyIoMgr.obj
 0001:00010250       ?_Buyheadnode@?$_Tree_alloc@$0A@U?$_Tree_base_types@U?$pair@$$CBHPEAUIOCPKEY@@@std@@V?$allocator@U?$pair@$$CBHPEAUIOCPKEY@@@std@@@2@@std@@@std@@QEAAPEAU?$_Tree_node@U?$pair@$$CBHPEAUIOCPKEY@@@std@@PEAX@2@XZ 0000000180011250 f i IocpKeyIoMgr.obj
 0001:000102a0       ?_Buynode0@?$_List_alloc@$0A@U?$_List_base_types@PEAUIOCPIO@@V?$allocator@PEAUIOCPIO@@@std@@@std@@@std@@QEAAPEAU?$_List_node@PEAUIOCPIO@@PEAX@2@PEAU32@0@Z 00000001800112a0 f i IocpKeyIoMgr.obj
 0001:00010300       ?_Buynode0@?$_List_alloc@$0A@U?$_List_base_types@PEAUIOCPKEY@@V?$allocator@PEAUIOCPKEY@@@std@@@std@@@std@@QEAAPEAU?$_List_node@PEAUIOCPKEY@@PEAX@2@PEAU32@0@Z 0000000180011300 f i IocpKeyIoMgr.obj
 0001:00010360       ?_Buynode0@?$_Tree_buy@U?$pair@$$CBHPEAUIOCPIO@@@std@@V?$allocator@U?$pair@$$CBHPEAUIOCPIO@@@std@@@2@@std@@QEAAPEAU?$_Tree_node@U?$pair@$$CBHPEAUIOCPIO@@@std@@PEAX@2@XZ 0000000180011360 f i IocpKeyIoMgr.obj
 0001:000103c0       ?_Buynode0@?$_Tree_buy@U?$pair@$$CBHPEAUIOCPKEY@@@std@@V?$allocator@U?$pair@$$CBHPEAUIOCPKEY@@@std@@@2@@std@@QEAAPEAU?$_Tree_node@U?$pair@$$CBHPEAUIOCPKEY@@@std@@PEAX@2@XZ 00000001800113c0 f i IocpKeyIoMgr.obj
 0001:00010420       ?_Color@?$_Tree_val@U?$_Tree_simple_types@U?$pair@$$CBHPEAUIOCPIO@@@std@@@std@@@std@@SAAEADPEAU?$_Tree_node@U?$pair@$$CBHPEAUIOCPIO@@@std@@PEAX@2@@Z 0000000180011420 f i IocpKeyIoMgr.obj
 0001:00010430       ?_Color@?$_Tree_val@U?$_Tree_simple_types@U?$pair@$$CBHPEAUIOCPKEY@@@std@@@std@@@std@@SAAEADPEAU?$_Tree_node@U?$pair@$$CBHPEAUIOCPKEY@@@std@@PEAX@2@@Z 0000000180011430 f i IocpKeyIoMgr.obj
 0001:00010440       ?_Destroy_if_not_nil@?$_Tree@V?$_Tmap_traits@HPEAUIOCPIO@@U?$less@H@std@@V?$allocator@U?$pair@$$CBHPEAUIOCPIO@@@std@@@3@$0A@@std@@@std@@IEAAXPEAU?$_Tree_node@U?$pair@$$CBHPEAUIOCPIO@@@std@@PEAX@2@@Z 0000000180011440 f i IocpKeyIoMgr.obj
 0001:00010450       ?_Destroy_if_not_nil@?$_Tree@V?$_Tmap_traits@HPEAUIOCPKEY@@U?$less@H@std@@V?$allocator@U?$pair@$$CBHPEAUIOCPKEY@@@std@@@3@$0A@@std@@@std@@IEAAXPEAU?$_Tree_node@U?$pair@$$CBHPEAUIOCPKEY@@@std@@PEAX@2@@Z 0000000180011450 f i IocpKeyIoMgr.obj
 0001:00010460       ?_Eqrange@?$_Tree@V?$_Tmap_traits@HPEAUIOCPIO@@U?$less@H@std@@V?$allocator@U?$pair@$$CBHPEAUIOCPIO@@@std@@@3@$0A@@std@@@std@@IEAA?AU?$pair@V?$_Tree_iterator@V?$_Tree_val@U?$_Tree_simple_types@U?$pair@$$CBHPEAUIOCPIO@@@std@@@std@@@std@@@std@@V12@@2@AEBH@Z 0000000180011460 f i IocpKeyIoMgr.obj
 0001:000104f0       ?_Eqrange@?$_Tree@V?$_Tmap_traits@HPEAUIOCPKEY@@U?$less@H@std@@V?$allocator@U?$pair@$$CBHPEAUIOCPKEY@@@std@@@3@$0A@@std@@@std@@IEAA?AU?$pair@V?$_Tree_iterator@V?$_Tree_val@U?$_Tree_simple_types@U?$pair@$$CBHPEAUIOCPKEY@@@std@@@std@@@std@@@std@@V12@@2@AEBH@Z 00000001800114f0 f i IocpKeyIoMgr.obj
 0001:00010580       ?_Erase@?$_Tree@V?$_Tmap_traits@HPEAUIOCPIO@@U?$less@H@std@@V?$allocator@U?$pair@$$CBHPEAUIOCPIO@@@std@@@3@$0A@@std@@@std@@IEAAXPEAU?$_Tree_node@U?$pair@$$CBHPEAUIOCPIO@@@std@@PEAX@2@@Z 0000000180011580 f i IocpKeyIoMgr.obj
 0001:000105d0       ?_Erase@?$_Tree@V?$_Tmap_traits@HPEAUIOCPKEY@@U?$less@H@std@@V?$allocator@U?$pair@$$CBHPEAUIOCPKEY@@@std@@@3@$0A@@std@@@std@@IEAAXPEAU?$_Tree_node@U?$pair@$$CBHPEAUIOCPKEY@@@std@@PEAX@2@@Z 00000001800115d0 f i IocpKeyIoMgr.obj
 0001:00010620       ?_Freeheadnode@?$_List_alloc@$0A@U?$_List_base_types@PEAUIOCPIO@@V?$allocator@PEAUIOCPIO@@@std@@@std@@@std@@QEAAXPEAU?$_List_node@PEAUIOCPIO@@PEAX@2@@Z 0000000180011620 f i IocpKeyIoMgr.obj
 0001:00010630       ?_Freeheadnode@?$_List_alloc@$0A@U?$_List_base_types@PEAUIOCPKEY@@V?$allocator@PEAUIOCPKEY@@@std@@@std@@@std@@QEAAXPEAU?$_List_node@PEAUIOCPKEY@@PEAX@2@@Z 0000000180011630 f i IocpKeyIoMgr.obj
 0001:00010640       ?_Freeheadnode@?$_Tree_alloc@$0A@U?$_Tree_base_types@U?$pair@$$CBHPEAUIOCPIO@@@std@@V?$allocator@U?$pair@$$CBHPEAUIOCPIO@@@std@@@2@@std@@@std@@QEAAXPEAU?$_Tree_node@U?$pair@$$CBHPEAUIOCPIO@@@std@@PEAX@2@@Z 0000000180011640 f i IocpKeyIoMgr.obj
 0001:00010650       ?_Freeheadnode@?$_Tree_alloc@$0A@U?$_Tree_base_types@U?$pair@$$CBHPEAUIOCPKEY@@@std@@V?$allocator@U?$pair@$$CBHPEAUIOCPKEY@@@std@@@2@@std@@@std@@QEAAXPEAU?$_Tree_node@U?$pair@$$CBHPEAUIOCPKEY@@@std@@PEAX@2@@Z 0000000180011650 f i IocpKeyIoMgr.obj
 0001:00010660       ?_Freenode0@?$_Tree_buy@U?$pair@$$CBHPEAUIOCPIO@@@std@@V?$allocator@U?$pair@$$CBHPEAUIOCPIO@@@std@@@2@@std@@QEAAXPEAU?$_Tree_node@U?$pair@$$CBHPEAUIOCPIO@@@std@@PEAX@2@@Z 0000000180011660 f i IocpKeyIoMgr.obj
 0001:00010670       ?_Freenode0@?$_Tree_buy@U?$pair@$$CBHPEAUIOCPKEY@@@std@@V?$allocator@U?$pair@$$CBHPEAUIOCPKEY@@@std@@@2@@std@@QEAAXPEAU?$_Tree_node@U?$pair@$$CBHPEAUIOCPKEY@@@std@@PEAX@2@@Z 0000000180011670 f i IocpKeyIoMgr.obj
 0001:00010680       ?_Freenode@?$_List_buy@PEAUIOCPIO@@V?$allocator@PEAUIOCPIO@@@std@@@std@@QEAAXPEAU?$_List_node@PEAUIOCPIO@@PEAX@2@@Z 0000000180011680 f i IocpKeyIoMgr.obj
 0001:00010690       ?_Freenode@?$_List_buy@PEAUIOCPKEY@@V?$allocator@PEAUIOCPKEY@@@std@@@std@@QEAAXPEAU?$_List_node@PEAUIOCPKEY@@PEAX@2@@Z 0000000180011690 f i IocpKeyIoMgr.obj
 0001:000106a0       ?_Getal@?$_List_alloc@$0A@U?$_List_base_types@PEAUIOCPIO@@V?$allocator@PEAUIOCPIO@@@std@@@std@@@std@@QEBA?AU?$_Wrap_alloc@V?$allocator@U?$_List_node@PEAUIOCPIO@@PEAX@std@@@std@@@2@XZ 00000001800116a0 f i IocpKeyIoMgr.obj
 0001:000106b0       ?_Getal@?$_List_alloc@$0A@U?$_List_base_types@PEAUIOCPKEY@@V?$allocator@PEAUIOCPKEY@@@std@@@std@@@std@@QEBA?AU?$_Wrap_alloc@V?$allocator@U?$_List_node@PEAUIOCPKEY@@PEAX@std@@@std@@@2@XZ 00000001800116b0 f i IocpKeyIoMgr.obj
 0001:000106c0       ?_Getal@?$_Tree_alloc@$0A@U?$_Tree_base_types@U?$pair@$$CBHPEAUIOCPIO@@@std@@V?$allocator@U?$pair@$$CBHPEAUIOCPIO@@@std@@@2@@std@@@std@@QEBA?AU?$_Wrap_alloc@V?$allocator@U?$_Tree_node@U?$pair@$$CBHPEAUIOCPIO@@@std@@PEAX@std@@@std@@@2@XZ 00000001800116c0 f i IocpKeyIoMgr.obj
 0001:000106d0       ?_Getal@?$_Tree_alloc@$0A@U?$_Tree_base_types@U?$pair@$$CBHPEAUIOCPKEY@@@std@@V?$allocator@U?$pair@$$CBHPEAUIOCPKEY@@@std@@@2@@std@@@std@@QEBA?AU?$_Wrap_alloc@V?$allocator@U?$_Tree_node@U?$pair@$$CBHPEAUIOCPKEY@@@std@@PEAX@std@@@std@@@2@XZ 00000001800116d0 f i IocpKeyIoMgr.obj
 0001:000106e0       ?_Getcomp@?$_Tree_comp@$0A@V?$_Tmap_traits@HPEAUIOCPIO@@U?$less@H@std@@V?$allocator@U?$pair@$$CBHPEAUIOCPIO@@@std@@@3@$0A@@std@@@std@@QEBA?AU?$less@H@2@XZ 00000001800116e0 f i IocpKeyIoMgr.obj
 0001:000106f0       ?_Getcomp@?$_Tree_comp@$0A@V?$_Tmap_traits@HPEAUIOCPKEY@@U?$less@H@std@@V?$allocator@U?$pair@$$CBHPEAUIOCPKEY@@@std@@@3@$0A@@std@@@std@@QEBA?AU?$less@H@2@XZ 00000001800116f0 f i IocpKeyIoMgr.obj
 0001:00010700       ?_Incsize@?$list@PEAUIOCPIO@@V?$allocator@PEAUIOCPIO@@@std@@@std@@QEAAX_K@Z 0000000180011700 f i IocpKeyIoMgr.obj
 0001:00010740       ?_Incsize@?$list@PEAUIOCPKEY@@V?$allocator@PEAUIOCPKEY@@@std@@@std@@QEAAX_K@Z 0000000180011740 f i IocpKeyIoMgr.obj
 0001:00010780       ?_Isnil@?$_Tree_val@U?$_Tree_simple_types@U?$pair@$$CBHPEAUIOCPIO@@@std@@@std@@@std@@SAAEADPEAU?$_Tree_node@U?$pair@$$CBHPEAUIOCPIO@@@std@@PEAX@2@@Z 0000000180011780 f i IocpKeyIoMgr.obj
 0001:00010790       ?_Isnil@?$_Tree_val@U?$_Tree_simple_types@U?$pair@$$CBHPEAUIOCPKEY@@@std@@@std@@@std@@SAAEADPEAU?$_Tree_node@U?$pair@$$CBHPEAUIOCPKEY@@@std@@PEAX@2@@Z 0000000180011790 f i IocpKeyIoMgr.obj
 0001:000107a0       ?_Key@?$_Tree@V?$_Tmap_traits@HPEAUIOCPIO@@U?$less@H@std@@V?$allocator@U?$pair@$$CBHPEAUIOCPIO@@@std@@@3@$0A@@std@@@std@@IEBAAEBHPEAU?$_Tree_node@U?$pair@$$CBHPEAUIOCPIO@@@std@@PEAX@2@@Z 00000001800117a0 f i IocpKeyIoMgr.obj
 0001:000107b0       ?_Key@?$_Tree@V?$_Tmap_traits@HPEAUIOCPKEY@@U?$less@H@std@@V?$allocator@U?$pair@$$CBHPEAUIOCPKEY@@@std@@@3@$0A@@std@@@std@@IEBAAEBHPEAU?$_Tree_node@U?$pair@$$CBHPEAUIOCPKEY@@@std@@PEAX@2@@Z 00000001800117b0 f i IocpKeyIoMgr.obj
 0001:000107c0       ?_Kfn@?$_Tree@V?$_Tmap_traits@HPEAUIOCPIO@@U?$less@H@std@@V?$allocator@U?$pair@$$CBHPEAUIOCPIO@@@std@@@3@$0A@@std@@@std@@IEBAAEBHAEBU?$pair@$$CBHPEAUIOCPIO@@@2@@Z 00000001800117c0 f i IocpKeyIoMgr.obj
 0001:000107d0       ?_Kfn@?$_Tree@V?$_Tmap_traits@HPEAUIOCPKEY@@U?$less@H@std@@V?$allocator@U?$pair@$$CBHPEAUIOCPKEY@@@std@@@3@$0A@@std@@@std@@IEBAAEBHAEBU?$pair@$$CBHPEAUIOCPKEY@@@2@@Z 00000001800117d0 f i IocpKeyIoMgr.obj
 0001:000107e0       ?_Lbound@?$_Tree@V?$_Tmap_traits@HPEAUIOCPKEY@@U?$less@H@std@@V?$allocator@U?$pair@$$CBHPEAUIOCPKEY@@@std@@@3@$0A@@std@@@std@@IEAAPEAU?$_Tree_node@U?$pair@$$CBHPEAUIOCPKEY@@@std@@PEAX@2@AEBH@Z 00000001800117e0 f i IocpKeyIoMgr.obj
 0001:00010810       ?_Left@?$_Tree_val@U?$_Tree_simple_types@U?$pair@$$CBHPEAUIOCPIO@@@std@@@std@@@std@@SAAEAPEAU?$_Tree_node@U?$pair@$$CBHPEAUIOCPIO@@@std@@PEAX@2@PEAU32@@Z 0000000180011810 f i IocpKeyIoMgr.obj
 0001:00010820       ?_Left@?$_Tree_val@U?$_Tree_simple_types@U?$pair@$$CBHPEAUIOCPKEY@@@std@@@std@@@std@@SAAEAPEAU?$_Tree_node@U?$pair@$$CBHPEAUIOCPKEY@@@std@@PEAX@2@PEAU32@@Z 0000000180011820 f i IocpKeyIoMgr.obj
 0001:00010830       ?_Lmost@?$_Tree@V?$_Tmap_traits@HPEAUIOCPIO@@U?$less@H@std@@V?$allocator@U?$pair@$$CBHPEAUIOCPIO@@@std@@@3@$0A@@std@@@std@@IEBAAEAPEAU?$_Tree_node@U?$pair@$$CBHPEAUIOCPIO@@@std@@PEAX@2@XZ 0000000180011830 f i IocpKeyIoMgr.obj
 0001:00010840       ?_Lmost@?$_Tree@V?$_Tmap_traits@HPEAUIOCPKEY@@U?$less@H@std@@V?$allocator@U?$pair@$$CBHPEAUIOCPKEY@@@std@@@3@$0A@@std@@@std@@IEBAAEAPEAU?$_Tree_node@U?$pair@$$CBHPEAUIOCPKEY@@@std@@PEAX@2@XZ 0000000180011840 f i IocpKeyIoMgr.obj
 0001:00010850       ?_Lrotate@?$_Tree@V?$_Tmap_traits@HPEAUIOCPIO@@U?$less@H@std@@V?$allocator@U?$pair@$$CBHPEAUIOCPIO@@@std@@@3@$0A@@std@@@std@@IEAAXPEAU?$_Tree_node@U?$pair@$$CBHPEAUIOCPIO@@@std@@PEAX@2@@Z 0000000180011850 f i IocpKeyIoMgr.obj
 0001:000108b0       ?_Lrotate@?$_Tree@V?$_Tmap_traits@HPEAUIOCPKEY@@U?$less@H@std@@V?$allocator@U?$pair@$$CBHPEAUIOCPKEY@@@std@@@3@$0A@@std@@@std@@IEAAXPEAU?$_Tree_node@U?$pair@$$CBHPEAUIOCPKEY@@@std@@PEAX@2@@Z 00000001800118b0 f i IocpKeyIoMgr.obj
 0001:00010910       ?_Make_iter@?$list@PEAUIOCPIO@@V?$allocator@PEAUIOCPIO@@@std@@@std@@QEBA?AV?$_List_iterator@V?$_List_val@U?$_List_simple_types@PEAUIOCPIO@@@std@@@std@@@2@V?$_List_const_iterator@V?$_List_val@U?$_List_simple_types@PEAUIOCPIO@@@std@@@std@@@2@@Z 0000000180011910 f i IocpKeyIoMgr.obj
 0001:00010920       ?_Make_iter@?$list@PEAUIOCPKEY@@V?$allocator@PEAUIOCPKEY@@@std@@@std@@QEBA?AV?$_List_iterator@V?$_List_val@U?$_List_simple_types@PEAUIOCPKEY@@@std@@@std@@@2@V?$_List_const_iterator@V?$_List_val@U?$_List_simple_types@PEAUIOCPKEY@@@std@@@std@@@2@@Z 0000000180011920 f i IocpKeyIoMgr.obj
 0001:00010930       ?_Max@?$_Tree_val@U?$_Tree_simple_types@U?$pair@$$CBHPEAUIOCPIO@@@std@@@std@@@std@@SAPEAU?$_Tree_node@U?$pair@$$CBHPEAUIOCPIO@@@std@@PEAX@2@PEAU32@@Z 0000000180011930 f i IocpKeyIoMgr.obj
 0001:00010960       ?_Max@?$_Tree_val@U?$_Tree_simple_types@U?$pair@$$CBHPEAUIOCPKEY@@@std@@@std@@@std@@SAPEAU?$_Tree_node@U?$pair@$$CBHPEAUIOCPKEY@@@std@@PEAX@2@PEAU32@@Z 0000000180011960 f i IocpKeyIoMgr.obj
 0001:00010990       ?_Min@?$_Tree_val@U?$_Tree_simple_types@U?$pair@$$CBHPEAUIOCPIO@@@std@@@std@@@std@@SAPEAU?$_Tree_node@U?$pair@$$CBHPEAUIOCPIO@@@std@@PEAX@2@PEAU32@@Z 0000000180011990 f i IocpKeyIoMgr.obj
 0001:000109b0       ?_Min@?$_Tree_val@U?$_Tree_simple_types@U?$pair@$$CBHPEAUIOCPKEY@@@std@@@std@@@std@@SAPEAU?$_Tree_node@U?$pair@$$CBHPEAUIOCPKEY@@@std@@PEAX@2@PEAU32@@Z 00000001800119b0 f i IocpKeyIoMgr.obj
 0001:000109d0       ?_Mynode@?$_List_unchecked_const_iterator@V?$_List_val@U?$_List_simple_types@PEAUIOCPIO@@@std@@@std@@U_Iterator_base0@2@@std@@QEBAPEAU?$_List_node@PEAUIOCPIO@@PEAX@2@XZ 00000001800119d0 f i IocpKeyIoMgr.obj
 0001:000109e0       ?_Mynode@?$_List_unchecked_const_iterator@V?$_List_val@U?$_List_simple_types@PEAUIOCPKEY@@@std@@@std@@U_Iterator_base0@2@@std@@QEBAPEAU?$_List_node@PEAUIOCPKEY@@PEAX@2@XZ 00000001800119e0 f i IocpKeyIoMgr.obj
 0001:000109f0       ?_Mynode@?$_Tree_unchecked_const_iterator@V?$_Tree_val@U?$_Tree_simple_types@U?$pair@$$CBHPEAUIOCPIO@@@std@@@std@@@std@@U_Iterator_base0@2@@std@@QEBAPEAU?$_Tree_node@U?$pair@$$CBHPEAUIOCPIO@@@std@@PEAX@2@XZ 00000001800119f0 f i IocpKeyIoMgr.obj
 0001:00010a00       ?_Mynode@?$_Tree_unchecked_const_iterator@V?$_Tree_val@U?$_Tree_simple_types@U?$pair@$$CBHPEAUIOCPKEY@@@std@@@std@@@std@@U_Iterator_base0@2@@std@@QEBAPEAU?$_Tree_node@U?$pair@$$CBHPEAUIOCPKEY@@@std@@PEAX@2@XZ 0000000180011a00 f i IocpKeyIoMgr.obj
 0001:00010a10       ?_Myval@?$_List_val@U?$_List_simple_types@PEAUIOCPIO@@@std@@@std@@SAAEAPEAUIOCPIO@@PEAU?$_List_node@PEAUIOCPIO@@PEAX@2@@Z 0000000180011a10 f i IocpKeyIoMgr.obj
 0001:00010a20       ?_Myval@?$_List_val@U?$_List_simple_types@PEAUIOCPKEY@@@std@@@std@@SAAEAPEAUIOCPKEY@@PEAU?$_List_node@PEAUIOCPKEY@@PEAX@2@@Z 0000000180011a20 f i IocpKeyIoMgr.obj
 0001:00010a30       ?_Myval@?$_Tree_val@U?$_Tree_simple_types@U?$pair@$$CBHPEAUIOCPIO@@@std@@@std@@@std@@SAAEAU?$pair@$$CBHPEAUIOCPIO@@@2@PEAU?$_Tree_node@U?$pair@$$CBHPEAUIOCPIO@@@std@@PEAX@2@@Z 0000000180011a30 f i IocpKeyIoMgr.obj
 0001:00010a40       ?_Myval@?$_Tree_val@U?$_Tree_simple_types@U?$pair@$$CBHPEAUIOCPKEY@@@std@@@std@@@std@@SAAEAU?$pair@$$CBHPEAUIOCPKEY@@@2@PEAU?$_Tree_node@U?$pair@$$CBHPEAUIOCPKEY@@@std@@PEAX@2@@Z 0000000180011a40 f i IocpKeyIoMgr.obj
 0001:00010a50       ?_Nextnode@?$_List_val@U?$_List_simple_types@PEAUIOCPIO@@@std@@@std@@SAAEAPEAU?$_List_node@PEAUIOCPIO@@PEAX@2@PEAU32@@Z 0000000180011a50 f i IocpKeyIoMgr.obj
 0001:00010a60       ?_Nextnode@?$_List_val@U?$_List_simple_types@PEAUIOCPKEY@@@std@@@std@@SAAEAPEAU?$_List_node@PEAUIOCPKEY@@PEAX@2@PEAU32@@Z 0000000180011a60 f i IocpKeyIoMgr.obj
 0001:00010a70       ?_Parent@?$_Tree_val@U?$_Tree_simple_types@U?$pair@$$CBHPEAUIOCPIO@@@std@@@std@@@std@@SAAEAPEAU?$_Tree_node@U?$pair@$$CBHPEAUIOCPIO@@@std@@PEAX@2@PEAU32@@Z 0000000180011a70 f i IocpKeyIoMgr.obj
 0001:00010a80       ?_Parent@?$_Tree_val@U?$_Tree_simple_types@U?$pair@$$CBHPEAUIOCPKEY@@@std@@@std@@@std@@SAAEAPEAU?$_Tree_node@U?$pair@$$CBHPEAUIOCPKEY@@@std@@PEAX@2@PEAU32@@Z 0000000180011a80 f i IocpKeyIoMgr.obj
 0001:00010a90       ?_Prevnode@?$_List_val@U?$_List_simple_types@PEAUIOCPIO@@@std@@@std@@SAAEAPEAU?$_List_node@PEAUIOCPIO@@PEAX@2@PEAU32@@Z 0000000180011a90 f i IocpKeyIoMgr.obj
 0001:00010aa0       ?_Prevnode@?$_List_val@U?$_List_simple_types@PEAUIOCPKEY@@@std@@@std@@SAAEAPEAU?$_List_node@PEAUIOCPKEY@@PEAX@2@PEAU32@@Z 0000000180011aa0 f i IocpKeyIoMgr.obj
 0001:00010ab0       ?_Right@?$_Tree_val@U?$_Tree_simple_types@U?$pair@$$CBHPEAUIOCPIO@@@std@@@std@@@std@@SAAEAPEAU?$_Tree_node@U?$pair@$$CBHPEAUIOCPIO@@@std@@PEAX@2@PEAU32@@Z 0000000180011ab0 f i IocpKeyIoMgr.obj
 0001:00010ac0       ?_Right@?$_Tree_val@U?$_Tree_simple_types@U?$pair@$$CBHPEAUIOCPKEY@@@std@@@std@@@std@@SAAEAPEAU?$_Tree_node@U?$pair@$$CBHPEAUIOCPKEY@@@std@@PEAX@2@PEAU32@@Z 0000000180011ac0 f i IocpKeyIoMgr.obj
 0001:00010ad0       ?_Rmost@?$_Tree@V?$_Tmap_traits@HPEAUIOCPIO@@U?$less@H@std@@V?$allocator@U?$pair@$$CBHPEAUIOCPIO@@@std@@@3@$0A@@std@@@std@@IEBAAEAPEAU?$_Tree_node@U?$pair@$$CBHPEAUIOCPIO@@@std@@PEAX@2@XZ 0000000180011ad0 f i IocpKeyIoMgr.obj
 0001:00010ae0       ?_Rmost@?$_Tree@V?$_Tmap_traits@HPEAUIOCPKEY@@U?$less@H@std@@V?$allocator@U?$pair@$$CBHPEAUIOCPKEY@@@std@@@3@$0A@@std@@@std@@IEBAAEAPEAU?$_Tree_node@U?$pair@$$CBHPEAUIOCPKEY@@@std@@PEAX@2@XZ 0000000180011ae0 f i IocpKeyIoMgr.obj
 0001:00010af0       ?_Root@?$_Tree@V?$_Tmap_traits@HPEAUIOCPIO@@U?$less@H@std@@V?$allocator@U?$pair@$$CBHPEAUIOCPIO@@@std@@@3@$0A@@std@@@std@@IEBAAEAPEAU?$_Tree_node@U?$pair@$$CBHPEAUIOCPIO@@@std@@PEAX@2@XZ 0000000180011af0 f i IocpKeyIoMgr.obj
 0001:00010b00       ?_Root@?$_Tree@V?$_Tmap_traits@HPEAUIOCPKEY@@U?$less@H@std@@V?$allocator@U?$pair@$$CBHPEAUIOCPKEY@@@std@@@3@$0A@@std@@@std@@IEBAAEAPEAU?$_Tree_node@U?$pair@$$CBHPEAUIOCPKEY@@@std@@PEAX@2@XZ 0000000180011b00 f i IocpKeyIoMgr.obj
 0001:00010b10       ?_Rrotate@?$_Tree@V?$_Tmap_traits@HPEAUIOCPIO@@U?$less@H@std@@V?$allocator@U?$pair@$$CBHPEAUIOCPIO@@@std@@@3@$0A@@std@@@std@@IEAAXPEAU?$_Tree_node@U?$pair@$$CBHPEAUIOCPIO@@@std@@PEAX@2@@Z 0000000180011b10 f i IocpKeyIoMgr.obj
 0001:00010b70       ?_Rrotate@?$_Tree@V?$_Tmap_traits@HPEAUIOCPKEY@@U?$less@H@std@@V?$allocator@U?$pair@$$CBHPEAUIOCPKEY@@@std@@@3@$0A@@std@@@std@@IEAAXPEAU?$_Tree_node@U?$pair@$$CBHPEAUIOCPKEY@@@std@@PEAX@2@@Z 0000000180011b70 f i IocpKeyIoMgr.obj
 0001:00010bd0       ?_Tidy@?$_Tree@V?$_Tmap_traits@HPEAUIOCPIO@@U?$less@H@std@@V?$allocator@U?$pair@$$CBHPEAUIOCPIO@@@std@@@3@$0A@@std@@@std@@IEAAXXZ 0000000180011bd0 f i IocpKeyIoMgr.obj
 0001:00010bf0       ?_Tidy@?$_Tree@V?$_Tmap_traits@HPEAUIOCPKEY@@U?$less@H@std@@V?$allocator@U?$pair@$$CBHPEAUIOCPKEY@@@std@@@3@$0A@@std@@@std@@IEAAXXZ 0000000180011bf0 f i IocpKeyIoMgr.obj
 0001:00010c10       ?_Tidy@?$list@PEAUIOCPIO@@V?$allocator@PEAUIOCPIO@@@std@@@std@@QEAAXXZ 0000000180011c10 f i IocpKeyIoMgr.obj
 0001:00010c60       ?_Tidy@?$list@PEAUIOCPKEY@@V?$allocator@PEAUIOCPKEY@@@std@@@std@@QEAAXXZ 0000000180011c60 f i IocpKeyIoMgr.obj
 0001:00010cb0       ?_Unchecked_end@?$list@PEAUIOCPIO@@V?$allocator@PEAUIOCPIO@@@std@@@std@@QEAA?AV?$_List_unchecked_iterator@V?$_List_val@U?$_List_simple_types@PEAUIOCPIO@@@std@@@std@@@2@XZ 0000000180011cb0 f i IocpKeyIoMgr.obj
 0001:00010cc0       ?_Unchecked_end@?$list@PEAUIOCPKEY@@V?$allocator@PEAUIOCPKEY@@@std@@@std@@QEAA?AV?$_List_unchecked_iterator@V?$_List_val@U?$_List_simple_types@PEAUIOCPKEY@@@std@@@std@@@2@XZ 0000000180011cc0 f i IocpKeyIoMgr.obj
 0001:00010cd0       ?_Unlinknode@?$list@PEAUIOCPIO@@V?$allocator@PEAUIOCPIO@@@std@@@std@@QEAAPEAU?$_List_node@PEAUIOCPIO@@PEAX@2@V?$_List_const_iterator@V?$_List_val@U?$_List_simple_types@PEAUIOCPIO@@@std@@@std@@@2@@Z 0000000180011cd0 f i IocpKeyIoMgr.obj
 0001:00010cf0       ?_Unlinknode@?$list@PEAUIOCPKEY@@V?$allocator@PEAUIOCPKEY@@@std@@@std@@QEAAPEAU?$_List_node@PEAUIOCPKEY@@PEAX@2@V?$_List_const_iterator@V?$_List_val@U?$_List_simple_types@PEAUIOCPKEY@@@std@@@std@@@2@@Z 0000000180011cf0 f i IocpKeyIoMgr.obj
 0001:00010d10       ?allocate@?$_Wrap_alloc@V?$allocator@U?$_List_node@PEAUIOCPIO@@PEAX@std@@@std@@@std@@QEAAPEAU?$_List_node@PEAUIOCPIO@@PEAX@2@_K@Z 0000000180011d10 f i IocpKeyIoMgr.obj
 0001:00010d50       ?allocate@?$_Wrap_alloc@V?$allocator@U?$_List_node@PEAUIOCPKEY@@PEAX@std@@@std@@@std@@QEAAPEAU?$_List_node@PEAUIOCPKEY@@PEAX@2@_K@Z 0000000180011d50 f i IocpKeyIoMgr.obj
 0001:00010d90       ?allocate@?$_Wrap_alloc@V?$allocator@U?$_Tree_node@U?$pair@$$CBHPEAUIOCPIO@@@std@@PEAX@std@@@std@@@std@@QEAAPEAU?$_Tree_node@U?$pair@$$CBHPEAUIOCPIO@@@std@@PEAX@2@_K@Z 0000000180011d90 f i IocpKeyIoMgr.obj
 0001:00010dd0       ?allocate@?$_Wrap_alloc@V?$allocator@U?$_Tree_node@U?$pair@$$CBHPEAUIOCPKEY@@@std@@PEAX@std@@@std@@@std@@QEAAPEAU?$_Tree_node@U?$pair@$$CBHPEAUIOCPKEY@@@std@@PEAX@2@_K@Z 0000000180011dd0 f i IocpKeyIoMgr.obj
 0001:00010e10       ?allocate@?$allocator@U?$_List_node@PEAUIOCPIO@@PEAX@std@@@std@@QEAAPEAU?$_List_node@PEAUIOCPIO@@PEAX@2@_K@Z 0000000180011e10 f i IocpKeyIoMgr.obj
 0001:00010e50       ?allocate@?$allocator@U?$_List_node@PEAUIOCPKEY@@PEAX@std@@@std@@QEAAPEAU?$_List_node@PEAUIOCPKEY@@PEAX@2@_K@Z 0000000180011e50 f i IocpKeyIoMgr.obj
 0001:00010e90       ?allocate@?$allocator@U?$_Tree_node@U?$pair@$$CBHPEAUIOCPIO@@@std@@PEAX@std@@@std@@QEAAPEAU?$_Tree_node@U?$pair@$$CBHPEAUIOCPIO@@@std@@PEAX@2@_K@Z 0000000180011e90 f i IocpKeyIoMgr.obj
 0001:00010ed0       ?allocate@?$allocator@U?$_Tree_node@U?$pair@$$CBHPEAUIOCPKEY@@@std@@PEAX@std@@@std@@QEAAPEAU?$_Tree_node@U?$pair@$$CBHPEAUIOCPKEY@@@std@@PEAX@2@_K@Z 0000000180011ed0 f i IocpKeyIoMgr.obj
 0001:00010f10       ?begin@?$_Tree@V?$_Tmap_traits@HPEAUIOCPIO@@U?$less@H@std@@V?$allocator@U?$pair@$$CBHPEAUIOCPIO@@@std@@@3@$0A@@std@@@std@@QEAA?AV?$_Tree_iterator@V?$_Tree_val@U?$_Tree_simple_types@U?$pair@$$CBHPEAUIOCPIO@@@std@@@std@@@std@@@2@XZ 0000000180011f10 f i IocpKeyIoMgr.obj
 0001:00010f20       ?begin@?$_Tree@V?$_Tmap_traits@HPEAUIOCPKEY@@U?$less@H@std@@V?$allocator@U?$pair@$$CBHPEAUIOCPKEY@@@std@@@3@$0A@@std@@@std@@QEAA?AV?$_Tree_iterator@V?$_Tree_val@U?$_Tree_simple_types@U?$pair@$$CBHPEAUIOCPKEY@@@std@@@std@@@std@@@2@XZ 0000000180011f20 f i IocpKeyIoMgr.obj
 0001:00010f30       ?begin@?$list@PEAUIOCPIO@@V?$allocator@PEAUIOCPIO@@@std@@@std@@QEAA?AV?$_List_iterator@V?$_List_val@U?$_List_simple_types@PEAUIOCPIO@@@std@@@std@@@2@XZ 0000000180011f30 f i IocpKeyIoMgr.obj
 0001:00010f40       ?begin@?$list@PEAUIOCPKEY@@V?$allocator@PEAUIOCPKEY@@@std@@@std@@QEAA?AV?$_List_iterator@V?$_List_val@U?$_List_simple_types@PEAUIOCPKEY@@@std@@@std@@@2@XZ 0000000180011f40 f i IocpKeyIoMgr.obj
 0001:00010f50       ?clear@?$_Tree@V?$_Tmap_traits@HPEAUIOCPIO@@U?$less@H@std@@V?$allocator@U?$pair@$$CBHPEAUIOCPIO@@@std@@@3@$0A@@std@@@std@@QEAAXXZ 0000000180011f50 f i IocpKeyIoMgr.obj
 0001:00010fc0       ?clear@?$_Tree@V?$_Tmap_traits@HPEAUIOCPKEY@@U?$less@H@std@@V?$allocator@U?$pair@$$CBHPEAUIOCPKEY@@@std@@@3@$0A@@std@@@std@@QEAAXXZ 0000000180011fc0 f i IocpKeyIoMgr.obj
 0001:00011030       ?clear@?$list@PEAUIOCPIO@@V?$allocator@PEAUIOCPIO@@@std@@@std@@QEAAXXZ 0000000180012030 f i IocpKeyIoMgr.obj
 0001:00011080       ?clear@?$list@PEAUIOCPKEY@@V?$allocator@PEAUIOCPKEY@@@std@@@std@@QEAAXXZ 0000000180012080 f i IocpKeyIoMgr.obj
 0001:000110d0       ?deallocate@?$_Wrap_alloc@V?$allocator@U?$_List_node@PEAUIOCPIO@@PEAX@std@@@std@@@std@@QEAAXPEAU?$_List_node@PEAUIOCPIO@@PEAX@2@_K@Z 00000001800120d0 f i IocpKeyIoMgr.obj
 0001:000110e0       ?deallocate@?$_Wrap_alloc@V?$allocator@U?$_List_node@PEAUIOCPKEY@@PEAX@std@@@std@@@std@@QEAAXPEAU?$_List_node@PEAUIOCPKEY@@PEAX@2@_K@Z 00000001800120e0 f i IocpKeyIoMgr.obj
 0001:000110f0       ?deallocate@?$_Wrap_alloc@V?$allocator@U?$_Tree_node@U?$pair@$$CBHPEAUIOCPIO@@@std@@PEAX@std@@@std@@@std@@QEAAXPEAU?$_Tree_node@U?$pair@$$CBHPEAUIOCPIO@@@std@@PEAX@2@_K@Z 00000001800120f0 f i IocpKeyIoMgr.obj
 0001:00011100       ?deallocate@?$_Wrap_alloc@V?$allocator@U?$_Tree_node@U?$pair@$$CBHPEAUIOCPKEY@@@std@@PEAX@std@@@std@@@std@@QEAAXPEAU?$_Tree_node@U?$pair@$$CBHPEAUIOCPKEY@@@std@@PEAX@2@_K@Z 0000000180012100 f i IocpKeyIoMgr.obj
 0001:00011110       ?deallocate@?$allocator@U?$_List_node@PEAUIOCPIO@@PEAX@std@@@std@@QEAAXPEAU?$_List_node@PEAUIOCPIO@@PEAX@2@_K@Z 0000000180012110 f i IocpKeyIoMgr.obj
 0001:00011120       ?deallocate@?$allocator@U?$_List_node@PEAUIOCPKEY@@PEAX@std@@@std@@QEAAXPEAU?$_List_node@PEAUIOCPKEY@@PEAX@2@_K@Z 0000000180012120 f i IocpKeyIoMgr.obj
 0001:00011130       ?deallocate@?$allocator@U?$_Tree_node@U?$pair@$$CBHPEAUIOCPIO@@@std@@PEAX@std@@@std@@QEAAXPEAU?$_Tree_node@U?$pair@$$CBHPEAUIOCPIO@@@std@@PEAX@2@_K@Z 0000000180012130 f i IocpKeyIoMgr.obj
 0001:00011140       ?deallocate@?$allocator@U?$_Tree_node@U?$pair@$$CBHPEAUIOCPKEY@@@std@@PEAX@std@@@std@@QEAAXPEAU?$_Tree_node@U?$pair@$$CBHPEAUIOCPKEY@@@std@@PEAX@2@_K@Z 0000000180012140 f i IocpKeyIoMgr.obj
 0001:00011150       ?end@?$_Tree@V?$_Tmap_traits@HPEAUIOCPIO@@U?$less@H@std@@V?$allocator@U?$pair@$$CBHPEAUIOCPIO@@@std@@@3@$0A@@std@@@std@@QEAA?AV?$_Tree_iterator@V?$_Tree_val@U?$_Tree_simple_types@U?$pair@$$CBHPEAUIOCPIO@@@std@@@std@@@std@@@2@XZ 0000000180012150 f i IocpKeyIoMgr.obj
 0001:00011160       ?end@?$_Tree@V?$_Tmap_traits@HPEAUIOCPKEY@@U?$less@H@std@@V?$allocator@U?$pair@$$CBHPEAUIOCPKEY@@@std@@@3@$0A@@std@@@std@@QEAA?AV?$_Tree_iterator@V?$_Tree_val@U?$_Tree_simple_types@U?$pair@$$CBHPEAUIOCPKEY@@@std@@@std@@@std@@@2@XZ 0000000180012160 f i IocpKeyIoMgr.obj
 0001:00011170       ?end@?$list@PEAUIOCPIO@@V?$allocator@PEAUIOCPIO@@@std@@@std@@QEAA?AV?$_List_iterator@V?$_List_val@U?$_List_simple_types@PEAUIOCPIO@@@std@@@std@@@2@XZ 0000000180012170 f i IocpKeyIoMgr.obj
 0001:00011180       ?end@?$list@PEAUIOCPKEY@@V?$allocator@PEAUIOCPKEY@@@std@@@std@@QEAA?AV?$_List_iterator@V?$_List_val@U?$_List_simple_types@PEAUIOCPKEY@@@std@@@std@@@2@XZ 0000000180012180 f i IocpKeyIoMgr.obj
 0001:00011190       ?equal_range@?$_Tree@V?$_Tmap_traits@HPEAUIOCPIO@@U?$less@H@std@@V?$allocator@U?$pair@$$CBHPEAUIOCPIO@@@std@@@3@$0A@@std@@@std@@QEAA?AU?$pair@V?$_Tree_iterator@V?$_Tree_val@U?$_Tree_simple_types@U?$pair@$$CBHPEAUIOCPIO@@@std@@@std@@@std@@@std@@V12@@2@AEBH@Z 0000000180012190 f i IocpKeyIoMgr.obj
 0001:000111b0       ?equal_range@?$_Tree@V?$_Tmap_traits@HPEAUIOCPKEY@@U?$less@H@std@@V?$allocator@U?$pair@$$CBHPEAUIOCPKEY@@@std@@@3@$0A@@std@@@std@@QEAA?AU?$pair@V?$_Tree_iterator@V?$_Tree_val@U?$_Tree_simple_types@U?$pair@$$CBHPEAUIOCPKEY@@@std@@@std@@@std@@@std@@V12@@2@AEBH@Z 00000001800121b0 f i IocpKeyIoMgr.obj
 0001:000111d0       ?erase@?$_Tree@V?$_Tmap_traits@HPEAUIOCPIO@@U?$less@H@std@@V?$allocator@U?$pair@$$CBHPEAUIOCPIO@@@std@@@3@$0A@@std@@@std@@QEAA?AV?$_Tree_iterator@V?$_Tree_val@U?$_Tree_simple_types@U?$pair@$$CBHPEAUIOCPIO@@@std@@@std@@@std@@@2@V?$_Tree_const_iterator@V?$_Tree_val@U?$_Tree_simple_types@U?$pair@$$CBHPEAUIOCPIO@@@std@@@std@@@std@@@2@0@Z 00000001800121d0 f i IocpKeyIoMgr.obj
 0001:000112b0       ?erase@?$_Tree@V?$_Tmap_traits@HPEAUIOCPIO@@U?$less@H@std@@V?$allocator@U?$pair@$$CBHPEAUIOCPIO@@@std@@@3@$0A@@std@@@std@@QEAA?AV?$_Tree_iterator@V?$_Tree_val@U?$_Tree_simple_types@U?$pair@$$CBHPEAUIOCPIO@@@std@@@std@@@std@@@2@V?$_Tree_const_iterator@V?$_Tree_val@U?$_Tree_simple_types@U?$pair@$$CBHPEAUIOCPIO@@@std@@@std@@@std@@@2@@Z 00000001800122b0 f i IocpKeyIoMgr.obj
 0001:00011680       ?erase@?$_Tree@V?$_Tmap_traits@HPEAUIOCPIO@@U?$less@H@std@@V?$allocator@U?$pair@$$CBHPEAUIOCPIO@@@std@@@3@$0A@@std@@@std@@QEAA_KAEBH@Z 0000000180012680 f i IocpKeyIoMgr.obj
 0001:00011800       ?erase@?$_Tree@V?$_Tmap_traits@HPEAUIOCPKEY@@U?$less@H@std@@V?$allocator@U?$pair@$$CBHPEAUIOCPKEY@@@std@@@3@$0A@@std@@@std@@QEAA?AV?$_Tree_iterator@V?$_Tree_val@U?$_Tree_simple_types@U?$pair@$$CBHPEAUIOCPKEY@@@std@@@std@@@std@@@2@V?$_Tree_const_iterator@V?$_Tree_val@U?$_Tree_simple_types@U?$pair@$$CBHPEAUIOCPKEY@@@std@@@std@@@std@@@2@0@Z 0000000180012800 f i IocpKeyIoMgr.obj
 0001:000118e0       ?erase@?$_Tree@V?$_Tmap_traits@HPEAUIOCPKEY@@U?$less@H@std@@V?$allocator@U?$pair@$$CBHPEAUIOCPKEY@@@std@@@3@$0A@@std@@@std@@QEAA?AV?$_Tree_iterator@V?$_Tree_val@U?$_Tree_simple_types@U?$pair@$$CBHPEAUIOCPKEY@@@std@@@std@@@std@@@2@V?$_Tree_const_iterator@V?$_Tree_val@U?$_Tree_simple_types@U?$pair@$$CBHPEAUIOCPKEY@@@std@@@std@@@std@@@2@@Z 00000001800128e0 f i IocpKeyIoMgr.obj
 0001:00011cb0       ?erase@?$_Tree@V?$_Tmap_traits@HPEAUIOCPKEY@@U?$less@H@std@@V?$allocator@U?$pair@$$CBHPEAUIOCPKEY@@@std@@@3@$0A@@std@@@std@@QEAA_KAEBH@Z 0000000180012cb0 f i IocpKeyIoMgr.obj
 0001:00011e30       ?erase@?$list@PEAUIOCPIO@@V?$allocator@PEAUIOCPIO@@@std@@@std@@QEAA?AV?$_List_iterator@V?$_List_val@U?$_List_simple_types@PEAUIOCPIO@@@std@@@std@@@2@V?$_List_const_iterator@V?$_List_val@U?$_List_simple_types@PEAUIOCPIO@@@std@@@std@@@2@@Z 0000000180012e30 f i IocpKeyIoMgr.obj
 0001:00011e80       ?erase@?$list@PEAUIOCPKEY@@V?$allocator@PEAUIOCPKEY@@@std@@@std@@QEAA?AV?$_List_iterator@V?$_List_val@U?$_List_simple_types@PEAUIOCPKEY@@@std@@@std@@@2@V?$_List_const_iterator@V?$_List_val@U?$_List_simple_types@PEAUIOCPKEY@@@std@@@std@@@2@@Z 0000000180012e80 f i IocpKeyIoMgr.obj
 0001:00011ed0       ?find@?$_Tree@V?$_Tmap_traits@HPEAUIOCPKEY@@U?$less@H@std@@V?$allocator@U?$pair@$$CBHPEAUIOCPKEY@@@std@@@3@$0A@@std@@@std@@QEAA?AV?$_Tree_iterator@V?$_Tree_val@U?$_Tree_simple_types@U?$pair@$$CBHPEAUIOCPKEY@@@std@@@std@@@std@@@2@AEBH@Z 0000000180012ed0 f i IocpKeyIoMgr.obj
 0001:00011f30       ?lower_bound@?$_Tree@V?$_Tmap_traits@HPEAUIOCPKEY@@U?$less@H@std@@V?$allocator@U?$pair@$$CBHPEAUIOCPKEY@@@std@@@3@$0A@@std@@@std@@QEAA?AV?$_Tree_iterator@V?$_Tree_val@U?$_Tree_simple_types@U?$pair@$$CBHPEAUIOCPKEY@@@std@@@std@@@std@@@2@AEBH@Z 0000000180012f30 f i IocpKeyIoMgr.obj
 0001:00011f60       ?max_size@?$_Tree@V?$_Tmap_traits@HPEAUIOCPIO@@U?$less@H@std@@V?$allocator@U?$pair@$$CBHPEAUIOCPIO@@@std@@@3@$0A@@std@@@std@@QEBA_KXZ 0000000180012f60 f i IocpKeyIoMgr.obj
 0001:00011f70       ?max_size@?$_Tree@V?$_Tmap_traits@HPEAUIOCPKEY@@U?$less@H@std@@V?$allocator@U?$pair@$$CBHPEAUIOCPKEY@@@std@@@3@$0A@@std@@@std@@QEBA_KXZ 0000000180012f70 f i IocpKeyIoMgr.obj
 0001:00011f80       ?max_size@?$_Wrap_alloc@V?$allocator@U?$_List_node@PEAUIOCPIO@@PEAX@std@@@std@@@std@@QEBA_KXZ 0000000180012f80 f i IocpKeyIoMgr.obj
 0001:00011f90       ?max_size@?$_Wrap_alloc@V?$allocator@U?$_List_node@PEAUIOCPKEY@@PEAX@std@@@std@@@std@@QEBA_KXZ 0000000180012f90 f i IocpKeyIoMgr.obj
 0001:00011fa0       ?max_size@?$_Wrap_alloc@V?$allocator@U?$_Tree_node@U?$pair@$$CBHPEAUIOCPIO@@@std@@PEAX@std@@@std@@@std@@QEBA_KXZ 0000000180012fa0 f i IocpKeyIoMgr.obj
 0001:00011fb0       ?max_size@?$_Wrap_alloc@V?$allocator@U?$_Tree_node@U?$pair@$$CBHPEAUIOCPKEY@@@std@@PEAX@std@@@std@@@std@@QEBA_KXZ 0000000180012fb0 f i IocpKeyIoMgr.obj
 0001:00011fc0       ?max_size@?$allocator@U?$_List_node@PEAUIOCPIO@@PEAX@std@@@std@@QEBA_KXZ 0000000180012fc0 f i IocpKeyIoMgr.obj
 0001:00011fd0       ?max_size@?$allocator@U?$_List_node@PEAUIOCPKEY@@PEAX@std@@@std@@QEBA_KXZ 0000000180012fd0 f i IocpKeyIoMgr.obj
 0001:00011fe0       ?max_size@?$allocator@U?$_Tree_node@U?$pair@$$CBHPEAUIOCPIO@@@std@@PEAX@std@@@std@@QEBA_KXZ 0000000180012fe0 f i IocpKeyIoMgr.obj
 0001:00011ff0       ?max_size@?$allocator@U?$_Tree_node@U?$pair@$$CBHPEAUIOCPKEY@@@std@@PEAX@std@@@std@@QEBA_KXZ 0000000180012ff0 f i IocpKeyIoMgr.obj
 0001:00012000       ?max_size@?$allocator_traits@V?$allocator@U?$_List_node@PEAUIOCPIO@@PEAX@std@@@std@@@std@@SA_KAEBV?$allocator@U?$_List_node@PEAUIOCPIO@@PEAX@std@@@2@@Z 0000000180013000 f i IocpKeyIoMgr.obj
 0001:00012010       ?max_size@?$allocator_traits@V?$allocator@U?$_List_node@PEAUIOCPKEY@@PEAX@std@@@std@@@std@@SA_KAEBV?$allocator@U?$_List_node@PEAUIOCPKEY@@PEAX@std@@@2@@Z 0000000180013010 f i IocpKeyIoMgr.obj
 0001:00012020       ?max_size@?$allocator_traits@V?$allocator@U?$_Tree_node@U?$pair@$$CBHPEAUIOCPIO@@@std@@PEAX@std@@@std@@@std@@SA_KAEBV?$allocator@U?$_Tree_node@U?$pair@$$CBHPEAUIOCPIO@@@std@@PEAX@std@@@2@@Z 0000000180013020 f i IocpKeyIoMgr.obj
 0001:00012030       ?max_size@?$allocator_traits@V?$allocator@U?$_Tree_node@U?$pair@$$CBHPEAUIOCPKEY@@@std@@PEAX@std@@@std@@@std@@SA_KAEBV?$allocator@U?$_Tree_node@U?$pair@$$CBHPEAUIOCPKEY@@@std@@PEAX@std@@@2@@Z 0000000180013030 f i IocpKeyIoMgr.obj
 0001:00012040       ?max_size@?$list@PEAUIOCPIO@@V?$allocator@PEAUIOCPIO@@@std@@@std@@QEBA_KXZ 0000000180013040 f i IocpKeyIoMgr.obj
 0001:00012050       ?max_size@?$list@PEAUIOCPKEY@@V?$allocator@PEAUIOCPKEY@@@std@@@std@@QEBA_KXZ 0000000180013050 f i IocpKeyIoMgr.obj
 0001:00012060       ?pointer_to@?$pointer_traits@PEAU?$pair@$$CBHPEAUIOCPIO@@@std@@@std@@SAPEAU?$pair@$$CBHPEAUIOCPIO@@@2@AEAU32@@Z 0000000180013060 f i IocpKeyIoMgr.obj
 0001:00012070       ?pointer_to@?$pointer_traits@PEAU?$pair@$$CBHPEAUIOCPKEY@@@std@@@std@@SAPEAU?$pair@$$CBHPEAUIOCPKEY@@@2@AEAU32@@Z 0000000180013070 f i IocpKeyIoMgr.obj
 0001:00012080       ?pop_front@?$list@PEAUIOCPIO@@V?$allocator@PEAUIOCPIO@@@std@@@std@@QEAAXXZ 0000000180013080 f i IocpKeyIoMgr.obj
 0001:000120b0       ?pop_front@?$list@PEAUIOCPKEY@@V?$allocator@PEAUIOCPKEY@@@std@@@std@@QEAAXXZ 00000001800130b0 f i IocpKeyIoMgr.obj
 0001:000120e0       ?push_back@?$list@PEAUIOCPIO@@V?$allocator@PEAUIOCPIO@@@std@@@std@@QEAAXAEBQEAUIOCPIO@@@Z 00000001800130e0 f i IocpKeyIoMgr.obj
 0001:00012150       ?push_back@?$list@PEAUIOCPKEY@@V?$allocator@PEAUIOCPKEY@@@std@@@std@@QEAAXAEBQEAUIOCPKEY@@@Z 0000000180013150 f i IocpKeyIoMgr.obj
 0001:000121c0       ?size@?$_Tree@V?$_Tmap_traits@HPEAUIOCPIO@@U?$less@H@std@@V?$allocator@U?$pair@$$CBHPEAUIOCPIO@@@std@@@3@$0A@@std@@@std@@QEBA_KXZ 00000001800131c0 f i IocpKeyIoMgr.obj
 0001:000121d0       ?size@?$_Tree@V?$_Tmap_traits@HPEAUIOCPKEY@@U?$less@H@std@@V?$allocator@U?$pair@$$CBHPEAUIOCPKEY@@@std@@@3@$0A@@std@@@std@@QEBA_KXZ 00000001800131d0 f i IocpKeyIoMgr.obj
 0001:000121e0       ?size@?$list@PEAUIOCPIO@@V?$allocator@PEAUIOCPIO@@@std@@@std@@QEBA_KXZ 00000001800131e0 f i IocpKeyIoMgr.obj
 0001:000121f0       ?size@?$list@PEAUIOCPKEY@@V?$allocator@PEAUIOCPKEY@@@std@@@std@@QEBA_KXZ 00000001800131f0 f i IocpKeyIoMgr.obj
 0001:00012210       ??$?0AEAPEBDHX@?$pair@PEBDH@std@@QEAA@AEAPEBD$$QEAH@Z 0000000180013210 f i IocpServer.obj
 0001:00012220       ??$?0AEAV?$_Tree_iterator@V?$_Tree_val@U?$_Tree_simple_types@U?$pair@$$CBV?$basic_string@DU?$char_traits@D@std@@V?$allocator@D@2@@std@@H@std@@@std@@@std@@@std@@AEAV01@X@?$pair@V?$_Tree_iterator@V?$_Tree_val@U?$_Tree_simple_types@U?$pair@$$CBV?$basic_string@DU?$char_traits@D@std@@V?$allocator@D@2@@std@@H@std@@@std@@@std@@@std@@V12@@std@@QEAA@AEAV?$_Tree_iterator@V?$_Tree_val@U?$_Tree_simple_types@U?$pair@$$CBV?$basic_string@DU?$char_traits@D@std@@V?$allocator@D@2@@std@@H@std@@@std@@@std@@@1@0@Z 0000000180013220 f i IocpServer.obj
 0001:00012240       ??$?0AEAV?$_Tree_iterator@V?$_Tree_val@U?$_Tree_simple_types@U?$pair@$$CBV?$basic_string@DU?$char_traits@D@std@@V?$allocator@D@2@@std@@H@std@@@std@@@std@@@std@@_NX@?$pair@V?$_Tree_iterator@V?$_Tree_val@U?$_Tree_simple_types@U?$pair@$$CBV?$basic_string@DU?$char_traits@D@std@@V?$allocator@D@2@@std@@H@std@@@std@@@std@@@std@@_N@std@@QEAA@AEAV?$_Tree_iterator@V?$_Tree_val@U?$_Tree_simple_types@U?$pair@$$CBV?$basic_string@DU?$char_traits@D@std@@V?$allocator@D@2@@std@@H@std@@@std@@@std@@@1@$$QEA_N@Z 0000000180013240 f i IocpServer.obj
 0001:00012260       ??$?0PEBDHX@?$pair@$$CBV?$basic_string@DU?$char_traits@D@std@@V?$allocator@D@2@@std@@H@std@@QEAA@$$QEAU?$pair@PEBDH@1@@Z 0000000180013260 f i IocpServer.obj
 0001:000122c0       ??$?0U?$_Tree_node@U?$pair@$$CBV?$basic_string@DU?$char_traits@D@std@@V?$allocator@D@2@@std@@H@std@@PEAX@std@@@?$allocator@U?$pair@$$CBV?$basic_string@DU?$char_traits@D@std@@V?$allocator@D@2@@std@@H@std@@@std@@QEAA@AEBV?$allocator@U?$_Tree_node@U?$pair@$$CBV?$basic_string@DU?$char_traits@D@std@@V?$allocator@D@2@@std@@H@std@@PEAX@std@@@1@@Z 00000001800132c0 f i IocpServer.obj
 0001:000122d0       ??$?0V?$_Tree_iterator@V?$_Tree_val@U?$_Tree_simple_types@U?$pair@$$CBV?$basic_string@DU?$char_traits@D@std@@V?$allocator@D@2@@std@@H@std@@@std@@@std@@@std@@_NX@?$pair@V?$_Tree_iterator@V?$_Tree_val@U?$_Tree_simple_types@U?$pair@$$CBV?$basic_string@DU?$char_traits@D@std@@V?$allocator@D@2@@std@@H@std@@@std@@@std@@@std@@_N@std@@QEAA@$$QEAV?$_Tree_iterator@V?$_Tree_val@U?$_Tree_simple_types@U?$pair@$$CBV?$basic_string@DU?$char_traits@D@std@@V?$allocator@D@2@@std@@H@std@@@std@@@std@@@1@$$QEA_N@Z 00000001800132d0 f i IocpServer.obj
 0001:000122f0       ??$?MDU?$char_traits@D@std@@V?$allocator@D@1@@std@@YA_NAEBV?$basic_string@DU?$char_traits@D@std@@V?$allocator@D@2@@0@0@Z 00000001800132f0 f i IocpServer.obj
 0001:00012310       ??$_Allocate@U?$_Tree_node@U?$pair@$$CBV?$basic_string@DU?$char_traits@D@std@@V?$allocator@D@2@@std@@H@std@@PEAX@std@@@std@@YAPEAU?$_Tree_node@U?$pair@$$CBV?$basic_string@DU?$char_traits@D@std@@V?$allocator@D@2@@std@@H@std@@PEAX@0@_KPEAU10@@Z 0000000180013310 f i IocpServer.obj
 0001:00012350       ??$_Buynode@AEAU?$pair@$$CBV?$basic_string@DU?$char_traits@D@std@@V?$allocator@D@2@@std@@H@std@@@?$_Tree_buy@U?$pair@$$CBV?$basic_string@DU?$char_traits@D@std@@V?$allocator@D@2@@std@@H@std@@V?$allocator@U?$pair@$$CBV?$basic_string@DU?$char_traits@D@std@@V?$allocator@D@2@@std@@H@std@@@2@@std@@QEAAPEAU?$_Tree_node@U?$pair@$$CBV?$basic_string@DU?$char_traits@D@std@@V?$allocator@D@2@@std@@H@std@@PEAX@1@AEAU?$pair@$$CBV?$basic_string@DU?$char_traits@D@std@@V?$allocator@D@2@@std@@H@1@@Z 0000000180013350 f i IocpServer.obj
 0001:000123d0       ??$_Buynode@U?$pair@PEBDH@std@@@?$_Tree_buy@U?$pair@$$CBV?$basic_string@DU?$char_traits@D@std@@V?$allocator@D@2@@std@@H@std@@V?$allocator@U?$pair@$$CBV?$basic_string@DU?$char_traits@D@std@@V?$allocator@D@2@@std@@H@std@@@2@@std@@QEAAPEAU?$_Tree_node@U?$pair@$$CBV?$basic_string@DU?$char_traits@D@std@@V?$allocator@D@2@@std@@H@std@@PEAX@1@$$QEAU?$pair@PEBDH@1@@Z 00000001800133d0 f i IocpServer.obj
 0001:00012460       ??$_Buynode_if_nil@AEAU?$pair@$$CBV?$basic_string@DU?$char_traits@D@std@@V?$allocator@D@2@@std@@H@std@@@?$_Tree@V?$_Tmap_traits@V?$basic_string@DU?$char_traits@D@std@@V?$allocator@D@2@@std@@HU?$less@V?$basic_string@DU?$char_traits@D@std@@V?$allocator@D@2@@std@@@2@V?$allocator@U?$pair@$$CBV?$basic_string@DU?$char_traits@D@std@@V?$allocator@D@2@@std@@H@std@@@2@$0A@@std@@@std@@IEAAPEAU?$_Tree_node@U?$pair@$$CBV?$basic_string@DU?$char_traits@D@std@@V?$allocator@D@2@@std@@H@std@@PEAX@1@PEAU21@AEAU?$pair@$$CBV?$basic_string@DU?$char_traits@D@std@@V?$allocator@D@2@@std@@H@1@@Z 0000000180013460 f i IocpServer.obj
 0001:00012470       ??$_Copy@U?$integral_constant@_N$0A@@std@@@?$_Tree@V?$_Tmap_traits@V?$basic_string@DU?$char_traits@D@std@@V?$allocator@D@2@@std@@HU?$less@V?$basic_string@DU?$char_traits@D@std@@V?$allocator@D@2@@std@@@2@V?$allocator@U?$pair@$$CBV?$basic_string@DU?$char_traits@D@std@@V?$allocator@D@2@@std@@H@std@@@2@$0A@@std@@@std@@IEAAXAEBV01@U?$integral_constant@_N$0A@@1@@Z 0000000180013470 f i IocpServer.obj
 0001:00012520       ??$_Copy_nodes@U?$integral_constant@_N$0A@@std@@@?$_Tree@V?$_Tmap_traits@V?$basic_string@DU?$char_traits@D@std@@V?$allocator@D@2@@std@@HU?$less@V?$basic_string@DU?$char_traits@D@std@@V?$allocator@D@2@@std@@@2@V?$allocator@U?$pair@$$CBV?$basic_string@DU?$char_traits@D@std@@V?$allocator@D@2@@std@@H@std@@@2@$0A@@std@@@std@@IEAAPEAU?$_Tree_node@U?$pair@$$CBV?$basic_string@DU?$char_traits@D@std@@V?$allocator@D@2@@std@@H@std@@PEAX@1@PEAU21@0U?$integral_constant@_N$0A@@1@@Z 0000000180013520 f i IocpServer.obj
 0001:000125c0       ??$_Copy_or_move@U?$integral_constant@_N$0A@@std@@U?$integral_constant@_N$00@2@U12@H@?$_Tree@V?$_Tmap_traits@V?$basic_string@DU?$char_traits@D@std@@V?$allocator@D@2@@std@@HU?$less@V?$basic_string@DU?$char_traits@D@std@@V?$allocator@D@2@@std@@@2@V?$allocator@U?$pair@$$CBV?$basic_string@DU?$char_traits@D@std@@V?$allocator@D@2@@std@@H@std@@@2@$0A@@std@@@std@@IEAAPEAU?$_Tree_node@U?$pair@$$CBV?$basic_string@DU?$char_traits@D@std@@V?$allocator@D@2@@std@@H@std@@PEAX@1@PEAU21@U?$integral_constant@_N$0A@@1@U?$integral_constant@_N$00@1@1H@Z 00000001800135c0 f i IocpServer.obj
 0001:000125e0       ??$_Distance2@V?$_Tree_iterator@V?$_Tree_val@U?$_Tree_simple_types@U?$pair@$$CBV?$basic_string@DU?$char_traits@D@std@@V?$allocator@D@2@@std@@H@std@@@std@@@std@@@std@@_K@std@@YAXV?$_Tree_iterator@V?$_Tree_val@U?$_Tree_simple_types@U?$pair@$$CBV?$basic_string@DU?$char_traits@D@std@@V?$allocator@D@2@@std@@H@std@@@std@@@std@@@0@0AEA_KUbidirectional_iterator_tag@0@@Z 00000001800135e0 f i IocpServer.obj
 0001:00012660       ??$_Distance@V?$_Tree_iterator@V?$_Tree_val@U?$_Tree_simple_types@U?$pair@$$CBV?$basic_string@DU?$char_traits@D@std@@V?$allocator@D@2@@std@@H@std@@@std@@@std@@@std@@_K@std@@YAXV?$_Tree_iterator@V?$_Tree_val@U?$_Tree_simple_types@U?$pair@$$CBV?$basic_string@DU?$char_traits@D@std@@V?$allocator@D@2@@std@@H@std@@@std@@@std@@@0@0AEA_K@Z 0000000180013660 f i IocpServer.obj
 0001:00012680       ??$_Insert_at@AEAU?$pair@$$CBV?$basic_string@DU?$char_traits@D@std@@V?$allocator@D@2@@std@@H@std@@PEAU?$_Tree_node@U?$pair@$$CBV?$basic_string@DU?$char_traits@D@std@@V?$allocator@D@2@@std@@H@std@@PEAX@2@@?$_Tree@V?$_Tmap_traits@V?$basic_string@DU?$char_traits@D@std@@V?$allocator@D@2@@std@@HU?$less@V?$basic_string@DU?$char_traits@D@std@@V?$allocator@D@2@@std@@@2@V?$allocator@U?$pair@$$CBV?$basic_string@DU?$char_traits@D@std@@V?$allocator@D@2@@std@@H@std@@@2@$0A@@std@@@std@@IEAA?AV?$_Tree_iterator@V?$_Tree_val@U?$_Tree_simple_types@U?$pair@$$CBV?$basic_string@DU?$char_traits@D@std@@V?$allocator@D@2@@std@@H@std@@@std@@@std@@@1@_NPEAU?$_Tree_node@U?$pair@$$CBV?$basic_string@DU?$char_traits@D@std@@V?$allocator@D@2@@std@@H@std@@PEAX@1@AEAU?$pair@$$CBV?$basic_string@DU?$char_traits@D@std@@V?$allocator@D@2@@std@@H@1@1@Z 0000000180013680 f i IocpServer.obj
 0001:00012950       ??$_Insert_nohint@AEAU?$pair@$$CBV?$basic_string@DU?$char_traits@D@std@@V?$allocator@D@2@@std@@H@std@@PEAU?$_Tree_node@U?$pair@$$CBV?$basic_string@DU?$char_traits@D@std@@V?$allocator@D@2@@std@@H@std@@PEAX@2@@?$_Tree@V?$_Tmap_traits@V?$basic_string@DU?$char_traits@D@std@@V?$allocator@D@2@@std@@HU?$less@V?$basic_string@DU?$char_traits@D@std@@V?$allocator@D@2@@std@@@2@V?$allocator@U?$pair@$$CBV?$basic_string@DU?$char_traits@D@std@@V?$allocator@D@2@@std@@H@std@@@2@$0A@@std@@@std@@IEAA?AU?$pair@V?$_Tree_iterator@V?$_Tree_val@U?$_Tree_simple_types@U?$pair@$$CBV?$basic_string@DU?$char_traits@D@std@@V?$allocator@D@2@@std@@H@std@@@std@@@std@@@std@@_N@1@_NAEAU?$pair@$$CBV?$basic_string@DU?$char_traits@D@std@@V?$allocator@D@2@@std@@H@1@PEAU?$_Tree_node@U?$pair@$$CBV?$basic_string@DU?$char_traits@D@std@@V?$allocator@D@2@@std@@H@std@@PEAX@1@@Z 0000000180013950 f i IocpServer.obj
 0001:00012be0       ??$_Iter_cat@V?$_Tree_iterator@V?$_Tree_val@U?$_Tree_simple_types@U?$pair@$$CBV?$basic_string@DU?$char_traits@D@std@@V?$allocator@D@2@@std@@H@std@@@std@@@std@@@std@@@std@@YA?AUbidirectional_iterator_tag@0@AEBV?$_Tree_iterator@V?$_Tree_val@U?$_Tree_simple_types@U?$pair@$$CBV?$basic_string@DU?$char_traits@D@std@@V?$allocator@D@2@@std@@H@std@@@std@@@std@@@0@@Z 0000000180013be0 f i IocpServer.obj
 0001:00012bf0       ??$_Kfn@$$CBV?$basic_string@DU?$char_traits@D@std@@V?$allocator@D@2@@std@@H@?$_Tmap_traits@V?$basic_string@DU?$char_traits@D@std@@V?$allocator@D@2@@std@@HU?$less@V?$basic_string@DU?$char_traits@D@std@@V?$allocator@D@2@@std@@@2@V?$allocator@U?$pair@$$CBV?$basic_string@DU?$char_traits@D@std@@V?$allocator@D@2@@std@@H@std@@@2@$0A@@std@@SAAEBV?$basic_string@DU?$char_traits@D@std@@V?$allocator@D@2@@1@AEBU?$pair@$$CBV?$basic_string@DU?$char_traits@D@std@@V?$allocator@D@2@@std@@H@1@@Z 0000000180013bf0 f i IocpServer.obj
 0001:00012c00       ??$addressof@PEAU?$_Tree_node@U?$pair@$$CBV?$basic_string@DU?$char_traits@D@std@@V?$allocator@D@2@@std@@H@std@@PEAX@std@@@std@@YAPEAPEAU?$_Tree_node@U?$pair@$$CBV?$basic_string@DU?$char_traits@D@std@@V?$allocator@D@2@@std@@H@std@@PEAX@0@AEAPEAU10@@Z 0000000180013c00 f i IocpServer.obj
 0001:00012c10       ??$addressof@U?$pair@$$CBV?$basic_string@DU?$char_traits@D@std@@V?$allocator@D@2@@std@@H@std@@@std@@YAPEAU?$pair@$$CBV?$basic_string@DU?$char_traits@D@std@@V?$allocator@D@2@@std@@H@0@AEAU10@@Z 0000000180013c10 f i IocpServer.obj
 0001:00012c20       ??$construct@PEAU?$_Tree_node@U?$pair@$$CBV?$basic_string@DU?$char_traits@D@std@@V?$allocator@D@2@@std@@H@std@@PEAX@std@@AEAPEAU12@@?$_Wrap_alloc@V?$allocator@U?$_Tree_node@U?$pair@$$CBV?$basic_string@DU?$char_traits@D@std@@V?$allocator@D@2@@std@@H@std@@PEAX@std@@@std@@@std@@QEAAXPEAPEAU?$_Tree_node@U?$pair@$$CBV?$basic_string@DU?$char_traits@D@std@@V?$allocator@D@2@@std@@H@std@@PEAX@1@AEAPEAU21@@Z 0000000180013c20 f i IocpServer.obj
 0001:00012c30       ??$construct@PEAU?$_Tree_node@U?$pair@$$CBV?$basic_string@DU?$char_traits@D@std@@V?$allocator@D@2@@std@@H@std@@PEAX@std@@AEAPEAU12@@?$allocator@U?$_Tree_node@U?$pair@$$CBV?$basic_string@DU?$char_traits@D@std@@V?$allocator@D@2@@std@@H@std@@PEAX@std@@@std@@QEAAXPEAPEAU?$_Tree_node@U?$pair@$$CBV?$basic_string@DU?$char_traits@D@std@@V?$allocator@D@2@@std@@H@std@@PEAX@1@AEAPEAU21@@Z 0000000180013c30 f i IocpServer.obj
 0001:00012c40       ??$construct@PEAU?$_Tree_node@U?$pair@$$CBV?$basic_string@DU?$char_traits@D@std@@V?$allocator@D@2@@std@@H@std@@PEAX@std@@AEAPEAU12@@?$allocator_traits@V?$allocator@U?$_Tree_node@U?$pair@$$CBV?$basic_string@DU?$char_traits@D@std@@V?$allocator@D@2@@std@@H@std@@PEAX@std@@@std@@@std@@SAXAEAV?$allocator@U?$_Tree_node@U?$pair@$$CBV?$basic_string@DU?$char_traits@D@std@@V?$allocator@D@2@@std@@H@std@@PEAX@std@@@1@PEAPEAU?$_Tree_node@U?$pair@$$CBV?$basic_string@DU?$char_traits@D@std@@V?$allocator@D@2@@std@@H@std@@PEAX@1@AEAPEAU31@@Z 0000000180013c40 f i IocpServer.obj
 0001:00012c50       ??$construct@U?$pair@$$CBV?$basic_string@DU?$char_traits@D@std@@V?$allocator@D@2@@std@@H@std@@AEAU12@@?$_Wrap_alloc@V?$allocator@U?$_Tree_node@U?$pair@$$CBV?$basic_string@DU?$char_traits@D@std@@V?$allocator@D@2@@std@@H@std@@PEAX@std@@@std@@@std@@QEAAXPEAU?$pair@$$CBV?$basic_string@DU?$char_traits@D@std@@V?$allocator@D@2@@std@@H@1@AEAU21@@Z 0000000180013c50 f i IocpServer.obj
 0001:00012cb0       ??$construct@U?$pair@$$CBV?$basic_string@DU?$char_traits@D@std@@V?$allocator@D@2@@std@@H@std@@AEAU12@@?$allocator@U?$_Tree_node@U?$pair@$$CBV?$basic_string@DU?$char_traits@D@std@@V?$allocator@D@2@@std@@H@std@@PEAX@std@@@std@@QEAAXPEAU?$pair@$$CBV?$basic_string@DU?$char_traits@D@std@@V?$allocator@D@2@@std@@H@1@AEAU21@@Z 0000000180013cb0 f i IocpServer.obj
 0001:00012d10       ??$construct@U?$pair@$$CBV?$basic_string@DU?$char_traits@D@std@@V?$allocator@D@2@@std@@H@std@@AEAU12@@?$allocator_traits@V?$allocator@U?$_Tree_node@U?$pair@$$CBV?$basic_string@DU?$char_traits@D@std@@V?$allocator@D@2@@std@@H@std@@PEAX@std@@@std@@@std@@SAXAEAV?$allocator@U?$_Tree_node@U?$pair@$$CBV?$basic_string@DU?$char_traits@D@std@@V?$allocator@D@2@@std@@H@std@@PEAX@std@@@1@PEAU?$pair@$$CBV?$basic_string@DU?$char_traits@D@std@@V?$allocator@D@2@@std@@H@1@AEAU31@@Z 0000000180013d10 f i IocpServer.obj
 0001:00012d70       ??$construct@U?$pair@$$CBV?$basic_string@DU?$char_traits@D@std@@V?$allocator@D@2@@std@@H@std@@U?$pair@PEBDH@2@@?$_Wrap_alloc@V?$allocator@U?$_Tree_node@U?$pair@$$CBV?$basic_string@DU?$char_traits@D@std@@V?$allocator@D@2@@std@@H@std@@PEAX@std@@@std@@@std@@QEAAXPEAU?$pair@$$CBV?$basic_string@DU?$char_traits@D@std@@V?$allocator@D@2@@std@@H@1@$$QEAU?$pair@PEBDH@1@@Z 0000000180013d70 f i IocpServer.obj
 0001:00012de0       ??$construct@U?$pair@$$CBV?$basic_string@DU?$char_traits@D@std@@V?$allocator@D@2@@std@@H@std@@U?$pair@PEBDH@2@@?$allocator@U?$_Tree_node@U?$pair@$$CBV?$basic_string@DU?$char_traits@D@std@@V?$allocator@D@2@@std@@H@std@@PEAX@std@@@std@@QEAAXPEAU?$pair@$$CBV?$basic_string@DU?$char_traits@D@std@@V?$allocator@D@2@@std@@H@1@$$QEAU?$pair@PEBDH@1@@Z 0000000180013de0 f i IocpServer.obj
 0001:00012e50       ??$construct@U?$pair@$$CBV?$basic_string@DU?$char_traits@D@std@@V?$allocator@D@2@@std@@H@std@@U?$pair@PEBDH@2@@?$allocator_traits@V?$allocator@U?$_Tree_node@U?$pair@$$CBV?$basic_string@DU?$char_traits@D@std@@V?$allocator@D@2@@std@@H@std@@PEAX@std@@@std@@@std@@SAXAEAV?$allocator@U?$_Tree_node@U?$pair@$$CBV?$basic_string@DU?$char_traits@D@std@@V?$allocator@D@2@@std@@H@std@@PEAX@std@@@1@PEAU?$pair@$$CBV?$basic_string@DU?$char_traits@D@std@@V?$allocator@D@2@@std@@H@1@$$QEAU?$pair@PEBDH@1@@Z 0000000180013e50 f i IocpServer.obj
 0001:00012ec0       ??$destroy@PEAU?$_Tree_node@U?$pair@$$CBV?$basic_string@DU?$char_traits@D@std@@V?$allocator@D@2@@std@@H@std@@PEAX@std@@@?$_Wrap_alloc@V?$allocator@U?$_Tree_node@U?$pair@$$CBV?$basic_string@DU?$char_traits@D@std@@V?$allocator@D@2@@std@@H@std@@PEAX@std@@@std@@@std@@QEAAXPEAPEAU?$_Tree_node@U?$pair@$$CBV?$basic_string@DU?$char_traits@D@std@@V?$allocator@D@2@@std@@H@std@@PEAX@1@@Z 0000000180013ec0 f i IocpServer.obj
 0001:00012ed0       ??$destroy@PEAU?$_Tree_node@U?$pair@$$CBV?$basic_string@DU?$char_traits@D@std@@V?$allocator@D@2@@std@@H@std@@PEAX@std@@@?$allocator@U?$_Tree_node@U?$pair@$$CBV?$basic_string@DU?$char_traits@D@std@@V?$allocator@D@2@@std@@H@std@@PEAX@std@@@std@@QEAAXPEAPEAU?$_Tree_node@U?$pair@$$CBV?$basic_string@DU?$char_traits@D@std@@V?$allocator@D@2@@std@@H@std@@PEAX@1@@Z 0000000180013ed0 f i IocpServer.obj
 0001:00012ee0       ??$destroy@PEAU?$_Tree_node@U?$pair@$$CBV?$basic_string@DU?$char_traits@D@std@@V?$allocator@D@2@@std@@H@std@@PEAX@std@@@?$allocator_traits@V?$allocator@U?$_Tree_node@U?$pair@$$CBV?$basic_string@DU?$char_traits@D@std@@V?$allocator@D@2@@std@@H@std@@PEAX@std@@@std@@@std@@SAXAEAV?$allocator@U?$_Tree_node@U?$pair@$$CBV?$basic_string@DU?$char_traits@D@std@@V?$allocator@D@2@@std@@H@std@@PEAX@std@@@1@PEAPEAU?$_Tree_node@U?$pair@$$CBV?$basic_string@DU?$char_traits@D@std@@V?$allocator@D@2@@std@@H@std@@PEAX@1@@Z 0000000180013ee0 f i IocpServer.obj
 0001:00012ef0       ??$destroy@U?$pair@$$CBV?$basic_string@DU?$char_traits@D@std@@V?$allocator@D@2@@std@@H@std@@@?$_Wrap_alloc@V?$allocator@U?$_Tree_node@U?$pair@$$CBV?$basic_string@DU?$char_traits@D@std@@V?$allocator@D@2@@std@@H@std@@PEAX@std@@@std@@@std@@QEAAXPEAU?$pair@$$CBV?$basic_string@DU?$char_traits@D@std@@V?$allocator@D@2@@std@@H@1@@Z 0000000180013ef0 f i IocpServer.obj
 0001:00012f30       ??$destroy@U?$pair@$$CBV?$basic_string@DU?$char_traits@D@std@@V?$allocator@D@2@@std@@H@std@@@?$allocator@U?$_Tree_node@U?$pair@$$CBV?$basic_string@DU?$char_traits@D@std@@V?$allocator@D@2@@std@@H@std@@PEAX@std@@@std@@QEAAXPEAU?$pair@$$CBV?$basic_string@DU?$char_traits@D@std@@V?$allocator@D@2@@std@@H@1@@Z 0000000180013f30 f i IocpServer.obj
 0001:00012f70       ??$destroy@U?$pair@$$CBV?$basic_string@DU?$char_traits@D@std@@V?$allocator@D@2@@std@@H@std@@@?$allocator_traits@V?$allocator@U?$_Tree_node@U?$pair@$$CBV?$basic_string@DU?$char_traits@D@std@@V?$allocator@D@2@@std@@H@std@@PEAX@std@@@std@@@std@@SAXAEAV?$allocator@U?$_Tree_node@U?$pair@$$CBV?$basic_string@DU?$char_traits@D@std@@V?$allocator@D@2@@std@@H@std@@PEAX@std@@@1@PEAU?$pair@$$CBV?$basic_string@DU?$char_traits@D@std@@V?$allocator@D@2@@std@@H@1@@Z 0000000180013f70 f i IocpServer.obj
 0001:00012fb0       ??$forward@AEAPEAU?$_Tree_node@U?$pair@$$CBV?$basic_string@DU?$char_traits@D@std@@V?$allocator@D@2@@std@@H@std@@PEAX@std@@@std@@YAAEAPEAU?$_Tree_node@U?$pair@$$CBV?$basic_string@DU?$char_traits@D@std@@V?$allocator@D@2@@std@@H@std@@PEAX@0@AEAPEAU10@@Z 0000000180013fb0 f i IocpServer.obj
 0001:00012fc0       ??$forward@AEAPEBD@std@@YAAEAPEBDAEAPEBD@Z 0000000180013fc0 f i IocpServer.obj
 0001:00012fd0       ??$forward@AEAU?$pair@$$CBV?$basic_string@DU?$char_traits@D@std@@V?$allocator@D@2@@std@@H@std@@@std@@YAAEAU?$pair@$$CBV?$basic_string@DU?$char_traits@D@std@@V?$allocator@D@2@@std@@H@0@AEAU10@@Z 0000000180013fd0 f i IocpServer.obj
 0001:00012fe0       ??$forward@AEAV?$_Tree_iterator@V?$_Tree_val@U?$_Tree_simple_types@U?$pair@$$CBV?$basic_string@DU?$char_traits@D@std@@V?$allocator@D@2@@std@@H@std@@@std@@@std@@@std@@@std@@YAAEAV?$_Tree_iterator@V?$_Tree_val@U?$_Tree_simple_types@U?$pair@$$CBV?$basic_string@DU?$char_traits@D@std@@V?$allocator@D@2@@std@@H@std@@@std@@@std@@@0@AEAV10@@Z 0000000180013fe0 f i IocpServer.obj
 0001:00012ff0       ??$forward@PEBD@std@@YA$$QEAPEBDAEAPEBD@Z 0000000180013ff0 f i IocpServer.obj
 0001:00013000       ??$forward@U?$pair@PEBDH@std@@@std@@YA$$QEAU?$pair@PEBDH@0@AEAU10@@Z 0000000180014000 f i IocpServer.obj
 0001:00013010       ??$forward@V?$_Tree_iterator@V?$_Tree_val@U?$_Tree_simple_types@U?$pair@$$CBV?$basic_string@DU?$char_traits@D@std@@V?$allocator@D@2@@std@@H@std@@@std@@@std@@@std@@@std@@YA$$QEAV?$_Tree_iterator@V?$_Tree_val@U?$_Tree_simple_types@U?$pair@$$CBV?$basic_string@DU?$char_traits@D@std@@V?$allocator@D@2@@std@@H@std@@@std@@@std@@@0@AEAV10@@Z 0000000180014010 f i IocpServer.obj
 0001:00013020       ??$insert@U?$pair@PEBDH@std@@@?$_Tree@V?$_Tmap_traits@V?$basic_string@DU?$char_traits@D@std@@V?$allocator@D@2@@std@@HU?$less@V?$basic_string@DU?$char_traits@D@std@@V?$allocator@D@2@@std@@@2@V?$allocator@U?$pair@$$CBV?$basic_string@DU?$char_traits@D@std@@V?$allocator@D@2@@std@@H@std@@@2@$0A@@std@@@std@@QEAA?AU?$pair@V?$_Tree_iterator@V?$_Tree_val@U?$_Tree_simple_types@U?$pair@$$CBV?$basic_string@DU?$char_traits@D@std@@V?$allocator@D@2@@std@@H@std@@@std@@@std@@@std@@_N@1@$$QEAU?$pair@PEBDH@1@@Z 0000000180014020 f i IocpServer.obj
 0001:00013060       ??$make_pair@AEAPEBDH@std@@YA?AU?$pair@PEBDH@0@AEAPEBD$$QEAH@Z 0000000180014060 f i IocpServer.obj
 0001:00013070       ??0?$_Tree@V?$_Tmap_traits@V?$basic_string@DU?$char_traits@D@std@@V?$allocator@D@2@@std@@HU?$less@V?$basic_string@DU?$char_traits@D@std@@V?$allocator@D@2@@std@@@2@V?$allocator@U?$pair@$$CBV?$basic_string@DU?$char_traits@D@std@@V?$allocator@D@2@@std@@H@std@@@2@$0A@@std@@@std@@QEAA@AEBU?$less@V?$basic_string@DU?$char_traits@D@std@@V?$allocator@D@2@@std@@@1@AEBV?$allocator@U?$pair@$$CBV?$basic_string@DU?$char_traits@D@std@@V?$allocator@D@2@@std@@H@std@@@1@@Z 0000000180014070 f i IocpServer.obj
 0001:000130a0       ??0?$_Tree@V?$_Tmap_traits@V?$basic_string@DU?$char_traits@D@std@@V?$allocator@D@2@@std@@HU?$less@V?$basic_string@DU?$char_traits@D@std@@V?$allocator@D@2@@std@@@2@V?$allocator@U?$pair@$$CBV?$basic_string@DU?$char_traits@D@std@@V?$allocator@D@2@@std@@H@std@@@2@$0A@@std@@@std@@QEAA@AEBV01@AEBV?$allocator@U?$pair@$$CBV?$basic_string@DU?$char_traits@D@std@@V?$allocator@D@2@@std@@H@std@@@1@@Z 00000001800140a0 f i IocpServer.obj
 0001:000130f0       ??0?$_Tree_alloc@$0A@U?$_Tree_base_types@U?$pair@$$CBV?$basic_string@DU?$char_traits@D@std@@V?$allocator@D@2@@std@@H@std@@V?$allocator@U?$pair@$$CBV?$basic_string@DU?$char_traits@D@std@@V?$allocator@D@2@@std@@H@std@@@2@@std@@@std@@QEAA@AEBV?$allocator@U?$pair@$$CBV?$basic_string@DU?$char_traits@D@std@@V?$allocator@D@2@@std@@H@std@@@1@@Z 00000001800140f0 f i IocpServer.obj
 0001:00013120       ??0?$_Tree_buy@U?$pair@$$CBV?$basic_string@DU?$char_traits@D@std@@V?$allocator@D@2@@std@@H@std@@V?$allocator@U?$pair@$$CBV?$basic_string@DU?$char_traits@D@std@@V?$allocator@D@2@@std@@H@std@@@2@@std@@QEAA@AEBV?$allocator@U?$pair@$$CBV?$basic_string@DU?$char_traits@D@std@@V?$allocator@D@2@@std@@H@std@@@1@@Z 0000000180014120 f i IocpServer.obj
 0001:00013150       ??0?$_Tree_comp@$0A@V?$_Tmap_traits@V?$basic_string@DU?$char_traits@D@std@@V?$allocator@D@2@@std@@HU?$less@V?$basic_string@DU?$char_traits@D@std@@V?$allocator@D@2@@std@@@2@V?$allocator@U?$pair@$$CBV?$basic_string@DU?$char_traits@D@std@@V?$allocator@D@2@@std@@H@std@@@2@$0A@@std@@@std@@QEAA@AEBU?$less@V?$basic_string@DU?$char_traits@D@std@@V?$allocator@D@2@@std@@@1@AEBV?$allocator@U?$pair@$$CBV?$basic_string@DU?$char_traits@D@std@@V?$allocator@D@2@@std@@H@std@@@1@@Z 0000000180014150 f i IocpServer.obj
 0001:00013180       ??0?$_Tree_const_iterator@V?$_Tree_val@U?$_Tree_simple_types@U?$pair@$$CBV?$basic_string@DU?$char_traits@D@std@@V?$allocator@D@2@@std@@H@std@@@std@@@std@@@std@@QEAA@PEAU?$_Tree_node@U?$pair@$$CBV?$basic_string@DU?$char_traits@D@std@@V?$allocator@D@2@@std@@H@std@@PEAX@1@PEBV?$_Tree_val@U?$_Tree_simple_types@U?$pair@$$CBV?$basic_string@DU?$char_traits@D@std@@V?$allocator@D@2@@std@@H@std@@@std@@@1@@Z 0000000180014180 f i IocpServer.obj
 0001:00013190       ??0?$_Tree_iterator@V?$_Tree_val@U?$_Tree_simple_types@U?$pair@$$CBV?$basic_string@DU?$char_traits@D@std@@V?$allocator@D@2@@std@@H@std@@@std@@@std@@@std@@QEAA@PEAU?$_Tree_node@U?$pair@$$CBV?$basic_string@DU?$char_traits@D@std@@V?$allocator@D@2@@std@@H@std@@PEAX@1@PEBV?$_Tree_val@U?$_Tree_simple_types@U?$pair@$$CBV?$basic_string@DU?$char_traits@D@std@@V?$allocator@D@2@@std@@H@std@@@std@@@1@@Z 0000000180014190 f i IocpServer.obj
 0001:000131a0       ??0?$_Tree_unchecked_const_iterator@V?$_Tree_val@U?$_Tree_simple_types@U?$pair@$$CBV?$basic_string@DU?$char_traits@D@std@@V?$allocator@D@2@@std@@H@std@@@std@@@std@@U_Iterator_base0@2@@std@@QEAA@PEAU?$_Tree_node@U?$pair@$$CBV?$basic_string@DU?$char_traits@D@std@@V?$allocator@D@2@@std@@H@std@@PEAX@1@PEBV?$_Tree_val@U?$_Tree_simple_types@U?$pair@$$CBV?$basic_string@DU?$char_traits@D@std@@V?$allocator@D@2@@std@@H@std@@@std@@@1@@Z 00000001800141a0 f i IocpServer.obj
 0001:000131b0       ??0?$_Tree_val@U?$_Tree_simple_types@U?$pair@$$CBV?$basic_string@DU?$char_traits@D@std@@V?$allocator@D@2@@std@@H@std@@@std@@@std@@QEAA@XZ 00000001800141b0 f i IocpServer.obj
 0001:000131c0       ??0?$_Wrap_alloc@V?$allocator@D@std@@@std@@QEAA@AEBV?$allocator@D@1@@Z 00000001800141c0 f i IocpServer.obj
 0001:000131d0       ??0?$_Wrap_alloc@V?$allocator@U?$_Tree_node@U?$pair@$$CBV?$basic_string@DU?$char_traits@D@std@@V?$allocator@D@2@@std@@H@std@@PEAX@std@@@std@@@std@@QEAA@AEBV?$allocator@U?$_Tree_node@U?$pair@$$CBV?$basic_string@DU?$char_traits@D@std@@V?$allocator@D@2@@std@@H@std@@PEAX@std@@@1@@Z 00000001800141d0 f i IocpServer.obj
 0001:000131e0       ??0?$_Wrap_alloc@V?$allocator@U?$_Tree_node@U?$pair@$$CBV?$basic_string@DU?$char_traits@D@std@@V?$allocator@D@2@@std@@H@std@@PEAX@std@@@std@@@std@@QEAA@XZ 00000001800141e0 f i IocpServer.obj
 0001:000131f0       ??0?$allocator@D@std@@QEAA@AEBV01@@Z 00000001800141f0 f i IocpServer.obj
 0001:00013200       ??0?$allocator@U?$_Tree_node@U?$pair@$$CBV?$basic_string@DU?$char_traits@D@std@@V?$allocator@D@2@@std@@H@std@@PEAX@std@@@std@@QEAA@AEBV01@@Z 0000000180014200 f i IocpServer.obj
 0001:00013210       ??0?$allocator@U?$_Tree_node@U?$pair@$$CBV?$basic_string@DU?$char_traits@D@std@@V?$allocator@D@2@@std@@H@std@@PEAX@std@@@std@@QEAA@XZ 0000000180014210 f i IocpServer.obj
 0001:00013220       ??0?$allocator@U?$pair@$$CBV?$basic_string@DU?$char_traits@D@std@@V?$allocator@D@2@@std@@H@std@@@std@@QEAA@XZ 0000000180014220 f i IocpServer.obj
 0001:00013230       ??0?$basic_string@DU?$char_traits@D@std@@V?$allocator@D@2@@std@@QEAA@AEBV01@@Z 0000000180014230 f i IocpServer.obj
 0001:00013270       ??0?$map@V?$basic_string@DU?$char_traits@D@std@@V?$allocator@D@2@@std@@HU?$less@V?$basic_string@DU?$char_traits@D@std@@V?$allocator@D@2@@std@@@2@V?$allocator@U?$pair@$$CBV?$basic_string@DU?$char_traits@D@std@@V?$allocator@D@2@@std@@H@std@@@2@@std@@QEAA@AEBV01@@Z 0000000180014270 f i IocpServer.obj
 0001:00013290       ??0?$map@V?$basic_string@DU?$char_traits@D@std@@V?$allocator@D@2@@std@@HU?$less@V?$basic_string@DU?$char_traits@D@std@@V?$allocator@D@2@@std@@@2@V?$allocator@U?$pair@$$CBV?$basic_string@DU?$char_traits@D@std@@V?$allocator@D@2@@std@@H@std@@@2@@std@@QEAA@XZ 0000000180014290 f i IocpServer.obj
 0001:000132c0       ??0?$pair@$$CBV?$basic_string@DU?$char_traits@D@std@@V?$allocator@D@2@@std@@H@std@@QEAA@AEBU01@@Z 00000001800142c0 f i IocpServer.obj
 0001:00013310       ??0CIocpServer@@QEAA@AEBV0@@Z 0000000180014310 f i IocpServer.obj
 0001:00013320       ??0CIocpServer@@QEAA@XZ    0000000180014320 f   IocpServer.obj
 0001:00013330       ??0CIocpServerFactory@@QEAA@AEBV0@@Z 0000000180014330 f i IocpServer.obj
 0001:00013340       ??0CIocpServerFactory@@QEAA@XZ 0000000180014340 f   IocpServer.obj
 0001:00013350       ??1?$_Tree@V?$_Tmap_traits@V?$basic_string@DU?$char_traits@D@std@@V?$allocator@D@2@@std@@HU?$less@V?$basic_string@DU?$char_traits@D@std@@V?$allocator@D@2@@std@@@2@V?$allocator@U?$pair@$$CBV?$basic_string@DU?$char_traits@D@std@@V?$allocator@D@2@@std@@H@std@@@2@$0A@@std@@@std@@QEAA@XZ 0000000180014350 f i IocpServer.obj
 0001:00013380       ??1?$_Tree_alloc@$0A@U?$_Tree_base_types@U?$pair@$$CBV?$basic_string@DU?$char_traits@D@std@@V?$allocator@D@2@@std@@H@std@@V?$allocator@U?$pair@$$CBV?$basic_string@DU?$char_traits@D@std@@V?$allocator@D@2@@std@@H@std@@@2@@std@@@std@@QEAA@XZ 0000000180014380 f i IocpServer.obj
 0001:00013390       ??1?$_Tree_buy@U?$pair@$$CBV?$basic_string@DU?$char_traits@D@std@@V?$allocator@D@2@@std@@H@std@@V?$allocator@U?$pair@$$CBV?$basic_string@DU?$char_traits@D@std@@V?$allocator@D@2@@std@@H@std@@@2@@std@@QEAA@XZ 0000000180014390 f i IocpServer.obj
 0001:000133a0       ??1?$_Tree_comp@$0A@V?$_Tmap_traits@V?$basic_string@DU?$char_traits@D@std@@V?$allocator@D@2@@std@@HU?$less@V?$basic_string@DU?$char_traits@D@std@@V?$allocator@D@2@@std@@@2@V?$allocator@U?$pair@$$CBV?$basic_string@DU?$char_traits@D@std@@V?$allocator@D@2@@std@@H@std@@@2@$0A@@std@@@std@@QEAA@XZ 00000001800143a0 f i IocpServer.obj
 0001:000133b0       ??1?$map@V?$basic_string@DU?$char_traits@D@std@@V?$allocator@D@2@@std@@HU?$less@V?$basic_string@DU?$char_traits@D@std@@V?$allocator@D@2@@std@@@2@V?$allocator@U?$pair@$$CBV?$basic_string@DU?$char_traits@D@std@@V?$allocator@D@2@@std@@H@std@@@2@@std@@QEAA@XZ 00000001800143b0 f i IocpServer.obj
 0001:000133e0       ??1?$pair@$$CBV?$basic_string@DU?$char_traits@D@std@@V?$allocator@D@2@@std@@H@std@@QEAA@XZ 00000001800143e0 f i IocpServer.obj
 0001:00013420       ??1CIocpServer@@UEAA@XZ    0000000180014420 f   IocpServer.obj
 0001:00013430       ??1CIocpServerFactory@@UEAA@XZ 0000000180014430 f   IocpServer.obj
 0001:00013440       ??4CIocpServer@@QEAAAEAV0@AEBV0@@Z 0000000180014440 f i IocpServer.obj
 0001:00013450       ??4CIocpServerFactory@@QEAAAEAV0@AEBV0@@Z 0000000180014450 f i IocpServer.obj
 0001:00013460       ??8?$_Tree_const_iterator@V?$_Tree_val@U?$_Tree_simple_types@U?$pair@$$CBV?$basic_string@DU?$char_traits@D@std@@V?$allocator@D@2@@std@@H@std@@@std@@@std@@@std@@QEBA_NAEBV01@@Z 0000000180014460 f i IocpServer.obj
 0001:00013470       ??9?$_Tree_const_iterator@V?$_Tree_val@U?$_Tree_simple_types@U?$pair@$$CBV?$basic_string@DU?$char_traits@D@std@@V?$allocator@D@2@@std@@H@std@@@std@@@std@@@std@@QEBA_NAEBV01@@Z 0000000180014470 f i IocpServer.obj
 0001:00013480       ??E?$_Tree_const_iterator@V?$_Tree_val@U?$_Tree_simple_types@U?$pair@$$CBV?$basic_string@DU?$char_traits@D@std@@V?$allocator@D@2@@std@@H@std@@@std@@@std@@@std@@QEAA?AV01@H@Z 0000000180014480 f i IocpServer.obj
 0001:000134e0       ??E?$_Tree_const_iterator@V?$_Tree_val@U?$_Tree_simple_types@U?$pair@$$CBV?$basic_string@DU?$char_traits@D@std@@V?$allocator@D@2@@std@@H@std@@@std@@@std@@@std@@QEAAAEAV01@XZ 00000001800144e0 f i IocpServer.obj
 0001:00013540       ??E?$_Tree_iterator@V?$_Tree_val@U?$_Tree_simple_types@U?$pair@$$CBV?$basic_string@DU?$char_traits@D@std@@V?$allocator@D@2@@std@@H@std@@@std@@@std@@@std@@QEAAAEAV01@XZ 0000000180014540 f i IocpServer.obj
 0001:000135a0       ??E?$_Tree_unchecked_const_iterator@V?$_Tree_val@U?$_Tree_simple_types@U?$pair@$$CBV?$basic_string@DU?$char_traits@D@std@@V?$allocator@D@2@@std@@H@std@@@std@@@std@@U_Iterator_base0@2@@std@@QEAAAEAV01@XZ 00000001800145a0 f i IocpServer.obj
 0001:00013600       ??F?$_Tree_const_iterator@V?$_Tree_val@U?$_Tree_simple_types@U?$pair@$$CBV?$basic_string@DU?$char_traits@D@std@@V?$allocator@D@2@@std@@H@std@@@std@@@std@@@std@@QEAAAEAV01@XZ 0000000180014600 f i IocpServer.obj
 0001:00013620       ??F?$_Tree_iterator@V?$_Tree_val@U?$_Tree_simple_types@U?$pair@$$CBV?$basic_string@DU?$char_traits@D@std@@V?$allocator@D@2@@std@@H@std@@@std@@@std@@@std@@QEAAAEAV01@XZ 0000000180014620 f i IocpServer.obj
 0001:00013640       ??F?$_Tree_unchecked_const_iterator@V?$_Tree_val@U?$_Tree_simple_types@U?$pair@$$CBV?$basic_string@DU?$char_traits@D@std@@V?$allocator@D@2@@std@@H@std@@@std@@@std@@U_Iterator_base0@2@@std@@QEAAAEAV01@XZ 0000000180014640 f i IocpServer.obj
 0001:000136c0       ??R?$less@V?$basic_string@DU?$char_traits@D@std@@V?$allocator@D@2@@std@@@std@@QEBA_NAEBV?$basic_string@DU?$char_traits@D@std@@V?$allocator@D@2@@1@0@Z 00000001800146c0 f i IocpServer.obj
 0001:000136e0       ??_ECIocpServer@@UEAAPEAXI@Z 00000001800146e0 f i IocpServer.obj
 0001:00013760       ??_ECIocpServerFactory@@UEAAPEAXI@Z 0000000180014760 f i IocpServer.obj
 0001:000137e0       ??_G?$pair@$$CBV?$basic_string@DU?$char_traits@D@std@@V?$allocator@D@2@@std@@H@std@@QEAAPEAXI@Z 00000001800147e0 f i IocpServer.obj
 0001:00013830       ??_GCIocpServer@@UEAAPEAXI@Z 0000000180014830 f i IocpServer.obj
 0001:00013860       ??_GCIocpServerFactory@@UEAAPEAXI@Z 0000000180014860 f i IocpServer.obj
 0001:00013890       ?AddBlackIP@CIocpServer@@SAHPEBD@Z 0000000180014890 f   IocpServer.obj
 0001:00013910       ?DelBlackIP@CIocpServer@@SAXPEBD@Z 0000000180014910 f   IocpServer.obj
 0001:00013b50       ?Destroy@CIocpServerFactory@@SAXPEAVCIocpServer@@@Z 0000000180014b50 f   IocpServer.obj
 0001:00013b70       ?GetBlackIP@CIocpServer@@SA?AV?$map@V?$basic_string@DU?$char_traits@D@std@@V?$allocator@D@2@@std@@HU?$less@V?$basic_string@DU?$char_traits@D@std@@V?$allocator@D@2@@std@@@2@V?$allocator@U?$pair@$$CBV?$basic_string@DU?$char_traits@D@std@@V?$allocator@D@2@@std@@H@std@@@2@@std@@XZ 0000000180014b70 f   IocpServer.obj
 0001:00013bd0       ?New@CIocpServerFactory@@SAPEAVCIocpServer@@XZ 0000000180014bd0 f   IocpServer.obj
 0001:00013c10       ?_Buyheadnode@?$_Tree_alloc@$0A@U?$_Tree_base_types@U?$pair@$$CBV?$basic_string@DU?$char_traits@D@std@@V?$allocator@D@2@@std@@H@std@@V?$allocator@U?$pair@$$CBV?$basic_string@DU?$char_traits@D@std@@V?$allocator@D@2@@std@@H@std@@@2@@std@@@std@@QEAAPEAU?$_Tree_node@U?$pair@$$CBV?$basic_string@DU?$char_traits@D@std@@V?$allocator@D@2@@std@@H@std@@PEAX@2@XZ 0000000180014c10 f i IocpServer.obj
 0001:00013c60       ?_Buynode0@?$_Tree_buy@U?$pair@$$CBV?$basic_string@DU?$char_traits@D@std@@V?$allocator@D@2@@std@@H@std@@V?$allocator@U?$pair@$$CBV?$basic_string@DU?$char_traits@D@std@@V?$allocator@D@2@@std@@H@std@@@2@@std@@QEAAPEAU?$_Tree_node@U?$pair@$$CBV?$basic_string@DU?$char_traits@D@std@@V?$allocator@D@2@@std@@H@std@@PEAX@2@XZ 0000000180014c60 f i IocpServer.obj
 0001:00013cc0       ?_Color@?$_Tree_val@U?$_Tree_simple_types@U?$pair@$$CBV?$basic_string@DU?$char_traits@D@std@@V?$allocator@D@2@@std@@H@std@@@std@@@std@@SAAEADPEAU?$_Tree_node@U?$pair@$$CBV?$basic_string@DU?$char_traits@D@std@@V?$allocator@D@2@@std@@H@std@@PEAX@2@@Z 0000000180014cc0 f i IocpServer.obj
 0001:00013cd0       ?_Destroy_if_not_nil@?$_Tree@V?$_Tmap_traits@V?$basic_string@DU?$char_traits@D@std@@V?$allocator@D@2@@std@@HU?$less@V?$basic_string@DU?$char_traits@D@std@@V?$allocator@D@2@@std@@@2@V?$allocator@U?$pair@$$CBV?$basic_string@DU?$char_traits@D@std@@V?$allocator@D@2@@std@@H@std@@@2@$0A@@std@@@std@@IEAAXPEAU?$_Tree_node@U?$pair@$$CBV?$basic_string@DU?$char_traits@D@std@@V?$allocator@D@2@@std@@H@std@@PEAX@2@@Z 0000000180014cd0 f i IocpServer.obj
 0001:00013d10       ?_Eqrange@?$_Tree@V?$_Tmap_traits@V?$basic_string@DU?$char_traits@D@std@@V?$allocator@D@2@@std@@HU?$less@V?$basic_string@DU?$char_traits@D@std@@V?$allocator@D@2@@std@@@2@V?$allocator@U?$pair@$$CBV?$basic_string@DU?$char_traits@D@std@@V?$allocator@D@2@@std@@H@std@@@2@$0A@@std@@@std@@IEAA?AU?$pair@V?$_Tree_iterator@V?$_Tree_val@U?$_Tree_simple_types@U?$pair@$$CBV?$basic_string@DU?$char_traits@D@std@@V?$allocator@D@2@@std@@H@std@@@std@@@std@@@std@@V12@@2@AEBV?$basic_string@DU?$char_traits@D@std@@V?$allocator@D@2@@2@@Z 0000000180014d10 f i IocpServer.obj
 0001:00013ee0       ?_Erase@?$_Tree@V?$_Tmap_traits@V?$basic_string@DU?$char_traits@D@std@@V?$allocator@D@2@@std@@HU?$less@V?$basic_string@DU?$char_traits@D@std@@V?$allocator@D@2@@std@@@2@V?$allocator@U?$pair@$$CBV?$basic_string@DU?$char_traits@D@std@@V?$allocator@D@2@@std@@H@std@@@2@$0A@@std@@@std@@IEAAXPEAU?$_Tree_node@U?$pair@$$CBV?$basic_string@DU?$char_traits@D@std@@V?$allocator@D@2@@std@@H@std@@PEAX@2@@Z 0000000180014ee0 f i IocpServer.obj
 0001:00013f70       ?_Freeheadnode@?$_Tree_alloc@$0A@U?$_Tree_base_types@U?$pair@$$CBV?$basic_string@DU?$char_traits@D@std@@V?$allocator@D@2@@std@@H@std@@V?$allocator@U?$pair@$$CBV?$basic_string@DU?$char_traits@D@std@@V?$allocator@D@2@@std@@H@std@@@2@@std@@@std@@QEAAXPEAU?$_Tree_node@U?$pair@$$CBV?$basic_string@DU?$char_traits@D@std@@V?$allocator@D@2@@std@@H@std@@PEAX@2@@Z 0000000180014f70 f i IocpServer.obj
 0001:00013f80       ?_Freenode0@?$_Tree_buy@U?$pair@$$CBV?$basic_string@DU?$char_traits@D@std@@V?$allocator@D@2@@std@@H@std@@V?$allocator@U?$pair@$$CBV?$basic_string@DU?$char_traits@D@std@@V?$allocator@D@2@@std@@H@std@@@2@@std@@QEAAXPEAU?$_Tree_node@U?$pair@$$CBV?$basic_string@DU?$char_traits@D@std@@V?$allocator@D@2@@std@@H@std@@PEAX@2@@Z 0000000180014f80 f i IocpServer.obj
 0001:00013f90       ?_Getal@?$_Tree_alloc@$0A@U?$_Tree_base_types@U?$pair@$$CBV?$basic_string@DU?$char_traits@D@std@@V?$allocator@D@2@@std@@H@std@@V?$allocator@U?$pair@$$CBV?$basic_string@DU?$char_traits@D@std@@V?$allocator@D@2@@std@@H@std@@@2@@std@@@std@@QEBA?AU?$_Wrap_alloc@V?$allocator@U?$_Tree_node@U?$pair@$$CBV?$basic_string@DU?$char_traits@D@std@@V?$allocator@D@2@@std@@H@std@@PEAX@std@@@std@@@2@XZ 0000000180014f90 f i IocpServer.obj
 0001:00013fa0       ?_Getcomp@?$_Tree_comp@$0A@V?$_Tmap_traits@V?$basic_string@DU?$char_traits@D@std@@V?$allocator@D@2@@std@@HU?$less@V?$basic_string@DU?$char_traits@D@std@@V?$allocator@D@2@@std@@@2@V?$allocator@U?$pair@$$CBV?$basic_string@DU?$char_traits@D@std@@V?$allocator@D@2@@std@@H@std@@@2@$0A@@std@@@std@@QEBA?AU?$less@V?$basic_string@DU?$char_traits@D@std@@V?$allocator@D@2@@std@@@2@XZ 0000000180014fa0 f i IocpServer.obj
 0001:00013fb0       ?_Isnil@?$_Tree_val@U?$_Tree_simple_types@U?$pair@$$CBV?$basic_string@DU?$char_traits@D@std@@V?$allocator@D@2@@std@@H@std@@@std@@@std@@SAAEADPEAU?$_Tree_node@U?$pair@$$CBV?$basic_string@DU?$char_traits@D@std@@V?$allocator@D@2@@std@@H@std@@PEAX@2@@Z 0000000180014fb0 f i IocpServer.obj
 0001:00013fc0       ?_Key@?$_Tree@V?$_Tmap_traits@V?$basic_string@DU?$char_traits@D@std@@V?$allocator@D@2@@std@@HU?$less@V?$basic_string@DU?$char_traits@D@std@@V?$allocator@D@2@@std@@@2@V?$allocator@U?$pair@$$CBV?$basic_string@DU?$char_traits@D@std@@V?$allocator@D@2@@std@@H@std@@@2@$0A@@std@@@std@@IEBAAEBV?$basic_string@DU?$char_traits@D@std@@V?$allocator@D@2@@2@PEAU?$_Tree_node@U?$pair@$$CBV?$basic_string@DU?$char_traits@D@std@@V?$allocator@D@2@@std@@H@std@@PEAX@2@@Z 0000000180014fc0 f i IocpServer.obj
 0001:00013fd0       ?_Kfn@?$_Tree@V?$_Tmap_traits@V?$basic_string@DU?$char_traits@D@std@@V?$allocator@D@2@@std@@HU?$less@V?$basic_string@DU?$char_traits@D@std@@V?$allocator@D@2@@std@@@2@V?$allocator@U?$pair@$$CBV?$basic_string@DU?$char_traits@D@std@@V?$allocator@D@2@@std@@H@std@@@2@$0A@@std@@@std@@IEBAAEBV?$basic_string@DU?$char_traits@D@std@@V?$allocator@D@2@@2@AEBU?$pair@$$CBV?$basic_string@DU?$char_traits@D@std@@V?$allocator@D@2@@std@@H@2@@Z 0000000180014fd0 f i IocpServer.obj
 0001:00013fe0       ?_Left@?$_Tree_val@U?$_Tree_simple_types@U?$pair@$$CBV?$basic_string@DU?$char_traits@D@std@@V?$allocator@D@2@@std@@H@std@@@std@@@std@@SAAEAPEAU?$_Tree_node@U?$pair@$$CBV?$basic_string@DU?$char_traits@D@std@@V?$allocator@D@2@@std@@H@std@@PEAX@2@PEAU32@@Z 0000000180014fe0 f i IocpServer.obj
 0001:00013ff0       ?_Lmost@?$_Tree@V?$_Tmap_traits@V?$basic_string@DU?$char_traits@D@std@@V?$allocator@D@2@@std@@HU?$less@V?$basic_string@DU?$char_traits@D@std@@V?$allocator@D@2@@std@@@2@V?$allocator@U?$pair@$$CBV?$basic_string@DU?$char_traits@D@std@@V?$allocator@D@2@@std@@H@std@@@2@$0A@@std@@@std@@IEBAAEAPEAU?$_Tree_node@U?$pair@$$CBV?$basic_string@DU?$char_traits@D@std@@V?$allocator@D@2@@std@@H@std@@PEAX@2@XZ 0000000180014ff0 f i IocpServer.obj
 0001:00014000       ?_Lrotate@?$_Tree@V?$_Tmap_traits@V?$basic_string@DU?$char_traits@D@std@@V?$allocator@D@2@@std@@HU?$less@V?$basic_string@DU?$char_traits@D@std@@V?$allocator@D@2@@std@@@2@V?$allocator@U?$pair@$$CBV?$basic_string@DU?$char_traits@D@std@@V?$allocator@D@2@@std@@H@std@@@2@$0A@@std@@@std@@IEAAXPEAU?$_Tree_node@U?$pair@$$CBV?$basic_string@DU?$char_traits@D@std@@V?$allocator@D@2@@std@@H@std@@PEAX@2@@Z 0000000180015000 f i IocpServer.obj
 0001:00014060       ?_Max@?$_Tree_val@U?$_Tree_simple_types@U?$pair@$$CBV?$basic_string@DU?$char_traits@D@std@@V?$allocator@D@2@@std@@H@std@@@std@@@std@@SAPEAU?$_Tree_node@U?$pair@$$CBV?$basic_string@DU?$char_traits@D@std@@V?$allocator@D@2@@std@@H@std@@PEAX@2@PEAU32@@Z 0000000180015060 f i IocpServer.obj
 0001:00014090       ?_Min@?$_Tree_val@U?$_Tree_simple_types@U?$pair@$$CBV?$basic_string@DU?$char_traits@D@std@@V?$allocator@D@2@@std@@H@std@@@std@@@std@@SAPEAU?$_Tree_node@U?$pair@$$CBV?$basic_string@DU?$char_traits@D@std@@V?$allocator@D@2@@std@@H@std@@PEAX@2@PEAU32@@Z 0000000180015090 f i IocpServer.obj
 0001:000140b0       ?_Mynode@?$_Tree_unchecked_const_iterator@V?$_Tree_val@U?$_Tree_simple_types@U?$pair@$$CBV?$basic_string@DU?$char_traits@D@std@@V?$allocator@D@2@@std@@H@std@@@std@@@std@@U_Iterator_base0@2@@std@@QEBAPEAU?$_Tree_node@U?$pair@$$CBV?$basic_string@DU?$char_traits@D@std@@V?$allocator@D@2@@std@@H@std@@PEAX@2@XZ 00000001800150b0 f i IocpServer.obj
 0001:000140c0       ?_Myval@?$_Tree_val@U?$_Tree_simple_types@U?$pair@$$CBV?$basic_string@DU?$char_traits@D@std@@V?$allocator@D@2@@std@@H@std@@@std@@@std@@SAAEAU?$pair@$$CBV?$basic_string@DU?$char_traits@D@std@@V?$allocator@D@2@@std@@H@2@PEAU?$_Tree_node@U?$pair@$$CBV?$basic_string@DU?$char_traits@D@std@@V?$allocator@D@2@@std@@H@std@@PEAX@2@@Z 00000001800150c0 f i IocpServer.obj
 0001:000140d0       ?_Parent@?$_Tree_val@U?$_Tree_simple_types@U?$pair@$$CBV?$basic_string@DU?$char_traits@D@std@@V?$allocator@D@2@@std@@H@std@@@std@@@std@@SAAEAPEAU?$_Tree_node@U?$pair@$$CBV?$basic_string@DU?$char_traits@D@std@@V?$allocator@D@2@@std@@H@std@@PEAX@2@PEAU32@@Z 00000001800150d0 f i IocpServer.obj
 0001:000140e0       ?_Right@?$_Tree_val@U?$_Tree_simple_types@U?$pair@$$CBV?$basic_string@DU?$char_traits@D@std@@V?$allocator@D@2@@std@@H@std@@@std@@@std@@SAAEAPEAU?$_Tree_node@U?$pair@$$CBV?$basic_string@DU?$char_traits@D@std@@V?$allocator@D@2@@std@@H@std@@PEAX@2@PEAU32@@Z 00000001800150e0 f i IocpServer.obj
 0001:000140f0       ?_Rmost@?$_Tree@V?$_Tmap_traits@V?$basic_string@DU?$char_traits@D@std@@V?$allocator@D@2@@std@@HU?$less@V?$basic_string@DU?$char_traits@D@std@@V?$allocator@D@2@@std@@@2@V?$allocator@U?$pair@$$CBV?$basic_string@DU?$char_traits@D@std@@V?$allocator@D@2@@std@@H@std@@@2@$0A@@std@@@std@@IEBAAEAPEAU?$_Tree_node@U?$pair@$$CBV?$basic_string@DU?$char_traits@D@std@@V?$allocator@D@2@@std@@H@std@@PEAX@2@XZ 00000001800150f0 f i IocpServer.obj
 0001:00014100       ?_Root@?$_Tree@V?$_Tmap_traits@V?$basic_string@DU?$char_traits@D@std@@V?$allocator@D@2@@std@@HU?$less@V?$basic_string@DU?$char_traits@D@std@@V?$allocator@D@2@@std@@@2@V?$allocator@U?$pair@$$CBV?$basic_string@DU?$char_traits@D@std@@V?$allocator@D@2@@std@@H@std@@@2@$0A@@std@@@std@@IEBAAEAPEAU?$_Tree_node@U?$pair@$$CBV?$basic_string@DU?$char_traits@D@std@@V?$allocator@D@2@@std@@H@std@@PEAX@2@XZ 0000000180015100 f i IocpServer.obj
 0001:00014110       ?_Rrotate@?$_Tree@V?$_Tmap_traits@V?$basic_string@DU?$char_traits@D@std@@V?$allocator@D@2@@std@@HU?$less@V?$basic_string@DU?$char_traits@D@std@@V?$allocator@D@2@@std@@@2@V?$allocator@U?$pair@$$CBV?$basic_string@DU?$char_traits@D@std@@V?$allocator@D@2@@std@@H@std@@@2@$0A@@std@@@std@@IEAAXPEAU?$_Tree_node@U?$pair@$$CBV?$basic_string@DU?$char_traits@D@std@@V?$allocator@D@2@@std@@H@std@@PEAX@2@@Z 0000000180015110 f i IocpServer.obj
 0001:00014170       ?_Tidy@?$_Tree@V?$_Tmap_traits@V?$basic_string@DU?$char_traits@D@std@@V?$allocator@D@2@@std@@HU?$less@V?$basic_string@DU?$char_traits@D@std@@V?$allocator@D@2@@std@@@2@V?$allocator@U?$pair@$$CBV?$basic_string@DU?$char_traits@D@std@@V?$allocator@D@2@@std@@H@std@@@2@$0A@@std@@@std@@IEAAXXZ 0000000180015170 f i IocpServer.obj
 0001:00014190       ?allocate@?$_Wrap_alloc@V?$allocator@U?$_Tree_node@U?$pair@$$CBV?$basic_string@DU?$char_traits@D@std@@V?$allocator@D@2@@std@@H@std@@PEAX@std@@@std@@@std@@QEAAPEAU?$_Tree_node@U?$pair@$$CBV?$basic_string@DU?$char_traits@D@std@@V?$allocator@D@2@@std@@H@std@@PEAX@2@_K@Z 0000000180015190 f i IocpServer.obj
 0001:000141d0       ?allocate@?$allocator@U?$_Tree_node@U?$pair@$$CBV?$basic_string@DU?$char_traits@D@std@@V?$allocator@D@2@@std@@H@std@@PEAX@std@@@std@@QEAAPEAU?$_Tree_node@U?$pair@$$CBV?$basic_string@DU?$char_traits@D@std@@V?$allocator@D@2@@std@@H@std@@PEAX@2@_K@Z 00000001800151d0 f i IocpServer.obj
 0001:00014210       ?begin@?$_Tree@V?$_Tmap_traits@V?$basic_string@DU?$char_traits@D@std@@V?$allocator@D@2@@std@@HU?$less@V?$basic_string@DU?$char_traits@D@std@@V?$allocator@D@2@@std@@@2@V?$allocator@U?$pair@$$CBV?$basic_string@DU?$char_traits@D@std@@V?$allocator@D@2@@std@@H@std@@@2@$0A@@std@@@std@@QEAA?AV?$_Tree_iterator@V?$_Tree_val@U?$_Tree_simple_types@U?$pair@$$CBV?$basic_string@DU?$char_traits@D@std@@V?$allocator@D@2@@std@@H@std@@@std@@@std@@@2@XZ 0000000180015210 f i IocpServer.obj
 0001:00014220       ?clear@?$_Tree@V?$_Tmap_traits@V?$basic_string@DU?$char_traits@D@std@@V?$allocator@D@2@@std@@HU?$less@V?$basic_string@DU?$char_traits@D@std@@V?$allocator@D@2@@std@@@2@V?$allocator@U?$pair@$$CBV?$basic_string@DU?$char_traits@D@std@@V?$allocator@D@2@@std@@H@std@@@2@$0A@@std@@@std@@QEAAXXZ 0000000180015220 f i IocpServer.obj
 0001:00014260       ?compare@?$basic_string@DU?$char_traits@D@std@@V?$allocator@D@2@@std@@QEBAHAEBV12@@Z 0000000180015260 f i IocpServer.obj
 0001:000142e0       ?compare@?$basic_string@DU?$char_traits@D@std@@V?$allocator@D@2@@std@@QEBAH_K0PEBD0@Z 00000001800152e0 f i IocpServer.obj
 0001:00014380       ?deallocate@?$_Wrap_alloc@V?$allocator@U?$_Tree_node@U?$pair@$$CBV?$basic_string@DU?$char_traits@D@std@@V?$allocator@D@2@@std@@H@std@@PEAX@std@@@std@@@std@@QEAAXPEAU?$_Tree_node@U?$pair@$$CBV?$basic_string@DU?$char_traits@D@std@@V?$allocator@D@2@@std@@H@std@@PEAX@2@_K@Z 0000000180015380 f i IocpServer.obj
 0001:00014390       ?deallocate@?$allocator@U?$_Tree_node@U?$pair@$$CBV?$basic_string@DU?$char_traits@D@std@@V?$allocator@D@2@@std@@H@std@@PEAX@std@@@std@@QEAAXPEAU?$_Tree_node@U?$pair@$$CBV?$basic_string@DU?$char_traits@D@std@@V?$allocator@D@2@@std@@H@std@@PEAX@2@_K@Z 0000000180015390 f i IocpServer.obj
 0001:000143a0       ?end@?$_Tree@V?$_Tmap_traits@V?$basic_string@DU?$char_traits@D@std@@V?$allocator@D@2@@std@@HU?$less@V?$basic_string@DU?$char_traits@D@std@@V?$allocator@D@2@@std@@@2@V?$allocator@U?$pair@$$CBV?$basic_string@DU?$char_traits@D@std@@V?$allocator@D@2@@std@@H@std@@@2@$0A@@std@@@std@@QEAA?AV?$_Tree_iterator@V?$_Tree_val@U?$_Tree_simple_types@U?$pair@$$CBV?$basic_string@DU?$char_traits@D@std@@V?$allocator@D@2@@std@@H@std@@@std@@@std@@@2@XZ 00000001800153a0 f i IocpServer.obj
 0001:000143b0       ?equal_range@?$_Tree@V?$_Tmap_traits@V?$basic_string@DU?$char_traits@D@std@@V?$allocator@D@2@@std@@HU?$less@V?$basic_string@DU?$char_traits@D@std@@V?$allocator@D@2@@std@@@2@V?$allocator@U?$pair@$$CBV?$basic_string@DU?$char_traits@D@std@@V?$allocator@D@2@@std@@H@std@@@2@$0A@@std@@@std@@QEAA?AU?$pair@V?$_Tree_iterator@V?$_Tree_val@U?$_Tree_simple_types@U?$pair@$$CBV?$basic_string@DU?$char_traits@D@std@@V?$allocator@D@2@@std@@H@std@@@std@@@std@@@std@@V12@@2@AEBV?$basic_string@DU?$char_traits@D@std@@V?$allocator@D@2@@2@@Z 00000001800153b0 f i IocpServer.obj
 0001:000143d0       ?erase@?$_Tree@V?$_Tmap_traits@V?$basic_string@DU?$char_traits@D@std@@V?$allocator@D@2@@std@@HU?$less@V?$basic_string@DU?$char_traits@D@std@@V?$allocator@D@2@@std@@@2@V?$allocator@U?$pair@$$CBV?$basic_string@DU?$char_traits@D@std@@V?$allocator@D@2@@std@@H@std@@@2@$0A@@std@@@std@@QEAA?AV?$_Tree_iterator@V?$_Tree_val@U?$_Tree_simple_types@U?$pair@$$CBV?$basic_string@DU?$char_traits@D@std@@V?$allocator@D@2@@std@@H@std@@@std@@@std@@@2@V?$_Tree_const_iterator@V?$_Tree_val@U?$_Tree_simple_types@U?$pair@$$CBV?$basic_string@DU?$char_traits@D@std@@V?$allocator@D@2@@std@@H@std@@@std@@@std@@@2@0@Z 00000001800153d0 f i IocpServer.obj
 0001:000144d0       ?erase@?$_Tree@V?$_Tmap_traits@V?$basic_string@DU?$char_traits@D@std@@V?$allocator@D@2@@std@@HU?$less@V?$basic_string@DU?$char_traits@D@std@@V?$allocator@D@2@@std@@@2@V?$allocator@U?$pair@$$CBV?$basic_string@DU?$char_traits@D@std@@V?$allocator@D@2@@std@@H@std@@@2@$0A@@std@@@std@@QEAA?AV?$_Tree_iterator@V?$_Tree_val@U?$_Tree_simple_types@U?$pair@$$CBV?$basic_string@DU?$char_traits@D@std@@V?$allocator@D@2@@std@@H@std@@@std@@@std@@@2@V?$_Tree_const_iterator@V?$_Tree_val@U?$_Tree_simple_types@U?$pair@$$CBV?$basic_string@DU?$char_traits@D@std@@V?$allocator@D@2@@std@@H@std@@@std@@@std@@@2@@Z 00000001800154d0 f i IocpServer.obj
 0001:000148c0       ?erase@?$_Tree@V?$_Tmap_traits@V?$basic_string@DU?$char_traits@D@std@@V?$allocator@D@2@@std@@HU?$less@V?$basic_string@DU?$char_traits@D@std@@V?$allocator@D@2@@std@@@2@V?$allocator@U?$pair@$$CBV?$basic_string@DU?$char_traits@D@std@@V?$allocator@D@2@@std@@H@std@@@2@$0A@@std@@@std@@QEAA_KAEBV?$basic_string@DU?$char_traits@D@std@@V?$allocator@D@2@@2@@Z 00000001800158c0 f i IocpServer.obj
 0001:00014960       ?key_comp@?$_Tree@V?$_Tmap_traits@V?$basic_string@DU?$char_traits@D@std@@V?$allocator@D@2@@std@@HU?$less@V?$basic_string@DU?$char_traits@D@std@@V?$allocator@D@2@@std@@@2@V?$allocator@U?$pair@$$CBV?$basic_string@DU?$char_traits@D@std@@V?$allocator@D@2@@std@@H@std@@@2@$0A@@std@@@std@@QEBA?AU?$less@V?$basic_string@DU?$char_traits@D@std@@V?$allocator@D@2@@std@@@2@XZ 0000000180015960 f i IocpServer.obj
 0001:00014970       ?max_size@?$_Tree@V?$_Tmap_traits@V?$basic_string@DU?$char_traits@D@std@@V?$allocator@D@2@@std@@HU?$less@V?$basic_string@DU?$char_traits@D@std@@V?$allocator@D@2@@std@@@2@V?$allocator@U?$pair@$$CBV?$basic_string@DU?$char_traits@D@std@@V?$allocator@D@2@@std@@H@std@@@2@$0A@@std@@@std@@QEBA_KXZ 0000000180015970 f i IocpServer.obj
 0001:00014980       ?max_size@?$_Wrap_alloc@V?$allocator@U?$_Tree_node@U?$pair@$$CBV?$basic_string@DU?$char_traits@D@std@@V?$allocator@D@2@@std@@H@std@@PEAX@std@@@std@@@std@@QEBA_KXZ 0000000180015980 f i IocpServer.obj
 0001:00014990       ?max_size@?$allocator@U?$_Tree_node@U?$pair@$$CBV?$basic_string@DU?$char_traits@D@std@@V?$allocator@D@2@@std@@H@std@@PEAX@std@@@std@@QEBA_KXZ 0000000180015990 f i IocpServer.obj
 0001:000149a0       ?max_size@?$allocator_traits@V?$allocator@U?$_Tree_node@U?$pair@$$CBV?$basic_string@DU?$char_traits@D@std@@V?$allocator@D@2@@std@@H@std@@PEAX@std@@@std@@@std@@SA_KAEBV?$allocator@U?$_Tree_node@U?$pair@$$CBV?$basic_string@DU?$char_traits@D@std@@V?$allocator@D@2@@std@@H@std@@PEAX@std@@@2@@Z 00000001800159a0 f i IocpServer.obj
 0001:000149b0       ?select_on_container_copy_construction@?$_Wrap_alloc@V?$allocator@D@std@@@std@@QEBA?AU12@XZ 00000001800159b0 f i IocpServer.obj
 0001:000149c0       ?select_on_container_copy_construction@?$_Wrap_alloc@V?$allocator@U?$_Tree_node@U?$pair@$$CBV?$basic_string@DU?$char_traits@D@std@@V?$allocator@D@2@@std@@H@std@@PEAX@std@@@std@@@std@@QEBA?AU12@XZ 00000001800159c0 f i IocpServer.obj
 0001:000149d0       ?select_on_container_copy_construction@?$allocator@D@std@@QEBA?AV12@XZ 00000001800159d0 f i IocpServer.obj
 0001:000149e0       ?select_on_container_copy_construction@?$allocator@U?$_Tree_node@U?$pair@$$CBV?$basic_string@DU?$char_traits@D@std@@V?$allocator@D@2@@std@@H@std@@PEAX@std@@@std@@QEBA?AV12@XZ 00000001800159e0 f i IocpServer.obj
 0001:000149f0       ?select_on_container_copy_construction@?$allocator_traits@V?$allocator@D@std@@@std@@SA?AV?$allocator@D@2@AEBV32@@Z 00000001800159f0 f i IocpServer.obj
 0001:00014a00       ?select_on_container_copy_construction@?$allocator_traits@V?$allocator@U?$_Tree_node@U?$pair@$$CBV?$basic_string@DU?$char_traits@D@std@@V?$allocator@D@2@@std@@H@std@@PEAX@std@@@std@@@std@@SA?AV?$allocator@U?$_Tree_node@U?$pair@$$CBV?$basic_string@DU?$char_traits@D@std@@V?$allocator@D@2@@std@@H@std@@PEAX@std@@@2@AEBV32@@Z 0000000180015a00 f i IocpServer.obj
 0001:00014a10       ?size@?$_Tree@V?$_Tmap_traits@V?$basic_string@DU?$char_traits@D@std@@V?$allocator@D@2@@std@@HU?$less@V?$basic_string@DU?$char_traits@D@std@@V?$allocator@D@2@@std@@@2@V?$allocator@U?$pair@$$CBV?$basic_string@DU?$char_traits@D@std@@V?$allocator@D@2@@std@@H@std@@@2@$0A@@std@@@std@@QEBA_KXZ 0000000180015a10 f i IocpServer.obj
 0001:00014a20       ??$?0AEAHAEAUDELAYINFO@@X@?$pair@HUDELAYINFO@@@std@@QEAA@AEAHAEAUDELAYINFO@@@Z 0000000180015a20 f i IocpServerImpl.obj
 0001:00014a30       ??$?0AEAV?$_Tree_iterator@V?$_Tree_val@U?$_Tree_simple_types@U?$pair@$$CBHUDELAYINFO@@@std@@@std@@@std@@@std@@_NX@?$pair@V?$_Tree_iterator@V?$_Tree_val@U?$_Tree_simple_types@U?$pair@$$CBHUDELAYINFO@@@std@@@std@@@std@@@std@@_N@std@@QEAA@AEAV?$_Tree_iterator@V?$_Tree_val@U?$_Tree_simple_types@U?$pair@$$CBHUDELAYINFO@@@std@@@std@@@std@@@1@$$QEA_N@Z 0000000180015a30 f i IocpServerImpl.obj
 0001:00014a50       ??$?0HAEAUDELAYINFO@@X@?$pair@HUDELAYINFO@@@std@@QEAA@$$QEAHAEAUDELAYINFO@@@Z 0000000180015a50 f i IocpServerImpl.obj
 0001:00014a60       ??$?0HUDELAYINFO@@X@?$pair@$$CBHUDELAYINFO@@@std@@QEAA@$$QEAU?$pair@HUDELAYINFO@@@1@@Z 0000000180015a60 f i IocpServerImpl.obj
 0001:00014a70       ??$?0V?$_Tree_iterator@V?$_Tree_val@U?$_Tree_simple_types@U?$pair@$$CBHUDELAYINFO@@@std@@@std@@@std@@@std@@_NX@?$pair@V?$_Tree_iterator@V?$_Tree_val@U?$_Tree_simple_types@U?$pair@$$CBHUDELAYINFO@@@std@@@std@@@std@@@std@@_N@std@@QEAA@$$QEAV?$_Tree_iterator@V?$_Tree_val@U?$_Tree_simple_types@U?$pair@$$CBHUDELAYINFO@@@std@@@std@@@std@@@1@$$QEA_N@Z 0000000180015a70 f i IocpServerImpl.obj
 0001:00014a90       ??$_Allocate@U?$_Tree_node@U?$pair@$$CBHH@std@@PEAX@std@@@std@@YAPEAU?$_Tree_node@U?$pair@$$CBHH@std@@PEAX@0@_KPEAU10@@Z 0000000180015a90 f i IocpServerImpl.obj
 0001:00014ad0       ??$_Allocate@U?$_Tree_node@U?$pair@$$CBHUDELAYINFO@@@std@@PEAX@std@@@std@@YAPEAU?$_Tree_node@U?$pair@$$CBHUDELAYINFO@@@std@@PEAX@0@_KPEAU10@@Z 0000000180015ad0 f i IocpServerImpl.obj
 0001:00014b10       ??$_Buynode@U?$pair@HUDELAYINFO@@@std@@@?$_Tree_buy@U?$pair@$$CBHUDELAYINFO@@@std@@V?$allocator@U?$pair@$$CBHUDELAYINFO@@@std@@@2@@std@@QEAAPEAU?$_Tree_node@U?$pair@$$CBHUDELAYINFO@@@std@@PEAX@1@$$QEAU?$pair@HUDELAYINFO@@@1@@Z 0000000180015b10 f i IocpServerImpl.obj
 0001:00014b50       ??$_Buynode_if_nil@AEAU?$pair@$$CBHUDELAYINFO@@@std@@@?$_Tree@V?$_Tmap_traits@HUDELAYINFO@@U?$less@H@std@@V?$allocator@U?$pair@$$CBHUDELAYINFO@@@std@@@3@$00@std@@@std@@IEAAPEAU?$_Tree_node@U?$pair@$$CBHUDELAYINFO@@@std@@PEAX@1@PEAU21@AEAU?$pair@$$CBHUDELAYINFO@@@1@@Z 0000000180015b50 f i IocpServerImpl.obj
 0001:00014b60       ??$_Buynode_if_nil@AEAU?$pair@$$CBHUDELAYINFO@@@std@@@?$_Tree@V?$_Tmap_traits@HUDELAYINFO@@U?$less@H@std@@V?$allocator@U?$pair@$$CBHUDELAYINFO@@@std@@@3@$0A@@std@@@std@@IEAAPEAU?$_Tree_node@U?$pair@$$CBHUDELAYINFO@@@std@@PEAX@1@PEAU21@AEAU?$pair@$$CBHUDELAYINFO@@@1@@Z 0000000180015b60 f i IocpServerImpl.obj
 0001:00014b70       ??$_Insert_at@AEAU?$pair@$$CBHUDELAYINFO@@@std@@PEAU?$_Tree_node@U?$pair@$$CBHUDELAYINFO@@@std@@PEAX@2@@?$_Tree@V?$_Tmap_traits@HUDELAYINFO@@U?$less@H@std@@V?$allocator@U?$pair@$$CBHUDELAYINFO@@@std@@@3@$00@std@@@std@@IEAA?AV?$_Tree_iterator@V?$_Tree_val@U?$_Tree_simple_types@U?$pair@$$CBHUDELAYINFO@@@std@@@std@@@std@@@1@_NPEAU?$_Tree_node@U?$pair@$$CBHUDELAYINFO@@@std@@PEAX@1@AEAU?$pair@$$CBHUDELAYINFO@@@1@1@Z 0000000180015b70 f i IocpServerImpl.obj
 0001:00014e20       ??$_Insert_at@AEAU?$pair@$$CBHUDELAYINFO@@@std@@PEAU?$_Tree_node@U?$pair@$$CBHUDELAYINFO@@@std@@PEAX@2@@?$_Tree@V?$_Tmap_traits@HUDELAYINFO@@U?$less@H@std@@V?$allocator@U?$pair@$$CBHUDELAYINFO@@@std@@@3@$0A@@std@@@std@@IEAA?AV?$_Tree_iterator@V?$_Tree_val@U?$_Tree_simple_types@U?$pair@$$CBHUDELAYINFO@@@std@@@std@@@std@@@1@_NPEAU?$_Tree_node@U?$pair@$$CBHUDELAYINFO@@@std@@PEAX@1@AEAU?$pair@$$CBHUDELAYINFO@@@1@1@Z 0000000180015e20 f i IocpServerImpl.obj
 0001:000150d0       ??$_Insert_nohint@AEAU?$pair@$$CBHUDELAYINFO@@@std@@PEAU?$_Tree_node@U?$pair@$$CBHUDELAYINFO@@@std@@PEAX@2@@?$_Tree@V?$_Tmap_traits@HUDELAYINFO@@U?$less@H@std@@V?$allocator@U?$pair@$$CBHUDELAYINFO@@@std@@@3@$00@std@@@std@@IEAA?AU?$pair@V?$_Tree_iterator@V?$_Tree_val@U?$_Tree_simple_types@U?$pair@$$CBHUDELAYINFO@@@std@@@std@@@std@@@std@@_N@1@_NAEAU?$pair@$$CBHUDELAYINFO@@@1@PEAU?$_Tree_node@U?$pair@$$CBHUDELAYINFO@@@std@@PEAX@1@@Z 00000001800160d0 f i IocpServerImpl.obj
 0001:00015170       ??$_Insert_nohint@AEAU?$pair@$$CBHUDELAYINFO@@@std@@PEAU?$_Tree_node@U?$pair@$$CBHUDELAYINFO@@@std@@PEAX@2@@?$_Tree@V?$_Tmap_traits@HUDELAYINFO@@U?$less@H@std@@V?$allocator@U?$pair@$$CBHUDELAYINFO@@@std@@@3@$0A@@std@@@std@@IEAA?AU?$pair@V?$_Tree_iterator@V?$_Tree_val@U?$_Tree_simple_types@U?$pair@$$CBHUDELAYINFO@@@std@@@std@@@std@@@std@@_N@1@_NAEAU?$pair@$$CBHUDELAYINFO@@@1@PEAU?$_Tree_node@U?$pair@$$CBHUDELAYINFO@@@std@@PEAX@1@@Z 0000000180016170 f i IocpServerImpl.obj
 0001:000152d0       ??$_Kfn@$$CBHUDELAYINFO@@@?$_Tmap_traits@HUDELAYINFO@@U?$less@H@std@@V?$allocator@U?$pair@$$CBHUDELAYINFO@@@std@@@3@$00@std@@SAAEBHAEBU?$pair@$$CBHUDELAYINFO@@@1@@Z 00000001800162d0 f i IocpServerImpl.obj
 0001:000152e0       ??$_Kfn@$$CBHUDELAYINFO@@@?$_Tmap_traits@HUDELAYINFO@@U?$less@H@std@@V?$allocator@U?$pair@$$CBHUDELAYINFO@@@std@@@3@$0A@@std@@SAAEBHAEBU?$pair@$$CBHUDELAYINFO@@@1@@Z 00000001800162e0 f i IocpServerImpl.obj
 0001:000152f0       ??$addressof@PEAU?$_Tree_node@U?$pair@$$CBHH@std@@PEAX@std@@@std@@YAPEAPEAU?$_Tree_node@U?$pair@$$CBHH@std@@PEAX@0@AEAPEAU10@@Z 00000001800162f0 f i IocpServerImpl.obj
 0001:00015300       ??$addressof@PEAU?$_Tree_node@U?$pair@$$CBHUDELAYINFO@@@std@@PEAX@std@@@std@@YAPEAPEAU?$_Tree_node@U?$pair@$$CBHUDELAYINFO@@@std@@PEAX@0@AEAPEAU10@@Z 0000000180016300 f i IocpServerImpl.obj
 0001:00015310       ??$addressof@U?$pair@$$CBHH@std@@@std@@YAPEAU?$pair@$$CBHH@0@AEAU10@@Z 0000000180016310 f i IocpServerImpl.obj
 0001:00015320       ??$addressof@U?$pair@$$CBHUDELAYINFO@@@std@@@std@@YAPEAU?$pair@$$CBHUDELAYINFO@@@0@AEAU10@@Z 0000000180016320 f i IocpServerImpl.obj
 0001:00015330       ??$construct@PEAU?$_Tree_node@U?$pair@$$CBHH@std@@PEAX@std@@AEAPEAU12@@?$_Wrap_alloc@V?$allocator@U?$_Tree_node@U?$pair@$$CBHH@std@@PEAX@std@@@std@@@std@@QEAAXPEAPEAU?$_Tree_node@U?$pair@$$CBHH@std@@PEAX@1@AEAPEAU21@@Z 0000000180016330 f i IocpServerImpl.obj
 0001:00015340       ??$construct@PEAU?$_Tree_node@U?$pair@$$CBHH@std@@PEAX@std@@AEAPEAU12@@?$allocator@U?$_Tree_node@U?$pair@$$CBHH@std@@PEAX@std@@@std@@QEAAXPEAPEAU?$_Tree_node@U?$pair@$$CBHH@std@@PEAX@1@AEAPEAU21@@Z 0000000180016340 f i IocpServerImpl.obj
 0001:00015350       ??$construct@PEAU?$_Tree_node@U?$pair@$$CBHH@std@@PEAX@std@@AEAPEAU12@@?$allocator_traits@V?$allocator@U?$_Tree_node@U?$pair@$$CBHH@std@@PEAX@std@@@std@@@std@@SAXAEAV?$allocator@U?$_Tree_node@U?$pair@$$CBHH@std@@PEAX@std@@@1@PEAPEAU?$_Tree_node@U?$pair@$$CBHH@std@@PEAX@1@AEAPEAU31@@Z 0000000180016350 f i IocpServerImpl.obj
 0001:00015360       ??$construct@PEAU?$_Tree_node@U?$pair@$$CBHUDELAYINFO@@@std@@PEAX@std@@AEAPEAU12@@?$_Wrap_alloc@V?$allocator@U?$_Tree_node@U?$pair@$$CBHUDELAYINFO@@@std@@PEAX@std@@@std@@@std@@QEAAXPEAPEAU?$_Tree_node@U?$pair@$$CBHUDELAYINFO@@@std@@PEAX@1@AEAPEAU21@@Z 0000000180016360 f i IocpServerImpl.obj
 0001:00015370       ??$construct@PEAU?$_Tree_node@U?$pair@$$CBHUDELAYINFO@@@std@@PEAX@std@@AEAPEAU12@@?$allocator@U?$_Tree_node@U?$pair@$$CBHUDELAYINFO@@@std@@PEAX@std@@@std@@QEAAXPEAPEAU?$_Tree_node@U?$pair@$$CBHUDELAYINFO@@@std@@PEAX@1@AEAPEAU21@@Z 0000000180016370 f i IocpServerImpl.obj
 0001:00015380       ??$construct@PEAU?$_Tree_node@U?$pair@$$CBHUDELAYINFO@@@std@@PEAX@std@@AEAPEAU12@@?$allocator_traits@V?$allocator@U?$_Tree_node@U?$pair@$$CBHUDELAYINFO@@@std@@PEAX@std@@@std@@@std@@SAXAEAV?$allocator@U?$_Tree_node@U?$pair@$$CBHUDELAYINFO@@@std@@PEAX@std@@@1@PEAPEAU?$_Tree_node@U?$pair@$$CBHUDELAYINFO@@@std@@PEAX@1@AEAPEAU31@@Z 0000000180016380 f i IocpServerImpl.obj
 0001:00015390       ??$construct@U?$pair@$$CBHUDELAYINFO@@@std@@U?$pair@HUDELAYINFO@@@2@@?$_Wrap_alloc@V?$allocator@U?$_Tree_node@U?$pair@$$CBHUDELAYINFO@@@std@@PEAX@std@@@std@@@std@@QEAAXPEAU?$pair@$$CBHUDELAYINFO@@@1@$$QEAU?$pair@HUDELAYINFO@@@1@@Z 0000000180016390 f i IocpServerImpl.obj
 0001:000153b0       ??$construct@U?$pair@$$CBHUDELAYINFO@@@std@@U?$pair@HUDELAYINFO@@@2@@?$allocator@U?$_Tree_node@U?$pair@$$CBHUDELAYINFO@@@std@@PEAX@std@@@std@@QEAAXPEAU?$pair@$$CBHUDELAYINFO@@@1@$$QEAU?$pair@HUDELAYINFO@@@1@@Z 00000001800163b0 f i IocpServerImpl.obj
 0001:000153d0       ??$construct@U?$pair@$$CBHUDELAYINFO@@@std@@U?$pair@HUDELAYINFO@@@2@@?$allocator_traits@V?$allocator@U?$_Tree_node@U?$pair@$$CBHUDELAYINFO@@@std@@PEAX@std@@@std@@@std@@SAXAEAV?$allocator@U?$_Tree_node@U?$pair@$$CBHUDELAYINFO@@@std@@PEAX@std@@@1@PEAU?$pair@$$CBHUDELAYINFO@@@1@$$QEAU?$pair@HUDELAYINFO@@@1@@Z 00000001800163d0 f i IocpServerImpl.obj
 0001:000153f0       ??$destroy@PEAU?$_Tree_node@U?$pair@$$CBHH@std@@PEAX@std@@@?$_Wrap_alloc@V?$allocator@U?$_Tree_node@U?$pair@$$CBHH@std@@PEAX@std@@@std@@@std@@QEAAXPEAPEAU?$_Tree_node@U?$pair@$$CBHH@std@@PEAX@1@@Z 00000001800163f0 f i IocpServerImpl.obj
 0001:00015400       ??$destroy@PEAU?$_Tree_node@U?$pair@$$CBHH@std@@PEAX@std@@@?$allocator@U?$_Tree_node@U?$pair@$$CBHH@std@@PEAX@std@@@std@@QEAAXPEAPEAU?$_Tree_node@U?$pair@$$CBHH@std@@PEAX@1@@Z 0000000180016400 f i IocpServerImpl.obj
 0001:00015410       ??$destroy@PEAU?$_Tree_node@U?$pair@$$CBHH@std@@PEAX@std@@@?$allocator_traits@V?$allocator@U?$_Tree_node@U?$pair@$$CBHH@std@@PEAX@std@@@std@@@std@@SAXAEAV?$allocator@U?$_Tree_node@U?$pair@$$CBHH@std@@PEAX@std@@@1@PEAPEAU?$_Tree_node@U?$pair@$$CBHH@std@@PEAX@1@@Z 0000000180016410 f i IocpServerImpl.obj
 0001:00015420       ??$destroy@PEAU?$_Tree_node@U?$pair@$$CBHUDELAYINFO@@@std@@PEAX@std@@@?$_Wrap_alloc@V?$allocator@U?$_Tree_node@U?$pair@$$CBHUDELAYINFO@@@std@@PEAX@std@@@std@@@std@@QEAAXPEAPEAU?$_Tree_node@U?$pair@$$CBHUDELAYINFO@@@std@@PEAX@1@@Z 0000000180016420 f i IocpServerImpl.obj
 0001:00015430       ??$destroy@PEAU?$_Tree_node@U?$pair@$$CBHUDELAYINFO@@@std@@PEAX@std@@@?$allocator@U?$_Tree_node@U?$pair@$$CBHUDELAYINFO@@@std@@PEAX@std@@@std@@QEAAXPEAPEAU?$_Tree_node@U?$pair@$$CBHUDELAYINFO@@@std@@PEAX@1@@Z 0000000180016430 f i IocpServerImpl.obj
 0001:00015440       ??$destroy@PEAU?$_Tree_node@U?$pair@$$CBHUDELAYINFO@@@std@@PEAX@std@@@?$allocator_traits@V?$allocator@U?$_Tree_node@U?$pair@$$CBHUDELAYINFO@@@std@@PEAX@std@@@std@@@std@@SAXAEAV?$allocator@U?$_Tree_node@U?$pair@$$CBHUDELAYINFO@@@std@@PEAX@std@@@1@PEAPEAU?$_Tree_node@U?$pair@$$CBHUDELAYINFO@@@std@@PEAX@1@@Z 0000000180016440 f i IocpServerImpl.obj
 0001:00015450       ??$destroy@U?$pair@$$CBHH@std@@@?$_Wrap_alloc@V?$allocator@U?$_Tree_node@U?$pair@$$CBHH@std@@PEAX@std@@@std@@@std@@QEAAXPEAU?$pair@$$CBHH@1@@Z 0000000180016450 f i IocpServerImpl.obj
 0001:00015460       ??$destroy@U?$pair@$$CBHH@std@@@?$allocator@U?$_Tree_node@U?$pair@$$CBHH@std@@PEAX@std@@@std@@QEAAXPEAU?$pair@$$CBHH@1@@Z 0000000180016460 f i IocpServerImpl.obj
 0001:00015470       ??$destroy@U?$pair@$$CBHH@std@@@?$allocator_traits@V?$allocator@U?$_Tree_node@U?$pair@$$CBHH@std@@PEAX@std@@@std@@@std@@SAXAEAV?$allocator@U?$_Tree_node@U?$pair@$$CBHH@std@@PEAX@std@@@1@PEAU?$pair@$$CBHH@1@@Z 0000000180016470 f i IocpServerImpl.obj
 0001:00015480       ??$destroy@U?$pair@$$CBHUDELAYINFO@@@std@@@?$_Wrap_alloc@V?$allocator@U?$_Tree_node@U?$pair@$$CBHUDELAYINFO@@@std@@PEAX@std@@@std@@@std@@QEAAXPEAU?$pair@$$CBHUDELAYINFO@@@1@@Z 0000000180016480 f i IocpServerImpl.obj
 0001:00015490       ??$destroy@U?$pair@$$CBHUDELAYINFO@@@std@@@?$allocator@U?$_Tree_node@U?$pair@$$CBHUDELAYINFO@@@std@@PEAX@std@@@std@@QEAAXPEAU?$pair@$$CBHUDELAYINFO@@@1@@Z 0000000180016490 f i IocpServerImpl.obj
 0001:000154a0       ??$destroy@U?$pair@$$CBHUDELAYINFO@@@std@@@?$allocator_traits@V?$allocator@U?$_Tree_node@U?$pair@$$CBHUDELAYINFO@@@std@@PEAX@std@@@std@@@std@@SAXAEAV?$allocator@U?$_Tree_node@U?$pair@$$CBHUDELAYINFO@@@std@@PEAX@std@@@1@PEAU?$pair@$$CBHUDELAYINFO@@@1@@Z 00000001800164a0 f i IocpServerImpl.obj
 0001:000154b0       ??$forward@AEAPEAU?$_Tree_node@U?$pair@$$CBHH@std@@PEAX@std@@@std@@YAAEAPEAU?$_Tree_node@U?$pair@$$CBHH@std@@PEAX@0@AEAPEAU10@@Z 00000001800164b0 f i IocpServerImpl.obj
 0001:000154c0       ??$forward@AEAPEAU?$_Tree_node@U?$pair@$$CBHUDELAYINFO@@@std@@PEAX@std@@@std@@YAAEAPEAU?$_Tree_node@U?$pair@$$CBHUDELAYINFO@@@std@@PEAX@0@AEAPEAU10@@Z 00000001800164c0 f i IocpServerImpl.obj
 0001:000154d0       ??$forward@AEAU?$pair@$$CBHUDELAYINFO@@@std@@@std@@YAAEAU?$pair@$$CBHUDELAYINFO@@@0@AEAU10@@Z 00000001800164d0 f i IocpServerImpl.obj
 0001:000154e0       ??$forward@AEAUDELAYINFO@@@std@@YAAEAUDELAYINFO@@AEAU1@@Z 00000001800164e0 f i IocpServerImpl.obj
 0001:000154f0       ??$forward@AEAV?$_Tree_iterator@V?$_Tree_val@U?$_Tree_simple_types@U?$pair@$$CBHUDELAYINFO@@@std@@@std@@@std@@@std@@@std@@YAAEAV?$_Tree_iterator@V?$_Tree_val@U?$_Tree_simple_types@U?$pair@$$CBHUDELAYINFO@@@std@@@std@@@std@@@0@AEAV10@@Z 00000001800164f0 f i IocpServerImpl.obj
 0001:00015500       ??$forward@U?$pair@HUDELAYINFO@@@std@@@std@@YA$$QEAU?$pair@HUDELAYINFO@@@0@AEAU10@@Z 0000000180016500 f i IocpServerImpl.obj
 0001:00015510       ??$forward@UDELAYINFO@@@std@@YA$$QEAUDELAYINFO@@AEAU1@@Z 0000000180016510 f i IocpServerImpl.obj
 0001:00015520       ??$forward@V?$_Tree_iterator@V?$_Tree_val@U?$_Tree_simple_types@U?$pair@$$CBHUDELAYINFO@@@std@@@std@@@std@@@std@@@std@@YA$$QEAV?$_Tree_iterator@V?$_Tree_val@U?$_Tree_simple_types@U?$pair@$$CBHUDELAYINFO@@@std@@@std@@@std@@@0@AEAV10@@Z 0000000180016520 f i IocpServerImpl.obj
 0001:00015530       ??$insert@U?$pair@HUDELAYINFO@@@std@@@?$_Tree@V?$_Tmap_traits@HUDELAYINFO@@U?$less@H@std@@V?$allocator@U?$pair@$$CBHUDELAYINFO@@@std@@@3@$00@std@@@std@@QEAA?AU?$pair@V?$_Tree_iterator@V?$_Tree_val@U?$_Tree_simple_types@U?$pair@$$CBHUDELAYINFO@@@std@@@std@@@std@@@std@@_N@1@$$QEAU?$pair@HUDELAYINFO@@@1@@Z 0000000180016530 f i IocpServerImpl.obj
 0001:00015570       ??$insert@U?$pair@HUDELAYINFO@@@std@@@?$_Tree@V?$_Tmap_traits@HUDELAYINFO@@U?$less@H@std@@V?$allocator@U?$pair@$$CBHUDELAYINFO@@@std@@@3@$0A@@std@@@std@@QEAA?AU?$pair@V?$_Tree_iterator@V?$_Tree_val@U?$_Tree_simple_types@U?$pair@$$CBHUDELAYINFO@@@std@@@std@@@std@@@std@@_N@1@$$QEAU?$pair@HUDELAYINFO@@@1@@Z 0000000180016570 f i IocpServerImpl.obj
 0001:000155b0       ??$insert@U?$pair@HUDELAYINFO@@@std@@@?$multimap@HUDELAYINFO@@U?$less@H@std@@V?$allocator@U?$pair@$$CBHUDELAYINFO@@@std@@@3@@std@@QEAA?AV?$_Tree_iterator@V?$_Tree_val@U?$_Tree_simple_types@U?$pair@$$CBHUDELAYINFO@@@std@@@std@@@std@@@1@$$QEAU?$pair@HUDELAYINFO@@@1@@Z 00000001800165b0 f i IocpServerImpl.obj
 0001:00015600       ??$make_pair@AEAHAEAUDELAYINFO@@@std@@YA?AU?$pair@HUDELAYINFO@@@0@AEAHAEAUDELAYINFO@@@Z 0000000180016600 f i IocpServerImpl.obj
 0001:00015610       ??$make_pair@HAEAUDELAYINFO@@@std@@YA?AU?$pair@HUDELAYINFO@@@0@$$QEAHAEAUDELAYINFO@@@Z 0000000180016610 f i IocpServerImpl.obj
 0001:00015620       ??0?$_Tree@V?$_Tmap_traits@HHU?$less@H@std@@V?$allocator@U?$pair@$$CBHH@std@@@2@$0A@@std@@@std@@QEAA@AEBU?$less@H@1@AEBV?$allocator@U?$pair@$$CBHH@std@@@1@@Z 0000000180016620 f i IocpServerImpl.obj
 0001:00015650       ??0?$_Tree@V?$_Tmap_traits@HUDELAYINFO@@U?$less@H@std@@V?$allocator@U?$pair@$$CBHUDELAYINFO@@@std@@@3@$00@std@@@std@@QEAA@AEBU?$less@H@1@AEBV?$allocator@U?$pair@$$CBHUDELAYINFO@@@std@@@1@@Z 0000000180016650 f i IocpServerImpl.obj
 0001:00015680       ??0?$_Tree@V?$_Tmap_traits@HUDELAYINFO@@U?$less@H@std@@V?$allocator@U?$pair@$$CBHUDELAYINFO@@@std@@@3@$0A@@std@@@std@@QEAA@AEBU?$less@H@1@AEBV?$allocator@U?$pair@$$CBHUDELAYINFO@@@std@@@1@@Z 0000000180016680 f i IocpServerImpl.obj
 0001:000156b0       ??0?$_Tree_alloc@$0A@U?$_Tree_base_types@U?$pair@$$CBHH@std@@V?$allocator@U?$pair@$$CBHH@std@@@2@@std@@@std@@QEAA@AEBV?$allocator@U?$pair@$$CBHH@std@@@1@@Z 00000001800166b0 f i IocpServerImpl.obj
 0001:000156e0       ??0?$_Tree_alloc@$0A@U?$_Tree_base_types@U?$pair@$$CBHUDELAYINFO@@@std@@V?$allocator@U?$pair@$$CBHUDELAYINFO@@@std@@@2@@std@@@std@@QEAA@AEBV?$allocator@U?$pair@$$CBHUDELAYINFO@@@std@@@1@@Z 00000001800166e0 f i IocpServerImpl.obj
 0001:00015710       ??0?$_Tree_buy@U?$pair@$$CBHH@std@@V?$allocator@U?$pair@$$CBHH@std@@@2@@std@@QEAA@AEBV?$allocator@U?$pair@$$CBHH@std@@@1@@Z 0000000180016710 f i IocpServerImpl.obj
 0001:00015740       ??0?$_Tree_buy@U?$pair@$$CBHUDELAYINFO@@@std@@V?$allocator@U?$pair@$$CBHUDELAYINFO@@@std@@@2@@std@@QEAA@AEBV?$allocator@U?$pair@$$CBHUDELAYINFO@@@std@@@1@@Z 0000000180016740 f i IocpServerImpl.obj
 0001:00015770       ??0?$_Tree_comp@$0A@V?$_Tmap_traits@HHU?$less@H@std@@V?$allocator@U?$pair@$$CBHH@std@@@2@$0A@@std@@@std@@QEAA@AEBU?$less@H@1@AEBV?$allocator@U?$pair@$$CBHH@std@@@1@@Z 0000000180016770 f i IocpServerImpl.obj
 0001:000157a0       ??0?$_Tree_comp@$0A@V?$_Tmap_traits@HUDELAYINFO@@U?$less@H@std@@V?$allocator@U?$pair@$$CBHUDELAYINFO@@@std@@@3@$00@std@@@std@@QEAA@AEBU?$less@H@1@AEBV?$allocator@U?$pair@$$CBHUDELAYINFO@@@std@@@1@@Z 00000001800167a0 f i IocpServerImpl.obj
 0001:000157d0       ??0?$_Tree_comp@$0A@V?$_Tmap_traits@HUDELAYINFO@@U?$less@H@std@@V?$allocator@U?$pair@$$CBHUDELAYINFO@@@std@@@3@$0A@@std@@@std@@QEAA@AEBU?$less@H@1@AEBV?$allocator@U?$pair@$$CBHUDELAYINFO@@@std@@@1@@Z 00000001800167d0 f i IocpServerImpl.obj
 0001:00015800       ??0?$_Tree_const_iterator@V?$_Tree_val@U?$_Tree_simple_types@U?$pair@$$CBHH@std@@@std@@@std@@@std@@QEAA@PEAU?$_Tree_node@U?$pair@$$CBHH@std@@PEAX@1@PEBV?$_Tree_val@U?$_Tree_simple_types@U?$pair@$$CBHH@std@@@std@@@1@@Z 0000000180016800 f i IocpServerImpl.obj
 0001:00015810       ??0?$_Tree_const_iterator@V?$_Tree_val@U?$_Tree_simple_types@U?$pair@$$CBHUDELAYINFO@@@std@@@std@@@std@@@std@@QEAA@PEAU?$_Tree_node@U?$pair@$$CBHUDELAYINFO@@@std@@PEAX@1@PEBV?$_Tree_val@U?$_Tree_simple_types@U?$pair@$$CBHUDELAYINFO@@@std@@@std@@@1@@Z 0000000180016810 f i IocpServerImpl.obj
 0001:00015820       ??0?$_Tree_iterator@V?$_Tree_val@U?$_Tree_simple_types@U?$pair@$$CBHH@std@@@std@@@std@@@std@@QEAA@PEAU?$_Tree_node@U?$pair@$$CBHH@std@@PEAX@1@PEBV?$_Tree_val@U?$_Tree_simple_types@U?$pair@$$CBHH@std@@@std@@@1@@Z 0000000180016820 f i IocpServerImpl.obj
 0001:00015830       ??0?$_Tree_iterator@V?$_Tree_val@U?$_Tree_simple_types@U?$pair@$$CBHUDELAYINFO@@@std@@@std@@@std@@@std@@QEAA@PEAU?$_Tree_node@U?$pair@$$CBHUDELAYINFO@@@std@@PEAX@1@PEBV?$_Tree_val@U?$_Tree_simple_types@U?$pair@$$CBHUDELAYINFO@@@std@@@std@@@1@@Z 0000000180016830 f i IocpServerImpl.obj
 0001:00015840       ??0?$_Tree_unchecked_const_iterator@V?$_Tree_val@U?$_Tree_simple_types@U?$pair@$$CBHH@std@@@std@@@std@@U_Iterator_base0@2@@std@@QEAA@PEAU?$_Tree_node@U?$pair@$$CBHH@std@@PEAX@1@PEBV?$_Tree_val@U?$_Tree_simple_types@U?$pair@$$CBHH@std@@@std@@@1@@Z 0000000180016840 f i IocpServerImpl.obj
 0001:00015850       ??0?$_Tree_unchecked_const_iterator@V?$_Tree_val@U?$_Tree_simple_types@U?$pair@$$CBHUDELAYINFO@@@std@@@std@@@std@@U_Iterator_base0@2@@std@@QEAA@PEAU?$_Tree_node@U?$pair@$$CBHUDELAYINFO@@@std@@PEAX@1@PEBV?$_Tree_val@U?$_Tree_simple_types@U?$pair@$$CBHUDELAYINFO@@@std@@@std@@@1@@Z 0000000180016850 f i IocpServerImpl.obj
 0001:00015860       ??0?$_Tree_val@U?$_Tree_simple_types@U?$pair@$$CBHH@std@@@std@@@std@@QEAA@XZ 0000000180016860 f i IocpServerImpl.obj
 0001:00015870       ??0?$_Tree_val@U?$_Tree_simple_types@U?$pair@$$CBHUDELAYINFO@@@std@@@std@@@std@@QEAA@XZ 0000000180016870 f i IocpServerImpl.obj
 0001:00015880       ??0?$_Wrap_alloc@V?$allocator@U?$_Tree_node@U?$pair@$$CBHH@std@@PEAX@std@@@std@@@std@@QEAA@XZ 0000000180016880 f i IocpServerImpl.obj
 0001:00015890       ??0?$_Wrap_alloc@V?$allocator@U?$_Tree_node@U?$pair@$$CBHUDELAYINFO@@@std@@PEAX@std@@@std@@@std@@QEAA@XZ 0000000180016890 f i IocpServerImpl.obj
 0001:000158a0       ??0?$allocator@U?$_Tree_node@U?$pair@$$CBHH@std@@PEAX@std@@@std@@QEAA@XZ 00000001800168a0 f i IocpServerImpl.obj
 0001:000158b0       ??0?$allocator@U?$_Tree_node@U?$pair@$$CBHUDELAYINFO@@@std@@PEAX@std@@@std@@QEAA@XZ 00000001800168b0 f i IocpServerImpl.obj
 0001:000158c0       ??0?$allocator@U?$pair@$$CBHH@std@@@std@@QEAA@XZ 00000001800168c0 f i IocpServerImpl.obj
 0001:000158d0       ??0?$allocator@U?$pair@$$CBHUDELAYINFO@@@std@@@std@@QEAA@XZ 00000001800168d0 f i IocpServerImpl.obj
 0001:000158e0       ??0?$map@HHU?$less@H@std@@V?$allocator@U?$pair@$$CBHH@std@@@2@@std@@QEAA@XZ 00000001800168e0 f i IocpServerImpl.obj
 0001:00015910       ??0?$map@HUDELAYINFO@@U?$less@H@std@@V?$allocator@U?$pair@$$CBHUDELAYINFO@@@std@@@3@@std@@QEAA@XZ 0000000180016910 f i IocpServerImpl.obj
 0001:00015940       ??0?$multimap@HUDELAYINFO@@U?$less@H@std@@V?$allocator@U?$pair@$$CBHUDELAYINFO@@@std@@@3@@std@@QEAA@XZ 0000000180016940 f i IocpServerImpl.obj
 0001:00015970       ??0CIocpServerImpl@@QEAA@XZ 0000000180016970 f   IocpServerImpl.obj
 0001:00015b20       ??1?$_Tree@V?$_Tmap_traits@HHU?$less@H@std@@V?$allocator@U?$pair@$$CBHH@std@@@2@$0A@@std@@@std@@QEAA@XZ 0000000180016b20 f i IocpServerImpl.obj
 0001:00015b50       ??1?$_Tree@V?$_Tmap_traits@HUDELAYINFO@@U?$less@H@std@@V?$allocator@U?$pair@$$CBHUDELAYINFO@@@std@@@3@$00@std@@@std@@QEAA@XZ 0000000180016b50 f i IocpServerImpl.obj
 0001:00015b80       ??1?$_Tree@V?$_Tmap_traits@HUDELAYINFO@@U?$less@H@std@@V?$allocator@U?$pair@$$CBHUDELAYINFO@@@std@@@3@$0A@@std@@@std@@QEAA@XZ 0000000180016b80 f i IocpServerImpl.obj
 0001:00015bb0       ??1?$_Tree_alloc@$0A@U?$_Tree_base_types@U?$pair@$$CBHH@std@@V?$allocator@U?$pair@$$CBHH@std@@@2@@std@@@std@@QEAA@XZ 0000000180016bb0 f i IocpServerImpl.obj
 0001:00015bc0       ??1?$_Tree_alloc@$0A@U?$_Tree_base_types@U?$pair@$$CBHUDELAYINFO@@@std@@V?$allocator@U?$pair@$$CBHUDELAYINFO@@@std@@@2@@std@@@std@@QEAA@XZ 0000000180016bc0 f i IocpServerImpl.obj
 0001:00015bd0       ??1?$_Tree_buy@U?$pair@$$CBHH@std@@V?$allocator@U?$pair@$$CBHH@std@@@2@@std@@QEAA@XZ 0000000180016bd0 f i IocpServerImpl.obj
 0001:00015be0       ??1?$_Tree_buy@U?$pair@$$CBHUDELAYINFO@@@std@@V?$allocator@U?$pair@$$CBHUDELAYINFO@@@std@@@2@@std@@QEAA@XZ 0000000180016be0 f i IocpServerImpl.obj
 0001:00015bf0       ??1?$_Tree_comp@$0A@V?$_Tmap_traits@HHU?$less@H@std@@V?$allocator@U?$pair@$$CBHH@std@@@2@$0A@@std@@@std@@QEAA@XZ 0000000180016bf0 f i IocpServerImpl.obj
 0001:00015c00       ??1?$_Tree_comp@$0A@V?$_Tmap_traits@HUDELAYINFO@@U?$less@H@std@@V?$allocator@U?$pair@$$CBHUDELAYINFO@@@std@@@3@$00@std@@@std@@QEAA@XZ 0000000180016c00 f i IocpServerImpl.obj
 0001:00015c10       ??1?$_Tree_comp@$0A@V?$_Tmap_traits@HUDELAYINFO@@U?$less@H@std@@V?$allocator@U?$pair@$$CBHUDELAYINFO@@@std@@@3@$0A@@std@@@std@@QEAA@XZ 0000000180016c10 f i IocpServerImpl.obj
 0001:00015c20       ??1?$map@HHU?$less@H@std@@V?$allocator@U?$pair@$$CBHH@std@@@2@@std@@QEAA@XZ 0000000180016c20 f i IocpServerImpl.obj
 0001:00015c50       ??1?$map@HUDELAYINFO@@U?$less@H@std@@V?$allocator@U?$pair@$$CBHUDELAYINFO@@@std@@@3@@std@@QEAA@XZ 0000000180016c50 f i IocpServerImpl.obj
 0001:00015c80       ??1?$multimap@HUDELAYINFO@@U?$less@H@std@@V?$allocator@U?$pair@$$CBHUDELAYINFO@@@std@@@3@@std@@QEAA@XZ 0000000180016c80 f i IocpServerImpl.obj
 0001:00015cb0       ??1CIocpServerImpl@@UEAA@XZ 0000000180016cb0 f   IocpServerImpl.obj
 0001:00015e00       ??8?$_Tree_const_iterator@V?$_Tree_val@U?$_Tree_simple_types@U?$pair@$$CBHH@std@@@std@@@std@@@std@@QEBA_NAEBV01@@Z 0000000180016e00 f i IocpServerImpl.obj
 0001:00015e10       ??8?$_Tree_const_iterator@V?$_Tree_val@U?$_Tree_simple_types@U?$pair@$$CBHUDELAYINFO@@@std@@@std@@@std@@@std@@QEBA_NAEBV01@@Z 0000000180016e10 f i IocpServerImpl.obj
 0001:00015e20       ??9?$_Tree_const_iterator@V?$_Tree_val@U?$_Tree_simple_types@U?$pair@$$CBHH@std@@@std@@@std@@@std@@QEBA_NAEBV01@@Z 0000000180016e20 f i IocpServerImpl.obj
 0001:00015e30       ??9?$_Tree_const_iterator@V?$_Tree_val@U?$_Tree_simple_types@U?$pair@$$CBHUDELAYINFO@@@std@@@std@@@std@@@std@@QEBA_NAEBV01@@Z 0000000180016e30 f i IocpServerImpl.obj
 0001:00015e40       ??C?$_Tree_iterator@V?$_Tree_val@U?$_Tree_simple_types@U?$pair@$$CBHUDELAYINFO@@@std@@@std@@@std@@@std@@QEBAPEAU?$pair@$$CBHUDELAYINFO@@@1@XZ 0000000180016e40 f i IocpServerImpl.obj
 0001:00015e50       ??D?$_Tree_const_iterator@V?$_Tree_val@U?$_Tree_simple_types@U?$pair@$$CBHUDELAYINFO@@@std@@@std@@@std@@@std@@QEBAAEBU?$pair@$$CBHUDELAYINFO@@@1@XZ 0000000180016e50 f i IocpServerImpl.obj
 0001:00015e60       ??D?$_Tree_iterator@V?$_Tree_val@U?$_Tree_simple_types@U?$pair@$$CBHUDELAYINFO@@@std@@@std@@@std@@@std@@QEBAAEAU?$pair@$$CBHUDELAYINFO@@@1@XZ 0000000180016e60 f i IocpServerImpl.obj
 0001:00015e70       ??E?$_Tree_const_iterator@V?$_Tree_val@U?$_Tree_simple_types@U?$pair@$$CBHH@std@@@std@@@std@@@std@@QEAA?AV01@H@Z 0000000180016e70 f i IocpServerImpl.obj
 0001:00015ed0       ??E?$_Tree_const_iterator@V?$_Tree_val@U?$_Tree_simple_types@U?$pair@$$CBHH@std@@@std@@@std@@@std@@QEAAAEAV01@XZ 0000000180016ed0 f i IocpServerImpl.obj
 0001:00015f30       ??E?$_Tree_const_iterator@V?$_Tree_val@U?$_Tree_simple_types@U?$pair@$$CBHUDELAYINFO@@@std@@@std@@@std@@@std@@QEAA?AV01@H@Z 0000000180016f30 f i IocpServerImpl.obj
 0001:00015f90       ??E?$_Tree_const_iterator@V?$_Tree_val@U?$_Tree_simple_types@U?$pair@$$CBHUDELAYINFO@@@std@@@std@@@std@@@std@@QEAAAEAV01@XZ 0000000180016f90 f i IocpServerImpl.obj
 0001:00015ff0       ??E?$_Tree_unchecked_const_iterator@V?$_Tree_val@U?$_Tree_simple_types@U?$pair@$$CBHH@std@@@std@@@std@@U_Iterator_base0@2@@std@@QEAAAEAV01@XZ 0000000180016ff0 f i IocpServerImpl.obj
 0001:00016050       ??E?$_Tree_unchecked_const_iterator@V?$_Tree_val@U?$_Tree_simple_types@U?$pair@$$CBHUDELAYINFO@@@std@@@std@@@std@@U_Iterator_base0@2@@std@@QEAAAEAV01@XZ 0000000180017050 f i IocpServerImpl.obj
 0001:000160b0       ??F?$_Tree_const_iterator@V?$_Tree_val@U?$_Tree_simple_types@U?$pair@$$CBHUDELAYINFO@@@std@@@std@@@std@@@std@@QEAAAEAV01@XZ 00000001800170b0 f i IocpServerImpl.obj
 0001:000160d0       ??F?$_Tree_iterator@V?$_Tree_val@U?$_Tree_simple_types@U?$pair@$$CBHUDELAYINFO@@@std@@@std@@@std@@@std@@QEAAAEAV01@XZ 00000001800170d0 f i IocpServerImpl.obj
 0001:000160f0       ??F?$_Tree_unchecked_const_iterator@V?$_Tree_val@U?$_Tree_simple_types@U?$pair@$$CBHUDELAYINFO@@@std@@@std@@@std@@U_Iterator_base0@2@@std@@QEAAAEAV01@XZ 00000001800170f0 f i IocpServerImpl.obj
 0001:00016170       ??_GCIocpServerImpl@@UEAAPEAXI@Z 0000000180017170 f i IocpServerImpl.obj
 0001:00016170       ??_ECIocpServerImpl@@UEAAPEAXI@Z 0000000180017170 f i IocpServerImpl.obj
 0001:000161a0       ?AcceptOrNot@CIocpServerImpl@@AEAAHPEAUIOCPIO@@@Z 00000001800171a0 f   IocpServerImpl.obj
 0001:00016290       ?ApplyIocpKey@CIocpServerImpl@@AEAAPEAUIOCPKEY@@PEAUIOCPIO@@@Z 0000000180017290 f   IocpServerImpl.obj
 0001:00016310       ?BindAcceptSocketToIocp@CIocpServerImpl@@AEAAHPEAUIOCPKEY@@PEAUIOCPIO@@@Z 0000000180017310 f   IocpServerImpl.obj
 0001:00016430       ?BindAndListenSocket@CIocpServerImpl@@AEAAHJ@Z 0000000180017430 f   IocpServerImpl.obj
 0001:000165a0       ?CheckBlackIP@CIocpServerImpl@@AEAA_NAEAUsockaddr_in@@AEA_KPEADAEAH@Z 00000001800175a0 f   IocpServerImpl.obj
 0001:00016710       ?CheckBlackIP@CIocpServerImpl@@AEAA_NPEBD@Z 0000000180017710 f   IocpServerImpl.obj
 0001:000168f0       ?CheckForInvalidConnection@CIocpServerImpl@@AEAA_JXZ 00000001800178f0 f   IocpServerImpl.obj
 0001:00016a00       ?CheckIocpRetValue@CIocpServerImpl@@AEAAHPEAUIOCPKEY@@PEAUIOCPIO@@@Z 0000000180017a00 f   IocpServerImpl.obj
 0001:00016ac0       ?Close@CIocpServerImpl@@UEAAXXZ 0000000180017ac0 f   IocpServerImpl.obj
 0001:00016ba0       ?CloseSocketEx@CIocpServerImpl@@UEAAXAEA_KHPEAUIOCPKEY@@PEAUIOCPIO@@HHH@Z 0000000180017ba0 f   IocpServerImpl.obj
 0001:00016bc0       ?CompletionRoutine@CIocpServerImpl@@CAKPEAX@Z 0000000180017bc0 f   IocpServerImpl.obj
 0001:00016bd0       ?DataAction@CIocpServerImpl@@AEAAHPEAUIOCPIO@@@Z 0000000180017bd0 f   IocpServerImpl.obj
 0001:00016df0       ?DealAcceptIo@CIocpServerImpl@@AEAAXPEAUIOCPIO@@@Z 0000000180017df0 f   IocpServerImpl.obj
 0001:00016e20       ?DealDisConEvent@CIocpServerImpl@@AEAAHPEAUIOCPKEY@@PEAUIOCPIO@@KH@Z 0000000180017e20 f   IocpServerImpl.obj
 0001:00016f70       ?DealIocpRead@CIocpServerImpl@@AEAAHPEAUIOCPKEY@@PEAUIOCPIO@@K@Z 0000000180017f70 f   IocpServerImpl.obj
 0001:00017090       ?DealIocpWriteOver@CIocpServerImpl@@AEAAHPEAUIOCPKEY@@PEAUIOCPIO@@K@Z 0000000180018090 f   IocpServerImpl.obj
 0001:000171a0       ?DecIdleAcceptNum@CIocpServerImpl@@AEAAXXZ 00000001800181a0 f   IocpServerImpl.obj
 0001:000171b0       ?DelDelayEndSockId@CIocpServerImpl@@AEAA_NXZ 00000001800181b0 f   IocpServerImpl.obj
 0001:00017330       ?FindSockId@CIocpServerImpl@@UEAA_NH@Z 0000000180018330 f   IocpServerImpl.obj
 0001:00017350       ?GetAcceptConNum@CIocpServerImpl@@UEBAHXZ 0000000180018350 f   IocpServerImpl.obj
 0001:00017360       ?GetAddrAndPort@CIocpServerImpl@@AEAAHPEAUIOCPKEY@@PEAUIOCPIO@@@Z 0000000180018360 f   IocpServerImpl.obj
 0001:00017510       ?GetFunPointer@CIocpServerImpl@@AEAAHXZ 0000000180018510 f   IocpServerImpl.obj
 0001:000177f0       ?GetIdleAcceptNum@CIocpServerImpl@@AEAAHXZ 00000001800187f0 f   IocpServerImpl.obj
 0001:00017810       ?GetSockIdNum@CIocpServerImpl@@UEAAHXZ 0000000180018810 f   IocpServerImpl.obj
 0001:00017820       ?GetSockState@CIocpServerImpl@@UEAAHH@Z 0000000180018820 f   IocpServerImpl.obj
 0001:00017830       ?HandleData@CIocpServerImpl@@AEAAHPEAUIOCPKEY@@PEAUIOCPIO@@H@Z 0000000180018830 f   IocpServerImpl.obj
 0001:00017a00       ?IncIdleAcceptNum@CIocpServerImpl@@AEAAXXZ 0000000180018a00 f   IocpServerImpl.obj
 0001:00017a10       ?Init@CIocpServerImpl@@UEAAHJPEAXP6AHPEAUIOCPIO@@PEAUIOCPKEY@@H0H@Z@Z 0000000180018a10 f   IocpServerImpl.obj
 0001:00017d00       ?InitSocket@CIocpServerImpl@@AEAAHXZ 0000000180018d00 f   IocpServerImpl.obj
 0001:00017ea0       ?IsDisconnectEvent@CIocpServerImpl@@AEAAHHKPEAUIOCPIO@@@Z 0000000180018ea0 f   IocpServerImpl.obj
 0001:00017ec0       ?IsNeedDelay@CIocpServerImpl@@AEAA_NH@Z 0000000180018ec0 f   IocpServerImpl.obj
 0001:00017f60       ?MainLoop@CIocpServerImpl@@AEAAHXZ 0000000180018f60 f   IocpServerImpl.obj
 0001:00017f80       ?NotifySocketCancelDelay@CIocpServerImpl@@UEAAXH@Z 0000000180018f80 f   IocpServerImpl.obj
 0001:00018050       ?NotifySocketSetDelay@CIocpServerImpl@@UEAAXHH@Z 0000000180019050 f   IocpServerImpl.obj
 0001:000181b0       ?NotifyThreadExit@CIocpServerImpl@@AEAAXXZ 00000001800191b0 f   IocpServerImpl.obj
 0001:00018250       ?PostAcceptEx@CIocpServerImpl@@AEAAHXZ 0000000180019250 f   IocpServerImpl.obj
 0001:00018480       ?PostAcceptSocketWR@CIocpServerImpl@@AEAAHPEAUIOCPKEY@@PEAUIOCPIO@@K@Z 0000000180019480 f   IocpServerImpl.obj
 0001:000186b0       ?PostSomeAcceptEx@CIocpServerImpl@@AEAAXH@Z 00000001800196b0 f   IocpServerImpl.obj
 0001:00018710       ?PostSomeAcceptEx@CIocpServerImpl@@AEAAXXZ 0000000180019710 f   IocpServerImpl.obj
 0001:00018760       ?ReRegAcceptEvent@CIocpServerImpl@@AEAAHXZ 0000000180019760 f   IocpServerImpl.obj
 0001:000187b0       ?RegAcceptEvent@CIocpServerImpl@@AEAAHXZ 00000001800197b0 f   IocpServerImpl.obj
 0001:00018890       ?ReportIoInfo@CIocpServerImpl@@UEAAXAEAH0@Z 0000000180019890 f   IocpServerImpl.obj
 0001:000188d0       ?ReportKeyInfo@CIocpServerImpl@@UEAAXAEAH0@Z 00000001800198d0 f   IocpServerImpl.obj
 0001:00018910       ?ResetAcceptConNum@CIocpServerImpl@@UEAAXXZ 0000000180019910 f   IocpServerImpl.obj
 0001:00018920       ?SendIocp@CIocpServerImpl@@UEAAHHHPEBDHH@Z 0000000180019920 f   IocpServerImpl.obj
 0001:00018930       ?SetAcceptSocketOpt@CIocpServerImpl@@AEAAHPEAUIOCPIO@@@Z 0000000180019930 f   IocpServerImpl.obj
 0001:000189a0       ?SetParams@CIocpServerImpl@@UEAAXHHHH_N@Z 00000001800199a0 f   IocpServerImpl.obj
 0001:00018a10       ?StartThread@CIocpServerImpl@@AEAAHXZ 0000000180019a10 f   IocpServerImpl.obj
 0001:00018bd0       ?StartThreadAcceptEx@CIocpServerImpl@@AEAAHXZ 0000000180019bd0 f   IocpServerImpl.obj
 0001:00018c90       ?StartThreadCheckDelay@CIocpServerImpl@@AEAAHXZ 0000000180019c90 f   IocpServerImpl.obj
 0001:00018d50       ?TestMsg@@YAHXZ            0000000180019d50 f   IocpServerImpl.obj
 0001:00018d60       ?ThreadAcceptEx@CIocpServerImpl@@CAKPEAX@Z 0000000180019d60 f   IocpServerImpl.obj
 0001:00018d70       ?ThreadCheckDelaySockId@CIocpServerImpl@@CAKPEAX@Z 0000000180019d70 f   IocpServerImpl.obj
 0001:00018d80       ?UpdateKeyInfo@CIocpServerImpl@@UEAAHPEAUIOCPKEY@@HHHHEEPEBE@Z 0000000180019d80 f   IocpServerImpl.obj
 0001:00018dd0       ?_Buyheadnode@?$_Tree_alloc@$0A@U?$_Tree_base_types@U?$pair@$$CBHH@std@@V?$allocator@U?$pair@$$CBHH@std@@@2@@std@@@std@@QEAAPEAU?$_Tree_node@U?$pair@$$CBHH@std@@PEAX@2@XZ 0000000180019dd0 f i IocpServerImpl.obj
 0001:00018e20       ?_Buyheadnode@?$_Tree_alloc@$0A@U?$_Tree_base_types@U?$pair@$$CBHUDELAYINFO@@@std@@V?$allocator@U?$pair@$$CBHUDELAYINFO@@@std@@@2@@std@@@std@@QEAAPEAU?$_Tree_node@U?$pair@$$CBHUDELAYINFO@@@std@@PEAX@2@XZ 0000000180019e20 f i IocpServerImpl.obj
 0001:00018e70       ?_Buynode0@?$_Tree_buy@U?$pair@$$CBHUDELAYINFO@@@std@@V?$allocator@U?$pair@$$CBHUDELAYINFO@@@std@@@2@@std@@QEAAPEAU?$_Tree_node@U?$pair@$$CBHUDELAYINFO@@@std@@PEAX@2@XZ 0000000180019e70 f i IocpServerImpl.obj
 0001:00018ed0       ?_Color@?$_Tree_val@U?$_Tree_simple_types@U?$pair@$$CBHH@std@@@std@@@std@@SAAEADPEAU?$_Tree_node@U?$pair@$$CBHH@std@@PEAX@2@@Z 0000000180019ed0 f i IocpServerImpl.obj
 0001:00018ee0       ?_Color@?$_Tree_val@U?$_Tree_simple_types@U?$pair@$$CBHUDELAYINFO@@@std@@@std@@@std@@SAAEADPEAU?$_Tree_node@U?$pair@$$CBHUDELAYINFO@@@std@@PEAX@2@@Z 0000000180019ee0 f i IocpServerImpl.obj
 0001:00018ef0       ?_Destroy_if_not_nil@?$_Tree@V?$_Tmap_traits@HUDELAYINFO@@U?$less@H@std@@V?$allocator@U?$pair@$$CBHUDELAYINFO@@@std@@@3@$00@std@@@std@@IEAAXPEAU?$_Tree_node@U?$pair@$$CBHUDELAYINFO@@@std@@PEAX@2@@Z 0000000180019ef0 f i IocpServerImpl.obj
 0001:00018f00       ?_Destroy_if_not_nil@?$_Tree@V?$_Tmap_traits@HUDELAYINFO@@U?$less@H@std@@V?$allocator@U?$pair@$$CBHUDELAYINFO@@@std@@@3@$0A@@std@@@std@@IEAAXPEAU?$_Tree_node@U?$pair@$$CBHUDELAYINFO@@@std@@PEAX@2@@Z 0000000180019f00 f i IocpServerImpl.obj
 0001:00018f10       ?_Erase@?$_Tree@V?$_Tmap_traits@HHU?$less@H@std@@V?$allocator@U?$pair@$$CBHH@std@@@2@$0A@@std@@@std@@IEAAXPEAU?$_Tree_node@U?$pair@$$CBHH@std@@PEAX@2@@Z 0000000180019f10 f i IocpServerImpl.obj
 0001:00018f60       ?_Erase@?$_Tree@V?$_Tmap_traits@HUDELAYINFO@@U?$less@H@std@@V?$allocator@U?$pair@$$CBHUDELAYINFO@@@std@@@3@$00@std@@@std@@IEAAXPEAU?$_Tree_node@U?$pair@$$CBHUDELAYINFO@@@std@@PEAX@2@@Z 0000000180019f60 f i IocpServerImpl.obj
 0001:00018fb0       ?_Erase@?$_Tree@V?$_Tmap_traits@HUDELAYINFO@@U?$less@H@std@@V?$allocator@U?$pair@$$CBHUDELAYINFO@@@std@@@3@$0A@@std@@@std@@IEAAXPEAU?$_Tree_node@U?$pair@$$CBHUDELAYINFO@@@std@@PEAX@2@@Z 0000000180019fb0 f i IocpServerImpl.obj
 0001:00019000       ?_Freeheadnode@?$_Tree_alloc@$0A@U?$_Tree_base_types@U?$pair@$$CBHH@std@@V?$allocator@U?$pair@$$CBHH@std@@@2@@std@@@std@@QEAAXPEAU?$_Tree_node@U?$pair@$$CBHH@std@@PEAX@2@@Z 000000018001a000 f i IocpServerImpl.obj
 0001:00019010       ?_Freeheadnode@?$_Tree_alloc@$0A@U?$_Tree_base_types@U?$pair@$$CBHUDELAYINFO@@@std@@V?$allocator@U?$pair@$$CBHUDELAYINFO@@@std@@@2@@std@@@std@@QEAAXPEAU?$_Tree_node@U?$pair@$$CBHUDELAYINFO@@@std@@PEAX@2@@Z 000000018001a010 f i IocpServerImpl.obj
 0001:00019020       ?_Freenode0@?$_Tree_buy@U?$pair@$$CBHUDELAYINFO@@@std@@V?$allocator@U?$pair@$$CBHUDELAYINFO@@@std@@@2@@std@@QEAAXPEAU?$_Tree_node@U?$pair@$$CBHUDELAYINFO@@@std@@PEAX@2@@Z 000000018001a020 f i IocpServerImpl.obj
 0001:00019030       ?_Getal@?$_Tree_alloc@$0A@U?$_Tree_base_types@U?$pair@$$CBHH@std@@V?$allocator@U?$pair@$$CBHH@std@@@2@@std@@@std@@QEBA?AU?$_Wrap_alloc@V?$allocator@U?$_Tree_node@U?$pair@$$CBHH@std@@PEAX@std@@@std@@@2@XZ 000000018001a030 f i IocpServerImpl.obj
 0001:00019040       ?_Getal@?$_Tree_alloc@$0A@U?$_Tree_base_types@U?$pair@$$CBHUDELAYINFO@@@std@@V?$allocator@U?$pair@$$CBHUDELAYINFO@@@std@@@2@@std@@@std@@QEBA?AU?$_Wrap_alloc@V?$allocator@U?$_Tree_node@U?$pair@$$CBHUDELAYINFO@@@std@@PEAX@std@@@std@@@2@XZ 000000018001a040 f i IocpServerImpl.obj
 0001:00019050       ?_Getcomp@?$_Tree_comp@$0A@V?$_Tmap_traits@HUDELAYINFO@@U?$less@H@std@@V?$allocator@U?$pair@$$CBHUDELAYINFO@@@std@@@3@$00@std@@@std@@QEBA?AU?$less@H@2@XZ 000000018001a050 f i IocpServerImpl.obj
 0001:00019060       ?_Getcomp@?$_Tree_comp@$0A@V?$_Tmap_traits@HUDELAYINFO@@U?$less@H@std@@V?$allocator@U?$pair@$$CBHUDELAYINFO@@@std@@@3@$0A@@std@@@std@@QEBA?AU?$less@H@2@XZ 000000018001a060 f i IocpServerImpl.obj
 0001:00019070       ?_Isnil@?$_Tree_val@U?$_Tree_simple_types@U?$pair@$$CBHH@std@@@std@@@std@@SAAEADPEAU?$_Tree_node@U?$pair@$$CBHH@std@@PEAX@2@@Z 000000018001a070 f i IocpServerImpl.obj
 0001:00019080       ?_Isnil@?$_Tree_val@U?$_Tree_simple_types@U?$pair@$$CBHUDELAYINFO@@@std@@@std@@@std@@SAAEADPEAU?$_Tree_node@U?$pair@$$CBHUDELAYINFO@@@std@@PEAX@2@@Z 000000018001a080 f i IocpServerImpl.obj
 0001:00019090       ?_Key@?$_Tree@V?$_Tmap_traits@HUDELAYINFO@@U?$less@H@std@@V?$allocator@U?$pair@$$CBHUDELAYINFO@@@std@@@3@$00@std@@@std@@IEBAAEBHPEAU?$_Tree_node@U?$pair@$$CBHUDELAYINFO@@@std@@PEAX@2@@Z 000000018001a090 f i IocpServerImpl.obj
 0001:000190a0       ?_Key@?$_Tree@V?$_Tmap_traits@HUDELAYINFO@@U?$less@H@std@@V?$allocator@U?$pair@$$CBHUDELAYINFO@@@std@@@3@$0A@@std@@@std@@IEBAAEBHPEAU?$_Tree_node@U?$pair@$$CBHUDELAYINFO@@@std@@PEAX@2@@Z 000000018001a0a0 f i IocpServerImpl.obj
 0001:000190b0       ?_Kfn@?$_Tree@V?$_Tmap_traits@HUDELAYINFO@@U?$less@H@std@@V?$allocator@U?$pair@$$CBHUDELAYINFO@@@std@@@3@$00@std@@@std@@IEBAAEBHAEBU?$pair@$$CBHUDELAYINFO@@@2@@Z 000000018001a0b0 f i IocpServerImpl.obj
 0001:000190c0       ?_Kfn@?$_Tree@V?$_Tmap_traits@HUDELAYINFO@@U?$less@H@std@@V?$allocator@U?$pair@$$CBHUDELAYINFO@@@std@@@3@$0A@@std@@@std@@IEBAAEBHAEBU?$pair@$$CBHUDELAYINFO@@@2@@Z 000000018001a0c0 f i IocpServerImpl.obj
 0001:000190d0       ?_Lbound@?$_Tree@V?$_Tmap_traits@HUDELAYINFO@@U?$less@H@std@@V?$allocator@U?$pair@$$CBHUDELAYINFO@@@std@@@3@$0A@@std@@@std@@IEAAPEAU?$_Tree_node@U?$pair@$$CBHUDELAYINFO@@@std@@PEAX@2@AEBH@Z 000000018001a0d0 f i IocpServerImpl.obj
 0001:00019100       ?_Lbound@?$_Tree@V?$_Tmap_traits@V?$basic_string@DU?$char_traits@D@std@@V?$allocator@D@2@@std@@HU?$less@V?$basic_string@DU?$char_traits@D@std@@V?$allocator@D@2@@std@@@2@V?$allocator@U?$pair@$$CBV?$basic_string@DU?$char_traits@D@std@@V?$allocator@D@2@@std@@H@std@@@2@$0A@@std@@@std@@IEAAPEAU?$_Tree_node@U?$pair@$$CBV?$basic_string@DU?$char_traits@D@std@@V?$allocator@D@2@@std@@H@std@@PEAX@2@AEBV?$basic_string@DU?$char_traits@D@std@@V?$allocator@D@2@@2@@Z 000000018001a100 f i IocpServerImpl.obj
 0001:000191b0       ?_Left@?$_Tree_val@U?$_Tree_simple_types@U?$pair@$$CBHH@std@@@std@@@std@@SAAEAPEAU?$_Tree_node@U?$pair@$$CBHH@std@@PEAX@2@PEAU32@@Z 000000018001a1b0 f i IocpServerImpl.obj
 0001:000191c0       ?_Left@?$_Tree_val@U?$_Tree_simple_types@U?$pair@$$CBHUDELAYINFO@@@std@@@std@@@std@@SAAEAPEAU?$_Tree_node@U?$pair@$$CBHUDELAYINFO@@@std@@PEAX@2@PEAU32@@Z 000000018001a1c0 f i IocpServerImpl.obj
 0001:000191d0       ?_Lmost@?$_Tree@V?$_Tmap_traits@HHU?$less@H@std@@V?$allocator@U?$pair@$$CBHH@std@@@2@$0A@@std@@@std@@IEBAAEAPEAU?$_Tree_node@U?$pair@$$CBHH@std@@PEAX@2@XZ 000000018001a1d0 f i IocpServerImpl.obj
 0001:000191e0       ?_Lmost@?$_Tree@V?$_Tmap_traits@HUDELAYINFO@@U?$less@H@std@@V?$allocator@U?$pair@$$CBHUDELAYINFO@@@std@@@3@$00@std@@@std@@IEBAAEAPEAU?$_Tree_node@U?$pair@$$CBHUDELAYINFO@@@std@@PEAX@2@XZ 000000018001a1e0 f i IocpServerImpl.obj
 0001:000191f0       ?_Lmost@?$_Tree@V?$_Tmap_traits@HUDELAYINFO@@U?$less@H@std@@V?$allocator@U?$pair@$$CBHUDELAYINFO@@@std@@@3@$0A@@std@@@std@@IEBAAEAPEAU?$_Tree_node@U?$pair@$$CBHUDELAYINFO@@@std@@PEAX@2@XZ 000000018001a1f0 f i IocpServerImpl.obj
 0001:00019200       ?_Lrotate@?$_Tree@V?$_Tmap_traits@HHU?$less@H@std@@V?$allocator@U?$pair@$$CBHH@std@@@2@$0A@@std@@@std@@IEAAXPEAU?$_Tree_node@U?$pair@$$CBHH@std@@PEAX@2@@Z 000000018001a200 f i IocpServerImpl.obj
 0001:00019260       ?_Lrotate@?$_Tree@V?$_Tmap_traits@HUDELAYINFO@@U?$less@H@std@@V?$allocator@U?$pair@$$CBHUDELAYINFO@@@std@@@3@$00@std@@@std@@IEAAXPEAU?$_Tree_node@U?$pair@$$CBHUDELAYINFO@@@std@@PEAX@2@@Z 000000018001a260 f i IocpServerImpl.obj
 0001:000192c0       ?_Lrotate@?$_Tree@V?$_Tmap_traits@HUDELAYINFO@@U?$less@H@std@@V?$allocator@U?$pair@$$CBHUDELAYINFO@@@std@@@3@$0A@@std@@@std@@IEAAXPEAU?$_Tree_node@U?$pair@$$CBHUDELAYINFO@@@std@@PEAX@2@@Z 000000018001a2c0 f i IocpServerImpl.obj
 0001:00019320       ?_Max@?$_Tree_val@U?$_Tree_simple_types@U?$pair@$$CBHH@std@@@std@@@std@@SAPEAU?$_Tree_node@U?$pair@$$CBHH@std@@PEAX@2@PEAU32@@Z 000000018001a320 f i IocpServerImpl.obj
 0001:00019350       ?_Max@?$_Tree_val@U?$_Tree_simple_types@U?$pair@$$CBHUDELAYINFO@@@std@@@std@@@std@@SAPEAU?$_Tree_node@U?$pair@$$CBHUDELAYINFO@@@std@@PEAX@2@PEAU32@@Z 000000018001a350 f i IocpServerImpl.obj
 0001:00019380       ?_Min@?$_Tree_val@U?$_Tree_simple_types@U?$pair@$$CBHH@std@@@std@@@std@@SAPEAU?$_Tree_node@U?$pair@$$CBHH@std@@PEAX@2@PEAU32@@Z 000000018001a380 f i IocpServerImpl.obj
 0001:000193a0       ?_Min@?$_Tree_val@U?$_Tree_simple_types@U?$pair@$$CBHUDELAYINFO@@@std@@@std@@@std@@SAPEAU?$_Tree_node@U?$pair@$$CBHUDELAYINFO@@@std@@PEAX@2@PEAU32@@Z 000000018001a3a0 f i IocpServerImpl.obj
 0001:000193c0       ?_Mynode@?$_Tree_unchecked_const_iterator@V?$_Tree_val@U?$_Tree_simple_types@U?$pair@$$CBHH@std@@@std@@@std@@U_Iterator_base0@2@@std@@QEBAPEAU?$_Tree_node@U?$pair@$$CBHH@std@@PEAX@2@XZ 000000018001a3c0 f i IocpServerImpl.obj
 0001:000193d0       ?_Mynode@?$_Tree_unchecked_const_iterator@V?$_Tree_val@U?$_Tree_simple_types@U?$pair@$$CBHUDELAYINFO@@@std@@@std@@@std@@U_Iterator_base0@2@@std@@QEBAPEAU?$_Tree_node@U?$pair@$$CBHUDELAYINFO@@@std@@PEAX@2@XZ 000000018001a3d0 f i IocpServerImpl.obj
 0001:000193e0       ?_Myval@?$_Tree_val@U?$_Tree_simple_types@U?$pair@$$CBHH@std@@@std@@@std@@SAAEAU?$pair@$$CBHH@2@PEAU?$_Tree_node@U?$pair@$$CBHH@std@@PEAX@2@@Z 000000018001a3e0 f i IocpServerImpl.obj
 0001:000193f0       ?_Myval@?$_Tree_val@U?$_Tree_simple_types@U?$pair@$$CBHUDELAYINFO@@@std@@@std@@@std@@SAAEAU?$pair@$$CBHUDELAYINFO@@@2@PEAU?$_Tree_node@U?$pair@$$CBHUDELAYINFO@@@std@@PEAX@2@@Z 000000018001a3f0 f i IocpServerImpl.obj
 0001:00019400       ?_Parent@?$_Tree_val@U?$_Tree_simple_types@U?$pair@$$CBHH@std@@@std@@@std@@SAAEAPEAU?$_Tree_node@U?$pair@$$CBHH@std@@PEAX@2@PEAU32@@Z 000000018001a400 f i IocpServerImpl.obj
 0001:00019410       ?_Parent@?$_Tree_val@U?$_Tree_simple_types@U?$pair@$$CBHUDELAYINFO@@@std@@@std@@@std@@SAAEAPEAU?$_Tree_node@U?$pair@$$CBHUDELAYINFO@@@std@@PEAX@2@PEAU32@@Z 000000018001a410 f i IocpServerImpl.obj
 0001:00019420       ?_Right@?$_Tree_val@U?$_Tree_simple_types@U?$pair@$$CBHH@std@@@std@@@std@@SAAEAPEAU?$_Tree_node@U?$pair@$$CBHH@std@@PEAX@2@PEAU32@@Z 000000018001a420 f i IocpServerImpl.obj
 0001:00019430       ?_Right@?$_Tree_val@U?$_Tree_simple_types@U?$pair@$$CBHUDELAYINFO@@@std@@@std@@@std@@SAAEAPEAU?$_Tree_node@U?$pair@$$CBHUDELAYINFO@@@std@@PEAX@2@PEAU32@@Z 000000018001a430 f i IocpServerImpl.obj
 0001:00019440       ?_Rmost@?$_Tree@V?$_Tmap_traits@HHU?$less@H@std@@V?$allocator@U?$pair@$$CBHH@std@@@2@$0A@@std@@@std@@IEBAAEAPEAU?$_Tree_node@U?$pair@$$CBHH@std@@PEAX@2@XZ 000000018001a440 f i IocpServerImpl.obj
 0001:00019450       ?_Rmost@?$_Tree@V?$_Tmap_traits@HUDELAYINFO@@U?$less@H@std@@V?$allocator@U?$pair@$$CBHUDELAYINFO@@@std@@@3@$00@std@@@std@@IEBAAEAPEAU?$_Tree_node@U?$pair@$$CBHUDELAYINFO@@@std@@PEAX@2@XZ 000000018001a450 f i IocpServerImpl.obj
 0001:00019460       ?_Rmost@?$_Tree@V?$_Tmap_traits@HUDELAYINFO@@U?$less@H@std@@V?$allocator@U?$pair@$$CBHUDELAYINFO@@@std@@@3@$0A@@std@@@std@@IEBAAEAPEAU?$_Tree_node@U?$pair@$$CBHUDELAYINFO@@@std@@PEAX@2@XZ 000000018001a460 f i IocpServerImpl.obj
 0001:00019470       ?_Root@?$_Tree@V?$_Tmap_traits@HHU?$less@H@std@@V?$allocator@U?$pair@$$CBHH@std@@@2@$0A@@std@@@std@@IEBAAEAPEAU?$_Tree_node@U?$pair@$$CBHH@std@@PEAX@2@XZ 000000018001a470 f i IocpServerImpl.obj
 0001:00019480       ?_Root@?$_Tree@V?$_Tmap_traits@HUDELAYINFO@@U?$less@H@std@@V?$allocator@U?$pair@$$CBHUDELAYINFO@@@std@@@3@$00@std@@@std@@IEBAAEAPEAU?$_Tree_node@U?$pair@$$CBHUDELAYINFO@@@std@@PEAX@2@XZ 000000018001a480 f i IocpServerImpl.obj
 0001:00019490       ?_Root@?$_Tree@V?$_Tmap_traits@HUDELAYINFO@@U?$less@H@std@@V?$allocator@U?$pair@$$CBHUDELAYINFO@@@std@@@3@$0A@@std@@@std@@IEBAAEAPEAU?$_Tree_node@U?$pair@$$CBHUDELAYINFO@@@std@@PEAX@2@XZ 000000018001a490 f i IocpServerImpl.obj
 0001:000194a0       ?_Rrotate@?$_Tree@V?$_Tmap_traits@HHU?$less@H@std@@V?$allocator@U?$pair@$$CBHH@std@@@2@$0A@@std@@@std@@IEAAXPEAU?$_Tree_node@U?$pair@$$CBHH@std@@PEAX@2@@Z 000000018001a4a0 f i IocpServerImpl.obj
 0001:00019500       ?_Rrotate@?$_Tree@V?$_Tmap_traits@HUDELAYINFO@@U?$less@H@std@@V?$allocator@U?$pair@$$CBHUDELAYINFO@@@std@@@3@$00@std@@@std@@IEAAXPEAU?$_Tree_node@U?$pair@$$CBHUDELAYINFO@@@std@@PEAX@2@@Z 000000018001a500 f i IocpServerImpl.obj
 0001:00019560       ?_Rrotate@?$_Tree@V?$_Tmap_traits@HUDELAYINFO@@U?$less@H@std@@V?$allocator@U?$pair@$$CBHUDELAYINFO@@@std@@@3@$0A@@std@@@std@@IEAAXPEAU?$_Tree_node@U?$pair@$$CBHUDELAYINFO@@@std@@PEAX@2@@Z 000000018001a560 f i IocpServerImpl.obj
 0001:000195c0       ?_Tidy@?$_Tree@V?$_Tmap_traits@HHU?$less@H@std@@V?$allocator@U?$pair@$$CBHH@std@@@2@$0A@@std@@@std@@IEAAXXZ 000000018001a5c0 f i IocpServerImpl.obj
 0001:000195e0       ?_Tidy@?$_Tree@V?$_Tmap_traits@HUDELAYINFO@@U?$less@H@std@@V?$allocator@U?$pair@$$CBHUDELAYINFO@@@std@@@3@$00@std@@@std@@IEAAXXZ 000000018001a5e0 f i IocpServerImpl.obj
 0001:00019600       ?_Tidy@?$_Tree@V?$_Tmap_traits@HUDELAYINFO@@U?$less@H@std@@V?$allocator@U?$pair@$$CBHUDELAYINFO@@@std@@@3@$0A@@std@@@std@@IEAAXXZ 000000018001a600 f i IocpServerImpl.obj
 0001:00019620       ?allocate@?$_Wrap_alloc@V?$allocator@U?$_Tree_node@U?$pair@$$CBHH@std@@PEAX@std@@@std@@@std@@QEAAPEAU?$_Tree_node@U?$pair@$$CBHH@std@@PEAX@2@_K@Z 000000018001a620 f i IocpServerImpl.obj
 0001:00019660       ?allocate@?$_Wrap_alloc@V?$allocator@U?$_Tree_node@U?$pair@$$CBHUDELAYINFO@@@std@@PEAX@std@@@std@@@std@@QEAAPEAU?$_Tree_node@U?$pair@$$CBHUDELAYINFO@@@std@@PEAX@2@_K@Z 000000018001a660 f i IocpServerImpl.obj
 0001:000196a0       ?allocate@?$allocator@U?$_Tree_node@U?$pair@$$CBHH@std@@PEAX@std@@@std@@QEAAPEAU?$_Tree_node@U?$pair@$$CBHH@std@@PEAX@2@_K@Z 000000018001a6a0 f i IocpServerImpl.obj
 0001:000196e0       ?allocate@?$allocator@U?$_Tree_node@U?$pair@$$CBHUDELAYINFO@@@std@@PEAX@std@@@std@@QEAAPEAU?$_Tree_node@U?$pair@$$CBHUDELAYINFO@@@std@@PEAX@2@_K@Z 000000018001a6e0 f i IocpServerImpl.obj
 0001:00019720       ?begin@?$_Tree@V?$_Tmap_traits@HHU?$less@H@std@@V?$allocator@U?$pair@$$CBHH@std@@@2@$0A@@std@@@std@@QEAA?AV?$_Tree_iterator@V?$_Tree_val@U?$_Tree_simple_types@U?$pair@$$CBHH@std@@@std@@@std@@@2@XZ 000000018001a720 f i IocpServerImpl.obj
 0001:00019730       ?begin@?$_Tree@V?$_Tmap_traits@HUDELAYINFO@@U?$less@H@std@@V?$allocator@U?$pair@$$CBHUDELAYINFO@@@std@@@3@$00@std@@@std@@QEAA?AV?$_Tree_iterator@V?$_Tree_val@U?$_Tree_simple_types@U?$pair@$$CBHUDELAYINFO@@@std@@@std@@@std@@@2@XZ 000000018001a730 f i IocpServerImpl.obj
 0001:00019740       ?begin@?$_Tree@V?$_Tmap_traits@HUDELAYINFO@@U?$less@H@std@@V?$allocator@U?$pair@$$CBHUDELAYINFO@@@std@@@3@$0A@@std@@@std@@QEAA?AV?$_Tree_iterator@V?$_Tree_val@U?$_Tree_simple_types@U?$pair@$$CBHUDELAYINFO@@@std@@@std@@@std@@@2@XZ 000000018001a740 f i IocpServerImpl.obj
 0001:00019750       ?clear@?$_Tree@V?$_Tmap_traits@HHU?$less@H@std@@V?$allocator@U?$pair@$$CBHH@std@@@2@$0A@@std@@@std@@QEAAXXZ 000000018001a750 f i IocpServerImpl.obj
 0001:000197c0       ?clear@?$_Tree@V?$_Tmap_traits@HUDELAYINFO@@U?$less@H@std@@V?$allocator@U?$pair@$$CBHUDELAYINFO@@@std@@@3@$00@std@@@std@@QEAAXXZ 000000018001a7c0 f i IocpServerImpl.obj
 0001:00019830       ?clear@?$_Tree@V?$_Tmap_traits@HUDELAYINFO@@U?$less@H@std@@V?$allocator@U?$pair@$$CBHUDELAYINFO@@@std@@@3@$0A@@std@@@std@@QEAAXXZ 000000018001a830 f i IocpServerImpl.obj
 0001:000198a0       ?deallocate@?$_Wrap_alloc@V?$allocator@U?$_Tree_node@U?$pair@$$CBHH@std@@PEAX@std@@@std@@@std@@QEAAXPEAU?$_Tree_node@U?$pair@$$CBHH@std@@PEAX@2@_K@Z 000000018001a8a0 f i IocpServerImpl.obj
 0001:000198b0       ?deallocate@?$_Wrap_alloc@V?$allocator@U?$_Tree_node@U?$pair@$$CBHUDELAYINFO@@@std@@PEAX@std@@@std@@@std@@QEAAXPEAU?$_Tree_node@U?$pair@$$CBHUDELAYINFO@@@std@@PEAX@2@_K@Z 000000018001a8b0 f i IocpServerImpl.obj
 0001:000198c0       ?deallocate@?$allocator@U?$_Tree_node@U?$pair@$$CBHH@std@@PEAX@std@@@std@@QEAAXPEAU?$_Tree_node@U?$pair@$$CBHH@std@@PEAX@2@_K@Z 000000018001a8c0 f i IocpServerImpl.obj
 0001:000198d0       ?deallocate@?$allocator@U?$_Tree_node@U?$pair@$$CBHUDELAYINFO@@@std@@PEAX@std@@@std@@QEAAXPEAU?$_Tree_node@U?$pair@$$CBHUDELAYINFO@@@std@@PEAX@2@_K@Z 000000018001a8d0 f i IocpServerImpl.obj
 0001:000198e0       ?end@?$_Tree@V?$_Tmap_traits@HHU?$less@H@std@@V?$allocator@U?$pair@$$CBHH@std@@@2@$0A@@std@@@std@@QEAA?AV?$_Tree_iterator@V?$_Tree_val@U?$_Tree_simple_types@U?$pair@$$CBHH@std@@@std@@@std@@@2@XZ 000000018001a8e0 f i IocpServerImpl.obj
 0001:000198f0       ?end@?$_Tree@V?$_Tmap_traits@HUDELAYINFO@@U?$less@H@std@@V?$allocator@U?$pair@$$CBHUDELAYINFO@@@std@@@3@$00@std@@@std@@QEAA?AV?$_Tree_iterator@V?$_Tree_val@U?$_Tree_simple_types@U?$pair@$$CBHUDELAYINFO@@@std@@@std@@@std@@@2@XZ 000000018001a8f0 f i IocpServerImpl.obj
 0001:00019900       ?end@?$_Tree@V?$_Tmap_traits@HUDELAYINFO@@U?$less@H@std@@V?$allocator@U?$pair@$$CBHUDELAYINFO@@@std@@@3@$0A@@std@@@std@@QEAA?AV?$_Tree_iterator@V?$_Tree_val@U?$_Tree_simple_types@U?$pair@$$CBHUDELAYINFO@@@std@@@std@@@std@@@2@XZ 000000018001a900 f i IocpServerImpl.obj
 0001:00019910       ?erase@?$_Tree@V?$_Tmap_traits@HHU?$less@H@std@@V?$allocator@U?$pair@$$CBHH@std@@@2@$0A@@std@@@std@@QEAA?AV?$_Tree_iterator@V?$_Tree_val@U?$_Tree_simple_types@U?$pair@$$CBHH@std@@@std@@@std@@@2@V?$_Tree_const_iterator@V?$_Tree_val@U?$_Tree_simple_types@U?$pair@$$CBHH@std@@@std@@@std@@@2@0@Z 000000018001a910 f i IocpServerImpl.obj
 0001:000199f0       ?erase@?$_Tree@V?$_Tmap_traits@HHU?$less@H@std@@V?$allocator@U?$pair@$$CBHH@std@@@2@$0A@@std@@@std@@QEAA?AV?$_Tree_iterator@V?$_Tree_val@U?$_Tree_simple_types@U?$pair@$$CBHH@std@@@std@@@std@@@2@V?$_Tree_const_iterator@V?$_Tree_val@U?$_Tree_simple_types@U?$pair@$$CBHH@std@@@std@@@std@@@2@@Z 000000018001a9f0 f i IocpServerImpl.obj
 0001:00019dc0       ?erase@?$_Tree@V?$_Tmap_traits@HUDELAYINFO@@U?$less@H@std@@V?$allocator@U?$pair@$$CBHUDELAYINFO@@@std@@@3@$00@std@@@std@@QEAA?AV?$_Tree_iterator@V?$_Tree_val@U?$_Tree_simple_types@U?$pair@$$CBHUDELAYINFO@@@std@@@std@@@std@@@2@V?$_Tree_const_iterator@V?$_Tree_val@U?$_Tree_simple_types@U?$pair@$$CBHUDELAYINFO@@@std@@@std@@@std@@@2@0@Z 000000018001adc0 f i IocpServerImpl.obj
 0001:00019ea0       ?erase@?$_Tree@V?$_Tmap_traits@HUDELAYINFO@@U?$less@H@std@@V?$allocator@U?$pair@$$CBHUDELAYINFO@@@std@@@3@$00@std@@@std@@QEAA?AV?$_Tree_iterator@V?$_Tree_val@U?$_Tree_simple_types@U?$pair@$$CBHUDELAYINFO@@@std@@@std@@@std@@@2@V?$_Tree_const_iterator@V?$_Tree_val@U?$_Tree_simple_types@U?$pair@$$CBHUDELAYINFO@@@std@@@std@@@std@@@2@@Z 000000018001aea0 f i IocpServerImpl.obj
 0001:0001a270       ?erase@?$_Tree@V?$_Tmap_traits@HUDELAYINFO@@U?$less@H@std@@V?$allocator@U?$pair@$$CBHUDELAYINFO@@@std@@@3@$0A@@std@@@std@@QEAA?AV?$_Tree_iterator@V?$_Tree_val@U?$_Tree_simple_types@U?$pair@$$CBHUDELAYINFO@@@std@@@std@@@std@@@2@V?$_Tree_const_iterator@V?$_Tree_val@U?$_Tree_simple_types@U?$pair@$$CBHUDELAYINFO@@@std@@@std@@@std@@@2@0@Z 000000018001b270 f i IocpServerImpl.obj
 0001:0001a350       ?erase@?$_Tree@V?$_Tmap_traits@HUDELAYINFO@@U?$less@H@std@@V?$allocator@U?$pair@$$CBHUDELAYINFO@@@std@@@3@$0A@@std@@@std@@QEAA?AV?$_Tree_iterator@V?$_Tree_val@U?$_Tree_simple_types@U?$pair@$$CBHUDELAYINFO@@@std@@@std@@@std@@@2@V?$_Tree_const_iterator@V?$_Tree_val@U?$_Tree_simple_types@U?$pair@$$CBHUDELAYINFO@@@std@@@std@@@std@@@2@@Z 000000018001b350 f i IocpServerImpl.obj
 0001:0001a720       ?find@?$_Tree@V?$_Tmap_traits@HUDELAYINFO@@U?$less@H@std@@V?$allocator@U?$pair@$$CBHUDELAYINFO@@@std@@@3@$0A@@std@@@std@@QEAA?AV?$_Tree_iterator@V?$_Tree_val@U?$_Tree_simple_types@U?$pair@$$CBHUDELAYINFO@@@std@@@std@@@std@@@2@AEBH@Z 000000018001b720 f i IocpServerImpl.obj
 0001:0001a780       ?find@?$_Tree@V?$_Tmap_traits@V?$basic_string@DU?$char_traits@D@std@@V?$allocator@D@2@@std@@HU?$less@V?$basic_string@DU?$char_traits@D@std@@V?$allocator@D@2@@std@@@2@V?$allocator@U?$pair@$$CBV?$basic_string@DU?$char_traits@D@std@@V?$allocator@D@2@@std@@H@std@@@2@$0A@@std@@@std@@QEAA?AV?$_Tree_iterator@V?$_Tree_val@U?$_Tree_simple_types@U?$pair@$$CBV?$basic_string@DU?$char_traits@D@std@@V?$allocator@D@2@@std@@H@std@@@std@@@std@@@2@AEBV?$basic_string@DU?$char_traits@D@std@@V?$allocator@D@2@@2@@Z 000000018001b780 f i IocpServerImpl.obj
 0001:0001a7f0       ?funcCheckDelaySockId@CIocpServerImpl@@AEAAXXZ 000000018001b7f0 f   IocpServerImpl.obj
 0001:0001a8e0       ?funcCompletionRoutine@CIocpServerImpl@@AEAAXXZ 000000018001b8e0 f   IocpServerImpl.obj
 0001:0001ab80       ?funcThreadAeecptEx@CIocpServerImpl@@AEAAXXZ 000000018001bb80 f   IocpServerImpl.obj
 0001:0001ad50       ?lower_bound@?$_Tree@V?$_Tmap_traits@HUDELAYINFO@@U?$less@H@std@@V?$allocator@U?$pair@$$CBHUDELAYINFO@@@std@@@3@$0A@@std@@@std@@QEAA?AV?$_Tree_iterator@V?$_Tree_val@U?$_Tree_simple_types@U?$pair@$$CBHUDELAYINFO@@@std@@@std@@@std@@@2@AEBH@Z 000000018001bd50 f i IocpServerImpl.obj
 0001:0001ad80       ?lower_bound@?$_Tree@V?$_Tmap_traits@V?$basic_string@DU?$char_traits@D@std@@V?$allocator@D@2@@std@@HU?$less@V?$basic_string@DU?$char_traits@D@std@@V?$allocator@D@2@@std@@@2@V?$allocator@U?$pair@$$CBV?$basic_string@DU?$char_traits@D@std@@V?$allocator@D@2@@std@@H@std@@@2@$0A@@std@@@std@@QEAA?AV?$_Tree_iterator@V?$_Tree_val@U?$_Tree_simple_types@U?$pair@$$CBV?$basic_string@DU?$char_traits@D@std@@V?$allocator@D@2@@std@@H@std@@@std@@@std@@@2@AEBV?$basic_string@DU?$char_traits@D@std@@V?$allocator@D@2@@2@@Z 000000018001bd80 f i IocpServerImpl.obj
 0001:0001ada0       ?max_size@?$_Tree@V?$_Tmap_traits@HUDELAYINFO@@U?$less@H@std@@V?$allocator@U?$pair@$$CBHUDELAYINFO@@@std@@@3@$00@std@@@std@@QEBA_KXZ 000000018001bda0 f i IocpServerImpl.obj
 0001:0001adb0       ?max_size@?$_Tree@V?$_Tmap_traits@HUDELAYINFO@@U?$less@H@std@@V?$allocator@U?$pair@$$CBHUDELAYINFO@@@std@@@3@$0A@@std@@@std@@QEBA_KXZ 000000018001bdb0 f i IocpServerImpl.obj
 0001:0001adc0       ?max_size@?$_Wrap_alloc@V?$allocator@U?$_Tree_node@U?$pair@$$CBHUDELAYINFO@@@std@@PEAX@std@@@std@@@std@@QEBA_KXZ 000000018001bdc0 f i IocpServerImpl.obj
 0001:0001add0       ?max_size@?$allocator@U?$_Tree_node@U?$pair@$$CBHUDELAYINFO@@@std@@PEAX@std@@@std@@QEBA_KXZ 000000018001bdd0 f i IocpServerImpl.obj
 0001:0001ade0       ?max_size@?$allocator_traits@V?$allocator@U?$_Tree_node@U?$pair@$$CBHUDELAYINFO@@@std@@PEAX@std@@@std@@@std@@SA_KAEBV?$allocator@U?$_Tree_node@U?$pair@$$CBHUDELAYINFO@@@std@@PEAX@std@@@2@@Z 000000018001bde0 f i IocpServerImpl.obj
 0001:0001adf0       ?pointer_to@?$pointer_traits@PEAU?$pair@$$CBHUDELAYINFO@@@std@@@std@@SAPEAU?$pair@$$CBHUDELAYINFO@@@2@AEAU32@@Z 000000018001bdf0 f i IocpServerImpl.obj
 0001:0001ae10       ??0LockBase@@QEAA@XZ       000000018001be10 f   LockBase.obj
 0001:0001ae20       ??1LockBase@@UEAA@XZ       000000018001be20 f   LockBase.obj
 0001:0001ae30       ??_GLockBase@@UEAAPEAXI@Z  000000018001be30 f i LockBase.obj
 0001:0001ae30       ??_ELockBase@@UEAAPEAXI@Z  000000018001be30 f i LockBase.obj
 0001:0001ae60       ?ByteToDWord@@YAXPEAKPEAEI@Z 000000018001be60 f   md5.obj
 0001:0001aeb0       ?FF@@YAXAEAKKKKKKK@Z       000000018001beb0 f i md5.obj
 0001:0001aee0       ?Final@@YAXPEAEPEAK10@Z    000000018001bee0 f   md5.obj
 0001:0001af90       ?GG@@YAXAEAKKKKKKK@Z       000000018001bf90 f i md5.obj
 0001:0001afc0       ?GetMD5@@YAXPEAEI0@Z       000000018001bfc0 f   md5.obj
 0001:0001b050       ?HH@@YAXAEAKKKKKKK@Z       000000018001c050 f i md5.obj
 0001:0001b080       ?II@@YAXAEAKKKKKKK@Z       000000018001c080 f i md5.obj
 0001:0001b0b0       ?InitMd5Var@@YAXPEAEPEAK1@Z 000000018001c0b0 f   md5.obj
 0001:0001b100       ?RotateLeft@@YAKKH@Z       000000018001c100 f i md5.obj
 0001:0001b110       ?Transform@@YAXQEAEPEAK@Z  000000018001c110 f   md5.obj
 0001:0001b9a0       ?ULongToUInt8@@YAXPEAEPEAKI@Z 000000018001c9a0 f   md5.obj
 0001:0001b9f0       ?Update@@YAXPEAEKPEAK01@Z  000000018001c9f0 f   md5.obj
 0001:0001bad0       ??0SafeLock@@QEAA@PEAVLockBase@@@Z 000000018001cad0 f   SafeLock.obj
 0001:0001bb00       ??0SafeLock@@QEAA@XZ       000000018001cb00 f   SafeLock.obj
 0001:0001bb20       ??1SafeLock@@UEAA@XZ       000000018001cb20 f   SafeLock.obj
 0001:0001bb50       ??_GSafeLock@@UEAAPEAXI@Z  000000018001cb50 f i SafeLock.obj
 0001:0001bb50       ??_ESafeLock@@UEAAPEAXI@Z  000000018001cb50 f i SafeLock.obj
 0001:0001bb80       ??$_Allocate@_W@std@@YAPEA_W_KPEA_W@Z 000000018001cb80 f i UTF-8.obj
 0001:0001bbc0       ??$_Destroy_range@U?$_Wrap_alloc@V?$allocator@_W@std@@@std@@@std@@YAXPEA_W0AEAU?$_Wrap_alloc@V?$allocator@_W@std@@@0@@Z 000000018001cbc0 f i UTF-8.obj
 0001:0001bbd0       ??$_Destroy_range@U?$_Wrap_alloc@V?$allocator@_W@std@@@std@@@std@@YAXPEA_W0AEAU?$_Wrap_alloc@V?$allocator@_W@std@@@0@U_Scalar_ptr_iterator_tag@0@@Z 000000018001cbd0 f i UTF-8.obj
 0001:0001bbe0       ??$_Fill_n@PEA_W_K_W@std@@YAPEA_WPEA_W_KAEB_W@Z 000000018001cbe0 f i UTF-8.obj
 0001:0001bc10       ??$_Ptr_cat@_W_W@std@@YA?AU_Scalar_ptr_iterator_tag@0@PEA_W0@Z 000000018001cc10 f i UTF-8.obj
 0001:0001bc20       ??$_Uninit_fill_n@_W_K_W_W@std@@YAXPEA_W_KPEB_WAEAU?$_Wrap_alloc@V?$allocator@_W@std@@@0@0U_Scalar_ptr_iterator_tag@0@@Z 000000018001cc20 f i UTF-8.obj
 0001:0001bc50       ??$_Uninitialized_fill_n@PEA_W_K_WU?$_Wrap_alloc@V?$allocator@_W@std@@@std@@@std@@YAXPEA_W_KPEB_WAEAU?$_Wrap_alloc@V?$allocator@_W@std@@@0@@Z 000000018001cc50 f i UTF-8.obj
 0001:0001bc80       ??$_Val_type@PEA_W@std@@YAPEA_WPEA_W@Z 000000018001cc80 f i UTF-8.obj
 0001:0001bc90       ??$addressof@$$CB_W@std@@YAPEB_WAEB_W@Z 000000018001cc90 f i UTF-8.obj
 0001:0001bca0       ??0?$_Vector_alloc@$0A@U?$_Vec_base_types@_WV?$allocator@_W@std@@@std@@@std@@QEAA@AEBV?$allocator@_W@1@@Z 000000018001cca0 f i UTF-8.obj
 0001:0001bcc0       ??0?$_Vector_val@U?$_Simple_types@_W@std@@@std@@QEAA@XZ 000000018001ccc0 f i UTF-8.obj
 0001:0001bce0       ??0?$_Wrap_alloc@V?$allocator@_W@std@@@std@@QEAA@XZ 000000018001cce0 f i UTF-8.obj
 0001:0001bcf0       ??0?$allocator@_W@std@@QEAA@XZ 000000018001ccf0 f i UTF-8.obj
 0001:0001bd00       ??0?$vector@_WV?$allocator@_W@std@@@std@@QEAA@_KAEB_W@Z 000000018001cd00 f i UTF-8.obj
 0001:0001bd30       ??1?$vector@_WV?$allocator@_W@std@@@std@@QEAA@XZ 000000018001cd30 f i UTF-8.obj
 0001:0001bd60       ??A?$vector@_WV?$allocator@_W@std@@@std@@QEAAAEA_W_K@Z 000000018001cd60 f i UTF-8.obj
 0001:0001bd70       ?ConvertGBKToUtf8@@YAXAEAV?$basic_string@DU?$char_traits@D@std@@V?$allocator@D@2@@std@@@Z 000000018001cd70 f   UTF-8.obj
 0001:0001bf20       ?GB2312ToUTF_8@@YAPEADPEAD0H@Z 000000018001cf20 f   UTF-8.obj
 0001:0001c040       ?Gb2312ToUnicode@@YAXPEA_WPEAD@Z 000000018001d040 f   UTF-8.obj
 0001:0001c070       ?UTF_8ToGB2312@@YAPEADPEAD0H@Z 000000018001d070 f   UTF-8.obj
 0001:0001c170       ?UTF_8ToUnicode@@YAXPEA_WPEAD@Z 000000018001d170 f   UTF-8.obj
 0001:0001c1b0       ?UnicodeToGB2312@@YAXPEADG@Z 000000018001d1b0 f   UTF-8.obj
 0001:0001c1f0       ?UnicodeToUTF_8@@YAXPEADPEA_W@Z 000000018001d1f0 f   UTF-8.obj
 0001:0001c230       ?_Buy@?$vector@_WV?$allocator@_W@std@@@std@@IEAA_N_K@Z 000000018001d230 f i UTF-8.obj
 0001:0001c2a0       ?_Construct_n@?$vector@_WV?$allocator@_W@std@@@std@@QEAAX_KPEB_W@Z 000000018001d2a0 f i UTF-8.obj
 0001:0001c310       ?_Destroy@?$vector@_WV?$allocator@_W@std@@@std@@IEAAXPEA_W0@Z 000000018001d310 f i UTF-8.obj
 0001:0001c320       ?_Getal@?$_Vector_alloc@$0A@U?$_Vec_base_types@_WV?$allocator@_W@std@@@std@@@std@@QEBA?AU?$_Wrap_alloc@V?$allocator@_W@std@@@2@XZ 000000018001d320 f i UTF-8.obj
 0001:0001c330       ?_Tidy@?$vector@_WV?$allocator@_W@std@@@std@@IEAAXXZ 000000018001d330 f i UTF-8.obj
 0001:0001c360       ?_Ufill@?$vector@_WV?$allocator@_W@std@@@std@@IEAAPEA_WPEA_W_KPEB_W@Z 000000018001d360 f i UTF-8.obj
 0001:0001c390       ?_Xlen@?$vector@_WV?$allocator@_W@std@@@std@@IEBAXXZ 000000018001d390 f i UTF-8.obj
 0001:0001c3b0       ?allocate@?$_Wrap_alloc@V?$allocator@_W@std@@@std@@QEAAPEA_W_K@Z 000000018001d3b0 f i UTF-8.obj
 0001:0001c3f0       ?allocate@?$allocator@_W@std@@QEAAPEA_W_K@Z 000000018001d3f0 f i UTF-8.obj
 0001:0001c430       ?deallocate@?$_Wrap_alloc@V?$allocator@_W@std@@@std@@QEAAXPEA_W_K@Z 000000018001d430 f i UTF-8.obj
 0001:0001c440       ?deallocate@?$allocator@_W@std@@QEAAXPEA_W_K@Z 000000018001d440 f i UTF-8.obj
 0001:0001c450       ?max_size@?$_Wrap_alloc@V?$allocator@_W@std@@@std@@QEBA_KXZ 000000018001d450 f i UTF-8.obj
 0001:0001c460       ?max_size@?$allocator@_W@std@@QEBA_KXZ 000000018001d460 f i UTF-8.obj
 0001:0001c470       ?max_size@?$allocator_traits@V?$allocator@_W@std@@@std@@SA_KAEBV?$allocator@_W@2@@Z 000000018001d470 f i UTF-8.obj
 0001:0001c480       ?max_size@?$vector@_WV?$allocator@_W@std@@@std@@QEBA_KXZ 000000018001d480 f i UTF-8.obj
 0001:0001c490       ?u2s@@YAPEADPEAEGPEAD@Z    000000018001d490 f   UTF-8.obj
 0001:0001c5f0       ?utf82ascii@@YAPEADPEAEGPEAD@Z 000000018001d5f0 f   UTF-8.obj
 0001:0001c70a       PlaySoundA                 000000018001d70a f   winmm:WINMM.dll
 0001:0001c710       ??3@YAXPEAX@Z              000000018001d710 f   mfc120:mfc120.dll
 0001:0001c716       ??2@YAPEAX_K@Z             000000018001d716 f   mfc120:mfc120.dll
 0001:0001c71c       ?AfxThrowMemoryException@@YAXXZ 000000018001d71c f   mfc120:mfc120.dll
 0001:0001c722       ?AfxThrowOleException@@YAXJ@Z 000000018001d722 f   mfc120:mfc120.dll
 0001:0001c728       ??0?$CStringT@DV?$StrTraitMFC_DLL@DV?$ChTraitsCRT@D@ATL@@@@@ATL@@QEAA@PEBD@Z 000000018001d728 f   mfc120:mfc120.dll
 0001:0001c72e       ??1?$CStringT@DV?$StrTraitMFC_DLL@DV?$ChTraitsCRT@D@ATL@@@@@ATL@@QEAA@XZ 000000018001d72e f   mfc120:mfc120.dll
 0001:0001c734       ?CompareNoCase@?$CStringT@DV?$StrTraitMFC_DLL@DV?$ChTraitsCRT@D@ATL@@@@@ATL@@QEBAHPEBD@Z 000000018001d734 f   mfc120:mfc120.dll
 0001:0001c73a       ?Replace@?$CStringT@DV?$StrTraitMFC_DLL@DV?$ChTraitsCRT@D@ATL@@@@@ATL@@QEAAHDD@Z 000000018001d73a f   mfc120:mfc120.dll
 0001:0001c740       ?Right@?$CStringT@DV?$StrTraitMFC_DLL@DV?$ChTraitsCRT@D@ATL@@@@@ATL@@QEBA?AV12@H@Z 000000018001d740 f   mfc120:mfc120.dll
 0001:0001c746       ??0CFileFind@@QEAA@XZ      000000018001d746 f   mfc120:mfc120.dll
 0001:0001c74c       ??1CFileFind@@UEAA@XZ      000000018001d74c f   mfc120:mfc120.dll
 0001:0001c752       ?GetFilePath@CFileFind@@UEBA?AV?$CStringT@DV?$StrTraitMFC_DLL@DV?$ChTraitsCRT@D@ATL@@@@@ATL@@XZ 000000018001d752 f   mfc120:mfc120.dll
 0001:0001c758       ?GetCreationTime@CFileFind@@UEBAHAEAVCTime@ATL@@@Z 000000018001d758 f   mfc120:mfc120.dll
 0001:0001c75e       ?IsDots@CFileFind@@UEBAHXZ 000000018001d75e f   mfc120:mfc120.dll
 0001:0001c764       ?Close@CFileFind@@QEAAXXZ  000000018001d764 f   mfc120:mfc120.dll
 0001:0001c76a       ?FindFile@CFileFind@@UEAAHPEBDK@Z 000000018001d76a f   mfc120:mfc120.dll
 0001:0001c770       ?FindNextFileA@CFileFind@@UEAAHXZ 000000018001d770 f   mfc120:mfc120.dll
 0001:0001c776       ??_U@YAPEAX_K@Z            000000018001d776 f   mfc120:mfc120.dll
 0001:0001c77c       ??_V@YAXPEAX@Z             000000018001d77c f   mfc120:mfc120.dll
 0001:0001c782       ??B?$CSimpleStringT@D$00@ATL@@QEBAPEBDXZ 000000018001d782 f   mfc120:mfc120.dll
 0001:0001c788       ?Format@?$CStringT@DV?$StrTraitMFC_DLL@DV?$ChTraitsCRT@D@ATL@@@@@ATL@@QEAAXPEBDZZ 000000018001d788 f   mfc120:mfc120.dll
 0001:0001c78e       ??0?$CStringT@DV?$StrTraitMFC_DLL@DV?$ChTraitsCRT@D@ATL@@@@@ATL@@QEAA@XZ 000000018001d78e f   mfc120:mfc120.dll
 0001:0001c794       ??1CComBSTR@ATL@@QEAA@XZ   000000018001d794 f i mfcs120:nolib.obj
 0001:0001c7a0       ??1stringdispid@CComTypeInfoHolder@ATL@@QEAA@XZ 000000018001d7a0 f i mfcs120:nolib.obj
 0001:0001c7ac       ??_Estringdispid@CComTypeInfoHolder@ATL@@QEAAPEAXI@Z 000000018001d7ac f i mfcs120:nolib.obj
 0001:0001c81c       IsolationAwareActivateActCtx 000000018001d81c f i mfcs120:nolib.obj
 0001:0001c824       IsolationAwareCreateActCtxW 000000018001d824 f i mfcs120:nolib.obj
 0001:0001c82c       IsolationAwareDeactivateActCtx 000000018001d82c f i mfcs120:nolib.obj
 0001:0001c834       IsolationAwareFindActCtxSectionStringW 000000018001d834 f i mfcs120:nolib.obj
 0001:0001c83c       IsolationAwarePrivatenPgViNgRzlnPgpgk 000000018001d83c f i mfcs120:nolib.obj
 0001:0001c898       IsolationAwareQueryActCtxW 000000018001d898 f i mfcs120:nolib.obj
 0001:0001c8a0       IsolationAwareUnregisterClassA 000000018001d8a0 f i mfcs120:nolib.obj
 0001:0001c964       WinbaseIsolationAwarePrivatetRgzlnPgpgk 000000018001d964 f i mfcs120:nolib.obj
 0001:0001cb24       RawDllMain                 000000018001db24 f   mfcs120:dllmodul.obj
 0001:0001cb80       ??0_AFX_DLL_MODULE_STATE@@QEAA@XZ 000000018001db80 f i mfcs120:dllmodul.obj
 0001:0001cbb8       ??1_AFX_DLL_MODULE_STATE@@UEAA@XZ 000000018001dbb8 f i mfcs120:dllmodul.obj
 0001:0001cbc0       ??_E_AFX_DLL_MODULE_STATE@@UEAAPEAXI@Z 000000018001dbc0 f i mfcs120:dllmodul.obj
 0001:0001cbc0       ??_G_AFX_DLL_MODULE_STATE@@UEAAPEAXI@Z 000000018001dbc0 f i mfcs120:dllmodul.obj
 0001:0001cbf0       ?AfxGetStaticModuleState@@YAPEAVAFX_MODULE_STATE@@XZ 000000018001dbf0 f   mfcs120:dllmodul.obj
 0001:0001cbf8       ?AfxWndProcDllStatic@@YA_JPEAUHWND__@@I_K_J@Z 000000018001dbf8 f   mfcs120:dllmodul.obj
 0001:0001cc6c       DllMain                    000000018001dc6c f   mfcs120:dllmodul.obj
 0001:0001ccb4       InternalDllMain            000000018001dcb4 f   mfcs120:dllmodul.obj
 0001:0001ce3c       ??2CObject@@SAPEAX_K@Z     000000018001de3c f i mfcs120:dllmodulx.obj
 0001:0001ce44       ??3CObject@@SAXPEAX@Z      000000018001de44 f i mfcs120:dllmodulx.obj
 0001:0001ce4c       ?AfxGetApp@@YAPEAVCWinApp@@XZ 000000018001de4c f i mfcs120:dllmodulx.obj
 0001:0001ce60       _AfxDllModulHelper         000000018001de60 f   mfcs120:dllmodulx.obj
 0001:0001cec4       _purecall                  000000018001dec4 f   msvcrt:MSVCR120.dll
 0001:0001cecc       __atonexitinit             000000018001decc f   msvcrt:atonexit.obj
 0001:0001cf1c       _onexit                    000000018001df1c f   msvcrt:atonexit.obj
 0001:0001cfcc       atexit                     000000018001dfcc f   msvcrt:atonexit.obj
 0001:0001cfe4       __raise_securityfailure    000000018001dfe4 f   msvcrt:gs_report.obj
 0001:0001d030       __report_gsfailure         000000018001e030 f   msvcrt:gs_report.obj
 0001:0001d104       __report_rangecheckfailure 000000018001e104 f   msvcrt:gs_report.obj
 0001:0001d118       __report_securityfailure   000000018001e118 f   msvcrt:gs_report.obj
 0001:0001d1b4       __report_securityfailureEx 000000018001e1b4 f   msvcrt:gs_report.obj
 0001:0001d2c2       toupper                    000000018001e2c2 f   msvcrt:MSVCR120.dll
 0001:0001d2c8       tolower                    000000018001e2c8 f   msvcrt:MSVCR120.dll
 0001:0001d2ce       memchr                     000000018001e2ce f   msvcrt:MSVCR120.dll
 0001:0001d2d4       memmove                    000000018001e2d4 f   msvcrt:MSVCR120.dll
 0001:0001d2da       fgets                      000000018001e2da f   msvcrt:MSVCR120.dll
 0001:0001d2e0       sprintf                    000000018001e2e0 f   msvcrt:MSVCR120.dll
 0001:0001d2e6       _i64toa                    000000018001e2e6 f   msvcrt:MSVCR120.dll
 0001:0001d2ec       _ui64toa                   000000018001e2ec f   msvcrt:MSVCR120.dll
 0001:0001d2f2       free                       000000018001e2f2 f   msvcrt:MSVCR120.dll
 0001:0001d2f8       _time64                    000000018001e2f8 f   msvcrt:MSVCR120.dll
 0001:0001d2fe       _endthreadex               000000018001e2fe f   msvcrt:MSVCR120.dll
 0001:0001d304       _hypot                     000000018001e304 f   msvcrt:MSVCR120.dll
 0001:0001d30a       _CxxThrowException         000000018001e30a f   msvcrt:MSVCR120.dll
 0001:0001d310       __CxxFrameHandler3         000000018001e310 f   msvcrt:MSVCR120.dll
 0001:0001d318       __GSHandlerCheck           000000018001e318 f   msvcrt:gshandler.obj
 0001:0001d338       __GSHandlerCheckCommon     000000018001e338 f   msvcrt:gshandler.obj
 0001:0001d39c       __GSHandlerCheck_EH        000000018001e39c f   msvcrt:gshandlereh.obj
 0001:0001d440       _alloca_probe              000000018001e440 f   msvcrt:chkstk.obj
 0001:0001d440       __chkstk                   000000018001e440 f   msvcrt:chkstk.obj
 0001:0001d4a0       __security_check_cookie    000000018001e4a0 f   msvcrt:amdsecgs.obj
 0001:0001d4c0       memcpy                     000000018001e4c0 f   msvcrt:MSVCR120.dll
 0001:0001d4c6       memset                     000000018001e4c6 f   msvcrt:MSVCR120.dll
 0001:0001d4cc       ??0type_info@@AEAA@AEBV0@@Z 000000018001e4cc f   msvcrt:ti_inst.obj
 0001:0001d4dc       ??4type_info@@AEAAAEAV0@AEBV0@@Z 000000018001e4dc f   msvcrt:ti_inst.obj
 0001:0001d4e0       ??_Etype_info@@UEAAPEAXI@Z 000000018001e4e0 f i msvcrt:ti_inst.obj
 0001:0001d54a       _beginthreadex             000000018001e54a f   msvcrt:MSVCR120.dll
 0001:0001d550       isdigit                    000000018001e550 f   msvcrt:MSVCR120.dll
 0001:0001d556       isalnum                    000000018001e556 f   msvcrt:MSVCR120.dll
 0001:0001d55c       strncpy                    000000018001e55c f   msvcrt:MSVCR120.dll
 0001:0001d562       strstr                     000000018001e562 f   msvcrt:MSVCR120.dll
 0001:0001d568       wcsncpy                    000000018001e568 f   msvcrt:MSVCR120.dll
 0001:0001d56e       sscanf                     000000018001e56e f   msvcrt:MSVCR120.dll
 0001:0001d574       atoi                       000000018001e574 f   msvcrt:MSVCR120.dll
 0001:0001d57a       _localtime64               000000018001e57a f   msvcrt:MSVCR120.dll
 0001:0001d580       _mktime64                  000000018001e580 f   msvcrt:MSVCR120.dll
 0001:0001d586       memcmp                     000000018001e586 f   msvcrt:MSVCR120.dll
 0001:0001d58c       ??_M@YAXPEAX_KHP6AX0@Z@Z   000000018001e58c f   msvcrt:ehvecdtr.obj
 0001:0001d608       ?__ArrayUnwind@@YAXPEAX_KHP6AX0@Z@Z 000000018001e608 f   msvcrt:ehvecdtr.obj
 0001:0001d6b4       NtCurrentTeb               000000018001e6b4 f i msvcrt:crtdll.obj
 0001:0001d6c0       _CRT_INIT                  000000018001e6c0 f   msvcrt:crtdll.obj
 0001:0001d90c       _DllMainCRTStartup         000000018001e90c f   msvcrt:crtdll.obj
 0001:0001da82       __C_specific_handler       000000018001ea82 f   msvcrt:MSVCR120.dll
 0001:0001da88       __GSHandlerCheck_SEH       000000018001ea88 f   msvcrt:gshandlerseh.obj
 0001:0001db1e       _lock                      000000018001eb1e f   msvcrt:MSVCR120.dll
 0001:0001db24       _unlock                    000000018001eb24 f   msvcrt:MSVCR120.dll
 0001:0001db2a       _calloc_crt                000000018001eb2a f   msvcrt:MSVCR120.dll
 0001:0001db30       __dllonexit                000000018001eb30 f   msvcrt:MSVCR120.dll
 0001:0001db36       __crt_debugger_hook        000000018001eb36 f   msvcrt:MSVCR120.dll
 0001:0001db3c       __crtUnhandledException    000000018001eb3c f   msvcrt:MSVCR120.dll
 0001:0001db42       __crtTerminateProcess      000000018001eb42 f   msvcrt:MSVCR120.dll
 0001:0001db48       __crtCaptureCurrentContext 000000018001eb48 f   msvcrt:MSVCR120.dll
 0001:0001db4e       __crtCapturePreviousContext 000000018001eb4e f   msvcrt:MSVCR120.dll
 0001:0001db54       ?terminate@@YAXXZ          000000018001eb54 f   msvcrt:MSVCR120.dll
 0001:0001db5a       __CppXcptFilter            000000018001eb5a f   msvcrt:MSVCR120.dll
 0001:0001db60       _amsg_exit                 000000018001eb60 f   msvcrt:MSVCR120.dll
 0001:0001db70       _FindPESection             000000018001eb70 f   msvcrt:pesect.obj
 0001:0001dbc0       _IsNonwritableInCurrentImage 000000018001ebc0 f   msvcrt:pesect.obj
 0001:0001dc10       _ValidateImageBase         000000018001ec10 f   msvcrt:pesect.obj
 0001:0001dc40       __security_init_cookie     000000018001ec40 f   msvcrt:gs_support.obj
 0001:0001dcec       _malloc_crt                000000018001ecec f   msvcrt:MSVCR120.dll
 0001:0001dcf4       _RTC_Initialize            000000018001ecf4 f   msvcrt:initsect.obj
 0001:0001dd2c       _RTC_Terminate             000000018001ed2c f   msvcrt:initsect.obj
 0001:0001dd64       _initterm                  000000018001ed64 f   msvcrt:MSVCR120.dll
 0001:0001dd6a       _initterm_e                000000018001ed6a f   msvcrt:MSVCR120.dll
 0001:0001dd70       __clean_type_info_names    000000018001ed70 f   msvcrt:tncleanup.obj
 0001:0001dd7c       ?_type_info_dtor_internal_method@type_info@@QEAAXXZ 000000018001ed7c f   msvcrt:MSVCR120.dll
 0001:0001dd7c       ??1type_info@@UEAA@XZ      000000018001ed7c f   msvcrt:MSVCR120.dll
 0001:0001dd82       __clean_type_info_names_internal 000000018001ed82 f   msvcrt:MSVCR120.dll
 0001:0001dd88       CreateDirectoryA           000000018001ed88 f   kernel32:KERNEL32.dll
 0001:0001dd8e       DecodePointer              000000018001ed8e f   kernel32:KERNEL32.dll
 0001:0001dd94       Beep                       000000018001ed94 f   kernel32:KERNEL32.dll
 0001:0001dd9a       RaiseException             000000018001ed9a f   kernel32:KERNEL32.dll
 0001:0001dda0       GetLastError               000000018001eda0 f   kernel32:KERNEL32.dll
 0001:0001dda6       HeapDestroy                000000018001eda6 f   kernel32:KERNEL32.dll
 0001:0001ddac       HeapAlloc                  000000018001edac f   kernel32:KERNEL32.dll
 0001:0001ddb2       HeapReAlloc                000000018001edb2 f   kernel32:KERNEL32.dll
 0001:0001ddb8       HeapFree                   000000018001edb8 f   kernel32:KERNEL32.dll
 0001:0001ddbe       HeapSize                   000000018001edbe f   kernel32:KERNEL32.dll
 0001:0001ddc4       GetProcessHeap             000000018001edc4 f   kernel32:KERNEL32.dll
 0001:0001ddca       InitializeCriticalSectionAndSpinCount 000000018001edca f   kernel32:KERNEL32.dll
 0001:0001ddd0       DeleteCriticalSection      000000018001edd0 f   kernel32:KERNEL32.dll
 0001:0001ddd6       WaitForSingleObject        000000018001edd6 f   kernel32:KERNEL32.dll
 0001:0001dddc       Sleep                      000000018001eddc f   kernel32:KERNEL32.dll
 0001:0001dde2       GetCurrentThreadId         000000018001ede2 f   kernel32:KERNEL32.dll
 0001:0001dde8       GetLocalTime               000000018001ede8 f   kernel32:KERNEL32.dll
 0001:0001ddee       GetTickCount               000000018001edee f   kernel32:KERNEL32.dll
 0001:0001ddf4       FreeLibrary                000000018001edf4 f   kernel32:KERNEL32.dll
 0001:0001ddfa       GetModuleFileNameA         000000018001edfa f   kernel32:KERNEL32.dll
 0001:0001de00       GetProcAddress             000000018001ee00 f   kernel32:KERNEL32.dll
 0001:0001de06       GlobalMemoryStatus         000000018001ee06 f   kernel32:KERNEL32.dll
 0001:0001de0c       WaitForMultipleObjects     000000018001ee0c f   kernel32:KERNEL32.dll
 0001:0001de12       LoadLibraryA               000000018001ee12 f   kernel32:KERNEL32.dll
 0001:0001de18       GetPrivateProfileIntA      000000018001ee18 f   kernel32:KERNEL32.dll
 0001:0001de1e       GetPrivateProfileStringA   000000018001ee1e f   kernel32:KERNEL32.dll
 0001:0001de24       WritePrivateProfileStringA 000000018001ee24 f   kernel32:KERNEL32.dll
 0001:0001de2a       FileTimeToSystemTime       000000018001ee2a f   kernel32:KERNEL32.dll
 0001:0001de30       MultiByteToWideChar        000000018001ee30 f   kernel32:KERNEL32.dll
 0001:0001de36       WideCharToMultiByte        000000018001ee36 f   kernel32:KERNEL32.dll
 0001:0001de3c       CloseHandle                000000018001ee3c f   kernel32:KERNEL32.dll
 0001:0001de42       SetEvent                   000000018001ee42 f   kernel32:KERNEL32.dll
 0001:0001de48       ResetEvent                 000000018001ee48 f   kernel32:KERNEL32.dll
 0001:0001de4e       CreateEventA               000000018001ee4e f   kernel32:KERNEL32.dll
 0001:0001de54       InitializeCriticalSection  000000018001ee54 f   kernel32:KERNEL32.dll
 0001:0001de5a       EnterCriticalSection       000000018001ee5a f   kernel32:KERNEL32.dll
 0001:0001de60       LeaveCriticalSection       000000018001ee60 f   kernel32:KERNEL32.dll
 0001:0001de66       GetModuleHandleA           000000018001ee66 f   kernel32:KERNEL32.dll
 0001:0001de6c       CreateIoCompletionPort     000000018001ee6c f   kernel32:KERNEL32.dll
 0001:0001de72       GetQueuedCompletionStatus  000000018001ee72 f   kernel32:KERNEL32.dll
 0001:0001de78       PostQueuedCompletionStatus 000000018001ee78 f   kernel32:KERNEL32.dll
 0001:0001de7e       CreateThread               000000018001ee7e f   kernel32:KERNEL32.dll
 0001:0001de84       GetSystemInfo              000000018001ee84 f   kernel32:KERNEL32.dll
 0001:0001de8a       OutputDebugStringA         000000018001ee8a f   kernel32:KERNEL32.dll
 0001:0001de90       SetLastError               000000018001ee90 f   kernel32:KERNEL32.dll
 0001:0001de96       GetModuleFileNameW         000000018001ee96 f   kernel32:KERNEL32.dll
 0001:0001de9c       GetModuleHandleExW         000000018001ee9c f   kernel32:KERNEL32.dll
 0001:0001dea2       LoadLibraryW               000000018001eea2 f   kernel32:KERNEL32.dll
 0001:0001dea8       CreateActCtxW              000000018001eea8 f   kernel32:KERNEL32.dll
 0001:0001deae       ActivateActCtx             000000018001eeae f   kernel32:KERNEL32.dll
 0001:0001deb4       DeactivateActCtx           000000018001eeb4 f   kernel32:KERNEL32.dll
 0001:0001deba       FindActCtxSectionStringW   000000018001eeba f   kernel32:KERNEL32.dll
 0001:0001dec0       QueryActCtxW               000000018001eec0 f   kernel32:KERNEL32.dll
 0001:0001dec6       LocalAlloc                 000000018001eec6 f   kernel32:KERNEL32.dll
 0001:0001decc       LocalFree                  000000018001eecc f   kernel32:KERNEL32.dll
 0001:0001ded2       EncodePointer              000000018001eed2 f   kernel32:KERNEL32.dll
 0001:0001ded8       IsDebuggerPresent          000000018001eed8 f   kernel32:KERNEL32.dll
 0001:0001dede       IsProcessorFeaturePresent  000000018001eede f   kernel32:KERNEL32.dll
 0001:0001dee4       QueryPerformanceCounter    000000018001eee4 f   kernel32:KERNEL32.dll
 0001:0001deea       GetCurrentProcessId        000000018001eeea f   kernel32:KERNEL32.dll
 0001:0001def0       GetSystemTimeAsFileTime    000000018001eef0 f   kernel32:KERNEL32.dll
 0001:0001def6       UnregisterClassA           000000018001eef6 f   user32:USER32.dll
 0001:0001defc       SHFileOperationA           000000018001eefc f   shell32:SHELL32.dll
 0001:0001df02       StrStrIA                   000000018001ef02 f   shlwapi:SHLWAPI.dll
 0001:0001df08       PathFileExistsA            000000018001ef08 f   shlwapi:SHLWAPI.dll
 0001:0001df10       ??$?2PEAUHINSTANCE__@@@Wrapper@?$CSimpleArray@PEAUHINSTANCE__@@V?$CSimpleArrayEqualHelper@PEAUHINSTANCE__@@@ATL@@@ATL@@SAPEAX_KPEAPEAUHINSTANCE__@@@Z 000000018001ef10 f i atls:atlbase.obj
 0001:0001df14       ??0?$CComCritSecLock@VCComCriticalSection@ATL@@@ATL@@QEAA@AEAVCComCriticalSection@1@_N@Z 000000018001ef14 f i atls:atlbase.obj
 0001:0001df40       ??0?$CSimpleArray@PEAUHINSTANCE__@@V?$CSimpleArrayEqualHelper@PEAUHINSTANCE__@@@ATL@@@ATL@@QEAA@XZ 000000018001ef40 f i atls:atlbase.obj
 0001:0001df50       ??0CAtlBaseModule@ATL@@QEAA@XZ 000000018001ef50 f   atls:atlbase.obj
 0001:0001dff8       ??0Wrapper@?$CSimpleArray@PEAUHINSTANCE__@@V?$CSimpleArrayEqualHelper@PEAUHINSTANCE__@@@ATL@@@ATL@@QEAA@AEBQEAUHINSTANCE__@@@Z 000000018001eff8 f i atls:atlbase.obj
 0001:0001e004       ??0_ATL_BASE_MODULE70@ATL@@QEAA@XZ 000000018001f004 f i atls:atlbase.obj
 0001:0001e030       ??1?$CComCritSecLock@VCComCriticalSection@ATL@@@ATL@@QEAA@XZ 000000018001f030 f i atls:atlbase.obj
 0001:0001e054       ??1?$CSimpleArray@PEAUHINSTANCE__@@V?$CSimpleArrayEqualHelper@PEAUHINSTANCE__@@@ATL@@@ATL@@QEAA@XZ 000000018001f054 f i atls:atlbase.obj
 0001:0001e07c       ??1CAtlBaseModule@ATL@@QEAA@XZ 000000018001f07c f   atls:atlbase.obj
 0001:0001e0b0       ??1_ATL_BASE_MODULE70@ATL@@QEAA@XZ 000000018001f0b0 f i atls:atlbase.obj
 0001:0001e0dc       ??A?$CSimpleArray@PEAUHINSTANCE__@@V?$CSimpleArrayEqualHelper@PEAUHINSTANCE__@@@ATL@@@ATL@@QEAAAEAPEAUHINSTANCE__@@H@Z 000000018001f0dc f i atls:atlbase.obj
 0001:0001e110       ?Add@?$CSimpleArray@PEAUHINSTANCE__@@V?$CSimpleArrayEqualHelper@PEAUHINSTANCE__@@@ATL@@@ATL@@QEAAHAEBQEAUHINSTANCE__@@@Z 000000018001f110 f i atls:atlbase.obj
 0001:0001e1b4       ?AddResourceInstance@CAtlBaseModule@ATL@@QEAA_NPEAUHINSTANCE__@@@Z 000000018001f1b4 f   atls:atlbase.obj
 0001:0001e1fc       ?AtlCrtErrorCheck@ATL@@YAHH@Z 000000018001f1fc f i atls:atlbase.obj
 0001:0001e240       ?GetHInstanceAt@CAtlBaseModule@ATL@@QEAAPEAUHINSTANCE__@@H@Z 000000018001f240 f   atls:atlbase.obj
 0001:0001e2bc       ?GetSize@?$CSimpleArray@PEAUHINSTANCE__@@V?$CSimpleArrayEqualHelper@PEAUHINSTANCE__@@@ATL@@@ATL@@QEBAHXZ 000000018001f2bc f i atls:atlbase.obj
 0001:0001e2c0       ?InternalSetAtIndex@?$CSimpleArray@PEAUHINSTANCE__@@V?$CSimpleArrayEqualHelper@PEAUHINSTANCE__@@@ATL@@@ATL@@QEAAXHAEBQEAUHINSTANCE__@@@Z 000000018001f2c0 f i atls:atlbase.obj
 0001:0001e2d8       ?Lock@?$CComCritSecLock@VCComCriticalSection@ATL@@@ATL@@QEAAJXZ 000000018001f2d8 f i atls:atlbase.obj
 0001:0001e2f8       ?Lock@CComCriticalSection@ATL@@QEAAJXZ 000000018001f2f8 f i atls:atlbase.obj
 0001:0001e30c       ?RemoveAll@?$CSimpleArray@PEAUHINSTANCE__@@V?$CSimpleArrayEqualHelper@PEAUHINSTANCE__@@@ATL@@@ATL@@QEAAXXZ 000000018001f30c f i atls:atlbase.obj
 0001:0001e334       ?RemoveAt@?$CSimpleArray@PEAUHINSTANCE__@@V?$CSimpleArrayEqualHelper@PEAUHINSTANCE__@@@ATL@@@ATL@@QEAAHH@Z 000000018001f334 f i atls:atlbase.obj
 0001:0001e3c8       ?RemoveResourceInstance@CAtlBaseModule@ATL@@QEAA_NPEAUHINSTANCE__@@@Z 000000018001f3c8 f   atls:atlbase.obj
 0001:0001e454       ?Unlock@?$CComCritSecLock@VCComCriticalSection@ATL@@@ATL@@QEAAXXZ 000000018001f454 f i atls:atlbase.obj
 0001:0001e470       ?Unlock@CComCriticalSection@ATL@@QEAAJXZ 000000018001f470 f i atls:atlbase.obj
 0001:0001e484       ?memmove_s@Checked@ATL@@YAXPEAX_KPEBX1@Z 000000018001f484 f i atls:atlbase.obj
 0001:0001e4cc       ??0?$CTraceCategoryEx@$00$0A@@ATL@@QEAA@PEB_W@Z 000000018001f4cc f i atls:stdafx.obj
 0001:0001e4d0       ??0?$CTraceCategoryEx@$01$0A@@ATL@@QEAA@PEB_W@Z 000000018001f4d0 f i atls:stdafx.obj
 0001:0001e4d4       ??0?$CTraceCategoryEx@$03$0A@@ATL@@QEAA@PEB_W@Z 000000018001f4d4 f i atls:stdafx.obj
 0001:0001e4d8       ??0?$CTraceCategoryEx@$07$0A@@ATL@@QEAA@PEB_W@Z 000000018001f4d8 f i atls:stdafx.obj
 0001:0001e4dc       ??0?$CTraceCategoryEx@$0BA@$0A@@ATL@@QEAA@PEB_W@Z 000000018001f4dc f i atls:stdafx.obj
 0001:0001e4e0       ??0?$CTraceCategoryEx@$0BAA@$0A@@ATL@@QEAA@PEB_W@Z 000000018001f4e0 f i atls:stdafx.obj
 0001:0001e4e4       ??0?$CTraceCategoryEx@$0BAAA@$0A@@ATL@@QEAA@PEB_W@Z 000000018001f4e4 f i atls:stdafx.obj
 0001:0001e4e8       ??0?$CTraceCategoryEx@$0BAAAA@$0A@@ATL@@QEAA@PEB_W@Z 000000018001f4e8 f i atls:stdafx.obj
 0001:0001e4ec       ??0?$CTraceCategoryEx@$0BAAAAA@$0A@@ATL@@QEAA@PEB_W@Z 000000018001f4ec f i atls:stdafx.obj
 0001:0001e4f0       ??0?$CTraceCategoryEx@$0CA@$0A@@ATL@@QEAA@PEB_W@Z 000000018001f4f0 f i atls:stdafx.obj
 0001:0001e4f4       ??0?$CTraceCategoryEx@$0CAA@$0A@@ATL@@QEAA@PEB_W@Z 000000018001f4f4 f i atls:stdafx.obj
 0001:0001e4f8       ??0?$CTraceCategoryEx@$0CAAA@$0A@@ATL@@QEAA@PEB_W@Z 000000018001f4f8 f i atls:stdafx.obj
 0001:0001e4fc       ??0?$CTraceCategoryEx@$0CAAAA@$0A@@ATL@@QEAA@PEB_W@Z 000000018001f4fc f i atls:stdafx.obj
 0001:0001e500       ??0?$CTraceCategoryEx@$0CAAAAA@$0A@@ATL@@QEAA@PEB_W@Z 000000018001f500 f i atls:stdafx.obj
 0001:0001e504       ??0?$CTraceCategoryEx@$0EA@$0A@@ATL@@QEAA@PEB_W@Z 000000018001f504 f i atls:stdafx.obj
 0001:0001e508       ??0?$CTraceCategoryEx@$0EAA@$0A@@ATL@@QEAA@PEB_W@Z 000000018001f508 f i atls:stdafx.obj
 0001:0001e50c       ??0?$CTraceCategoryEx@$0EAAA@$0A@@ATL@@QEAA@PEB_W@Z 000000018001f50c f i atls:stdafx.obj
 0001:0001e510       ??0?$CTraceCategoryEx@$0EAAAA@$0A@@ATL@@QEAA@PEB_W@Z 000000018001f510 f i atls:stdafx.obj
 0001:0001e514       ??0?$CTraceCategoryEx@$0EAAAAA@$0A@@ATL@@QEAA@PEB_W@Z 000000018001f514 f i atls:stdafx.obj
 0001:0001e518       ??0?$CTraceCategoryEx@$0IA@$0A@@ATL@@QEAA@PEB_W@Z 000000018001f518 f i atls:stdafx.obj
 0001:0001e51c       ??0?$CTraceCategoryEx@$0IAA@$0A@@ATL@@QEAA@PEB_W@Z 000000018001f51c f i atls:stdafx.obj
 0001:0001e520       ??0?$CTraceCategoryEx@$0IAAA@$0A@@ATL@@QEAA@PEB_W@Z 000000018001f520 f i atls:stdafx.obj
 0001:0001e524       ??0?$CTraceCategoryEx@$0IAAAA@$0A@@ATL@@QEAA@PEB_W@Z 000000018001f524 f i atls:stdafx.obj
 0001:0001e528       ??_I@YAXPEAX_KHP6AX0@Z@Z   000000018001f528 f i atls:stdafx.obj
 0001:0001e572       SystemTimeToVariantTime    000000018001f572 f   oleaut32:OLEAUT32.dll
 0001:0001e578       VariantTimeToSystemTime    000000018001f578 f   oleaut32:OLEAUT32.dll
 0001:0001e57e       SysFreeString              000000018001f57e f   oleaut32:OLEAUT32.dll
 0001:0001e584       ?_Xbad_alloc@std@@YAXXZ    000000018001f584 f   msvcprt:MSVCP120.dll
 0001:0001e58a       ?_Xlength_error@std@@YAXPEBD@Z 000000018001f58a f   msvcprt:MSVCP120.dll
 0001:0001e590       ?_Xout_of_range@std@@YAXPEBD@Z 000000018001f590 f   msvcprt:MSVCP120.dll
 0001:0001e596       ?_Syserror_map@std@@YAPEBDH@Z 000000018001f596 f   msvcprt:MSVCP120.dll
 0001:0001e59c       ?_Winerror_map@std@@YAPEBDH@Z 000000018001f59c f   msvcprt:MSVCP120.dll
 0001:0001e5a2       closesocket                000000018001f5a2 f   ws2_32:WS2_32.dll
 0001:0001e5a8       WSAStartup                 000000018001f5a8 f   ws2_32:WS2_32.dll
 0001:0001e5ae       WSACleanup                 000000018001f5ae f   ws2_32:WS2_32.dll
 0001:0001e5b4       htonl                      000000018001f5b4 f   ws2_32:WS2_32.dll
 0001:0001e5ba       inet_ntoa                  000000018001f5ba f   ws2_32:WS2_32.dll
 0001:0001e5c0       gethostbyaddr              000000018001f5c0 f   ws2_32:WS2_32.dll
 0001:0001e5c6       gethostbyname              000000018001f5c6 f   ws2_32:WS2_32.dll
 0001:0001e5cc       shutdown                   000000018001f5cc f   ws2_32:WS2_32.dll
 0001:0001e5d2       WSAGetLastError            000000018001f5d2 f   ws2_32:WS2_32.dll
 0001:0001e5d8       WSARecv                    000000018001f5d8 f   ws2_32:WS2_32.dll
 0001:0001e5de       WSASend                    000000018001f5de f   ws2_32:WS2_32.dll
 0001:0001e5e4       bind                       000000018001f5e4 f   ws2_32:WS2_32.dll
 0001:0001e5ea       htons                      000000018001f5ea f   ws2_32:WS2_32.dll
 0001:0001e5f0       listen                     000000018001f5f0 f   ws2_32:WS2_32.dll
 0001:0001e5f6       ntohs                      000000018001f5f6 f   ws2_32:WS2_32.dll
 0001:0001e5fc       setsockopt                 000000018001f5fc f   ws2_32:WS2_32.dll
 0001:0001e602       WSACloseEvent              000000018001f602 f   ws2_32:WS2_32.dll
 0001:0001e608       WSAEventSelect             000000018001f608 f   ws2_32:WS2_32.dll
 0001:0001e60e       WSAIoctl                   000000018001f60e f   ws2_32:WS2_32.dll
 0001:0001e614       WSASocketA                 000000018001f614 f   ws2_32:WS2_32.dll
 0001:0001e61a       ?GetInstance@CLogMgr@@SAAEAVCLogMgrBase@@XZ 000000018001f61a f   LogMgr64:LogMgr64.dll
 0001:0001e620       ?Delete@CException@@QEAAXXZ 000000018001f620 f   mfc120:mfc120.dll
 0001:0001e626       ??3CNoTrackObject@@SAXPEAX@Z 000000018001f626 f   mfc120:mfc120.dll
 0001:0001e62c       ??0AFX_MODULE_STATE@@QEAA@HP6A_JPEAUHWND__@@I_K_J@ZKH@Z 000000018001f62c f   mfc120:mfc120.dll
 0001:0001e632       ??1AFX_MODULE_STATE@@UEAA@XZ 000000018001f632 f   mfc120:mfc120.dll
 0001:0001e638       ?AfxSetModuleState@@YAPEAVAFX_MODULE_STATE@@PEAV1@@Z 000000018001f638 f   mfc120:mfc120.dll
 0001:0001e63e       ?AfxGetModuleState@@YAPEAVAFX_MODULE_STATE@@XZ 000000018001f63e f   mfc120:mfc120.dll
 0001:0001e644       ??0AFX_MAINTAIN_STATE2@@QEAA@PEAVAFX_MODULE_STATE@@@Z 000000018001f644 f   mfc120:mfc120.dll
 0001:0001e64a       ??1AFX_MAINTAIN_STATE2@@QEAA@XZ 000000018001f64a f   mfc120:mfc120.dll
 0001:0001e650       ?AfxWinInit@@YAHPEAUHINSTANCE__@@0PEADH@Z 000000018001f650 f   mfc120:mfc120.dll
 0001:0001e656       ?AfxWndProc@@YA_JPEAUHWND__@@I_K_J@Z 000000018001f656 f   mfc120:mfc120.dll
 0001:0001e65c       ?AfxTermThread@@YAXPEAUHINSTANCE__@@@Z 000000018001f65c f   mfc120:mfc120.dll
 0001:0001e662       ?AfxWinTerm@@YAXXZ         000000018001f662 f   mfc120:mfc120.dll
 0001:0001e668       ??0CDynLinkLibrary@@QEAA@AEAUAFX_EXTENSION_MODULE@@H@Z 000000018001f668 f   mfc120:mfc120.dll
 0001:0001e66e       ?AfxInitExtensionModule@@YAHAEAUAFX_EXTENSION_MODULE@@PEAUHINSTANCE__@@@Z 000000018001f66e f   mfc120:mfc120.dll
 0001:0001e674       ?AfxTermExtensionModule@@YAXAEAUAFX_EXTENSION_MODULE@@H@Z 000000018001f674 f   mfc120:mfc120.dll
 0001:0001e67a       ?AfxCoreInitModule@@YAXXZ  000000018001f67a f   mfc120:mfc120.dll
 0001:0001e680       ?AfxLockTempMaps@@YAXXZ    000000018001f680 f   mfc120:mfc120.dll
 0001:0001e686       ?AfxUnlockTempMaps@@YAHH@Z 000000018001f686 f   mfc120:mfc120.dll
 0001:0001e68c       ??0CDynLinkLibrary@@QEAA@PEAUHINSTANCE__@@0@Z 000000018001f68c f   mfc120:mfc120.dll
 0001:0001e694       _RawDllMainProxy           000000018001f694 f   mfcs120:rawdllmainproxy.obj
 0001:0001e7fe       _recalloc                  000000018001f7fe f   msvcrt:MSVCR120.dll
 0001:0001e804       memmove_s                  000000018001f804 f   msvcrt:MSVCR120.dll
 0001:0001e80a       _itoa                      000000018001f80a f   msvcrt:MSVCR120.dll
 0001:0001e810       _ltoa                      000000018001f810 f   msvcrt:MSVCR120.dll
 0001:0001e816       _strnicmp                  000000018001f816 f   msvcrt:MSVCR120.dll
 0001:0001e81c       OutputDebugStringW         000000018001f81c f   kernel32:KERNEL32.dll
 0001:0001ff30       ??__FstrHeap@?1??GetInstance@CAtlStringMgr@ATL@@SAPEAUIAtlStringMgr@2@XZ@YAXXZ 0000000180020f30 f i Adapter.obj
 0001:0001ff60       ??__FstrMgr@?1??GetInstance@CAtlStringMgr@ATL@@SAPEAUIAtlStringMgr@2@XZ@YAXXZ 0000000180020f60 f i Adapter.obj
 0002:00000000       __imp_FileTimeToSystemTime 0000000180022000     kernel32:KERNEL32.dll
 0002:00000008       __imp_GetSystemTimeAsFileTime 0000000180022008     kernel32:KERNEL32.dll
 0002:00000010       __imp_GetCurrentProcessId  0000000180022010     kernel32:KERNEL32.dll
 0002:00000018       __imp_QueryPerformanceCounter 0000000180022018     kernel32:KERNEL32.dll
 0002:00000020       __imp_IsProcessorFeaturePresent 0000000180022020     kernel32:KERNEL32.dll
 0002:00000028       __imp_IsDebuggerPresent    0000000180022028     kernel32:KERNEL32.dll
 0002:00000030       __imp_EncodePointer        0000000180022030     kernel32:KERNEL32.dll
 0002:00000038       __imp_LocalFree            0000000180022038     kernel32:KERNEL32.dll
 0002:00000040       __imp_LocalAlloc           0000000180022040     kernel32:KERNEL32.dll
 0002:00000048       __imp_QueryActCtxW         0000000180022048     kernel32:KERNEL32.dll
 0002:00000050       __imp_FindActCtxSectionStringW 0000000180022050     kernel32:KERNEL32.dll
 0002:00000058       __imp_DeactivateActCtx     0000000180022058     kernel32:KERNEL32.dll
 0002:00000060       __imp_ActivateActCtx       0000000180022060     kernel32:KERNEL32.dll
 0002:00000068       __imp_CreateActCtxW        0000000180022068     kernel32:KERNEL32.dll
 0002:00000070       __imp_LoadLibraryW         0000000180022070     kernel32:KERNEL32.dll
 0002:00000078       __imp_GetModuleHandleExW   0000000180022078     kernel32:KERNEL32.dll
 0002:00000080       __imp_GetModuleFileNameW   0000000180022080     kernel32:KERNEL32.dll
 0002:00000088       __imp_SetLastError         0000000180022088     kernel32:KERNEL32.dll
 0002:00000090       __imp_OutputDebugStringA   0000000180022090     kernel32:KERNEL32.dll
 0002:00000098       __imp_GetSystemInfo        0000000180022098     kernel32:KERNEL32.dll
 0002:000000a0       __imp_CreateThread         00000001800220a0     kernel32:KERNEL32.dll
 0002:000000a8       __imp_PostQueuedCompletionStatus 00000001800220a8     kernel32:KERNEL32.dll
 0002:000000b0       __imp_GetQueuedCompletionStatus 00000001800220b0     kernel32:KERNEL32.dll
 0002:000000b8       __imp_CreateIoCompletionPort 00000001800220b8     kernel32:KERNEL32.dll
 0002:000000c0       __imp_GetModuleHandleA     00000001800220c0     kernel32:KERNEL32.dll
 0002:000000c8       __imp_LeaveCriticalSection 00000001800220c8     kernel32:KERNEL32.dll
 0002:000000d0       __imp_EnterCriticalSection 00000001800220d0     kernel32:KERNEL32.dll
 0002:000000d8       __imp_InitializeCriticalSection 00000001800220d8     kernel32:KERNEL32.dll
 0002:000000e0       __imp_CreateEventA         00000001800220e0     kernel32:KERNEL32.dll
 0002:000000e8       __imp_ResetEvent           00000001800220e8     kernel32:KERNEL32.dll
 0002:000000f0       __imp_SetEvent             00000001800220f0     kernel32:KERNEL32.dll
 0002:000000f8       __imp_CloseHandle          00000001800220f8     kernel32:KERNEL32.dll
 0002:00000100       __imp_WideCharToMultiByte  0000000180022100     kernel32:KERNEL32.dll
 0002:00000108       __imp_MultiByteToWideChar  0000000180022108     kernel32:KERNEL32.dll
 0002:00000110       __imp_OutputDebugStringW   0000000180022110     kernel32:KERNEL32.dll
 0002:00000118       __imp_WritePrivateProfileStringA 0000000180022118     kernel32:KERNEL32.dll
 0002:00000120       __imp_GetPrivateProfileStringA 0000000180022120     kernel32:KERNEL32.dll
 0002:00000128       __imp_GetPrivateProfileIntA 0000000180022128     kernel32:KERNEL32.dll
 0002:00000130       __imp_LoadLibraryA         0000000180022130     kernel32:KERNEL32.dll
 0002:00000138       __imp_WaitForMultipleObjects 0000000180022138     kernel32:KERNEL32.dll
 0002:00000140       __imp_GlobalMemoryStatus   0000000180022140     kernel32:KERNEL32.dll
 0002:00000148       __imp_GetProcAddress       0000000180022148     kernel32:KERNEL32.dll
 0002:00000150       __imp_GetModuleFileNameA   0000000180022150     kernel32:KERNEL32.dll
 0002:00000158       __imp_FreeLibrary          0000000180022158     kernel32:KERNEL32.dll
 0002:00000160       __imp_GetTickCount         0000000180022160     kernel32:KERNEL32.dll
 0002:00000168       __imp_GetLocalTime         0000000180022168     kernel32:KERNEL32.dll
 0002:00000170       __imp_GetCurrentThreadId   0000000180022170     kernel32:KERNEL32.dll
 0002:00000178       __imp_Sleep                0000000180022178     kernel32:KERNEL32.dll
 0002:00000180       __imp_WaitForSingleObject  0000000180022180     kernel32:KERNEL32.dll
 0002:00000188       __imp_DeleteCriticalSection 0000000180022188     kernel32:KERNEL32.dll
 0002:00000190       __imp_InitializeCriticalSectionAndSpinCount 0000000180022190     kernel32:KERNEL32.dll
 0002:00000198       __imp_GetProcessHeap       0000000180022198     kernel32:KERNEL32.dll
 0002:000001a0       __imp_HeapSize             00000001800221a0     kernel32:KERNEL32.dll
 0002:000001a8       __imp_HeapFree             00000001800221a8     kernel32:KERNEL32.dll
 0002:000001b0       __imp_HeapReAlloc          00000001800221b0     kernel32:KERNEL32.dll
 0002:000001b8       __imp_HeapAlloc            00000001800221b8     kernel32:KERNEL32.dll
 0002:000001c0       __imp_HeapDestroy          00000001800221c0     kernel32:KERNEL32.dll
 0002:000001c8       __imp_GetLastError         00000001800221c8     kernel32:KERNEL32.dll
 0002:000001d0       __imp_RaiseException       00000001800221d0     kernel32:KERNEL32.dll
 0002:000001d8       __imp_Beep                 00000001800221d8     kernel32:KERNEL32.dll
 0002:000001e0       __imp_DecodePointer        00000001800221e0     kernel32:KERNEL32.dll
 0002:000001e8       __imp_CreateDirectoryA     00000001800221e8     kernel32:KERNEL32.dll
 0002:000001f0       \177KERNEL32_NULL_THUNK_DATA 00000001800221f0     kernel32:KERNEL32.dll
 0002:000001f8       __imp_?GetInstance@CLogMgr@@SAAEAVCLogMgrBase@@XZ 00000001800221f8     LogMgr64:LogMgr64.dll
 0002:00000200       \177LogMgr64_NULL_THUNK_DATA 0000000180022200     LogMgr64:LogMgr64.dll
 0002:00000208       __imp_?_Winerror_map@std@@YAPEBDH@Z 0000000180022208     msvcprt:MSVCP120.dll
 0002:00000210       __imp_?_Syserror_map@std@@YAPEBDH@Z 0000000180022210     msvcprt:MSVCP120.dll
 0002:00000218       __imp_?_Xout_of_range@std@@YAXPEBD@Z 0000000180022218     msvcprt:MSVCP120.dll
 0002:00000220       __imp_?_Xbad_alloc@std@@YAXXZ 0000000180022220     msvcprt:MSVCP120.dll
 0002:00000228       __imp_?_Xlength_error@std@@YAXPEBD@Z 0000000180022228     msvcprt:MSVCP120.dll
 0002:00000230       \177MSVCP120_NULL_THUNK_DATA 0000000180022230     msvcprt:MSVCP120.dll
 0002:00000238       __imp_?_type_info_dtor_internal_method@type_info@@QEAAXXZ 0000000180022238     msvcrt:MSVCR120.dll
 0002:00000240       __imp___clean_type_info_names_internal 0000000180022240     msvcrt:MSVCR120.dll
 0002:00000248       __imp___crtCaptureCurrentContext 0000000180022248     msvcrt:MSVCR120.dll
 0002:00000250       __imp___crtTerminateProcess 0000000180022250     msvcrt:MSVCR120.dll
 0002:00000258       __imp___crtUnhandledException 0000000180022258     msvcrt:MSVCR120.dll
 0002:00000260       __imp___crt_debugger_hook  0000000180022260     msvcrt:MSVCR120.dll
 0002:00000268       __imp__onexit              0000000180022268     msvcrt:MSVCR120.dll
 0002:00000270       __imp___dllonexit          0000000180022270     msvcrt:MSVCR120.dll
 0002:00000278       __imp__calloc_crt          0000000180022278     msvcrt:MSVCR120.dll
 0002:00000280       __imp__unlock              0000000180022280     msvcrt:MSVCR120.dll
 0002:00000288       __imp__lock                0000000180022288     msvcrt:MSVCR120.dll
 0002:00000290       __imp___C_specific_handler 0000000180022290     msvcrt:MSVCR120.dll
 0002:00000298       __imp_memcmp               0000000180022298     msvcrt:MSVCR120.dll
 0002:000002a0       __imp__mktime64            00000001800222a0     msvcrt:MSVCR120.dll
 0002:000002a8       __imp__localtime64         00000001800222a8     msvcrt:MSVCR120.dll
 0002:000002b0       __imp_atoi                 00000001800222b0     msvcrt:MSVCR120.dll
 0002:000002b8       __imp_sscanf               00000001800222b8     msvcrt:MSVCR120.dll
 0002:000002c0       __imp_wcsncpy              00000001800222c0     msvcrt:MSVCR120.dll
 0002:000002c8       __imp_strstr               00000001800222c8     msvcrt:MSVCR120.dll
 0002:000002d0       __imp_strncpy              00000001800222d0     msvcrt:MSVCR120.dll
 0002:000002d8       __imp_isalnum              00000001800222d8     msvcrt:MSVCR120.dll
 0002:000002e0       __imp_isdigit              00000001800222e0     msvcrt:MSVCR120.dll
 0002:000002e8       __imp_memset               00000001800222e8     msvcrt:MSVCR120.dll
 0002:000002f0       __imp_memcpy               00000001800222f0     msvcrt:MSVCR120.dll
 0002:000002f8       __imp___CxxFrameHandler3   00000001800222f8     msvcrt:MSVCR120.dll
 0002:00000300       __imp__CxxThrowException   0000000180022300     msvcrt:MSVCR120.dll
 0002:00000308       __imp__hypot               0000000180022308     msvcrt:MSVCR120.dll
 0002:00000310       __imp__endthreadex         0000000180022310     msvcrt:MSVCR120.dll
 0002:00000318       __imp__time64              0000000180022318     msvcrt:MSVCR120.dll
 0002:00000320       __imp_free                 0000000180022320     msvcrt:MSVCR120.dll
 0002:00000328       __imp__ui64toa             0000000180022328     msvcrt:MSVCR120.dll
 0002:00000330       __imp__i64toa              0000000180022330     msvcrt:MSVCR120.dll
 0002:00000338       __imp_sprintf              0000000180022338     msvcrt:MSVCR120.dll
 0002:00000340       __imp_fgets                0000000180022340     msvcrt:MSVCR120.dll
 0002:00000348       __imp_memmove              0000000180022348     msvcrt:MSVCR120.dll
 0002:00000350       __imp_memchr               0000000180022350     msvcrt:MSVCR120.dll
 0002:00000358       __imp_tolower              0000000180022358     msvcrt:MSVCR120.dll
 0002:00000360       __imp_toupper              0000000180022360     msvcrt:MSVCR120.dll
 0002:00000368       __imp__purecall            0000000180022368     msvcrt:MSVCR120.dll
 0002:00000370       __imp__strnicmp            0000000180022370     msvcrt:MSVCR120.dll
 0002:00000370       __imp_strnicmp             0000000180022370     msvcrt:MSVCR120.dll
 0002:00000378       __imp_ltoa                 0000000180022378     msvcrt:MSVCR120.dll
 0002:00000378       __imp__ltoa                0000000180022378     msvcrt:MSVCR120.dll
 0002:00000380       __imp_itoa                 0000000180022380     msvcrt:MSVCR120.dll
 0002:00000380       __imp__itoa                0000000180022380     msvcrt:MSVCR120.dll
 0002:00000388       __imp_memmove_s            0000000180022388     msvcrt:MSVCR120.dll
 0002:00000390       __imp__recalloc            0000000180022390     msvcrt:MSVCR120.dll
 0002:00000398       __imp__initterm_e          0000000180022398     msvcrt:MSVCR120.dll
 0002:000003a0       __imp__initterm            00000001800223a0     msvcrt:MSVCR120.dll
 0002:000003a8       __imp__malloc_crt          00000001800223a8     msvcrt:MSVCR120.dll
 0002:000003b0       __imp__amsg_exit           00000001800223b0     msvcrt:MSVCR120.dll
 0002:000003b8       __imp___CppXcptFilter      00000001800223b8     msvcrt:MSVCR120.dll
 0002:000003c0       __imp_?terminate@@YAXXZ    00000001800223c0     msvcrt:MSVCR120.dll
 0002:000003c8       __imp__beginthreadex       00000001800223c8     msvcrt:MSVCR120.dll
 0002:000003d0       __imp___crtCapturePreviousContext 00000001800223d0     msvcrt:MSVCR120.dll
 0002:000003d8       \177MSVCR120_NULL_THUNK_DATA 00000001800223d8     msvcrt:MSVCR120.dll
 0002:000003e0       __imp_SysFreeString        00000001800223e0     oleaut32:OLEAUT32.dll
 0002:000003e8       __imp_VariantTimeToSystemTime 00000001800223e8     oleaut32:OLEAUT32.dll
 0002:000003f0       __imp_SystemTimeToVariantTime 00000001800223f0     oleaut32:OLEAUT32.dll
 0002:000003f8       \177OLEAUT32_NULL_THUNK_DATA 00000001800223f8     oleaut32:OLEAUT32.dll
 0002:00000400       __imp_SHFileOperationA     0000000180022400     shell32:SHELL32.dll
 0002:00000408       \177SHELL32_NULL_THUNK_DATA 0000000180022408     shell32:SHELL32.dll
 0002:00000410       __imp_PathFileExistsA      0000000180022410     shlwapi:SHLWAPI.dll
 0002:00000418       __imp_StrStrIA             0000000180022418     shlwapi:SHLWAPI.dll
 0002:00000420       \177SHLWAPI_NULL_THUNK_DATA 0000000180022420     shlwapi:SHLWAPI.dll
 0002:00000428       __imp_UnregisterClassA     0000000180022428     user32:USER32.dll
 0002:00000430       \177USER32_NULL_THUNK_DATA 0000000180022430     user32:USER32.dll
 0002:00000438       __imp_PlaySoundA           0000000180022438     winmm:WINMM.dll
 0002:00000440       \177WINMM_NULL_THUNK_DATA  0000000180022440     winmm:WINMM.dll
 0002:00000448       __imp_WSACloseEvent        0000000180022448     ws2_32:WS2_32.dll
 0002:00000450       __imp_WSASocketA           0000000180022450     ws2_32:WS2_32.dll
 0002:00000458       __imp_WSAIoctl             0000000180022458     ws2_32:WS2_32.dll
 0002:00000460       __imp_WSAEventSelect       0000000180022460     ws2_32:WS2_32.dll
 0002:00000468       __imp_setsockopt           0000000180022468     ws2_32:WS2_32.dll
 0002:00000470       __imp_ntohs                0000000180022470     ws2_32:WS2_32.dll
 0002:00000478       __imp_listen               0000000180022478     ws2_32:WS2_32.dll
 0002:00000480       __imp_htons                0000000180022480     ws2_32:WS2_32.dll
 0002:00000488       __imp_bind                 0000000180022488     ws2_32:WS2_32.dll
 0002:00000490       __imp_WSASend              0000000180022490     ws2_32:WS2_32.dll
 0002:00000498       __imp_WSARecv              0000000180022498     ws2_32:WS2_32.dll
 0002:000004a0       __imp_WSAGetLastError      00000001800224a0     ws2_32:WS2_32.dll
 0002:000004a8       __imp_shutdown             00000001800224a8     ws2_32:WS2_32.dll
 0002:000004b0       __imp_gethostbyname        00000001800224b0     ws2_32:WS2_32.dll
 0002:000004b8       __imp_gethostbyaddr        00000001800224b8     ws2_32:WS2_32.dll
 0002:000004c0       __imp_closesocket          00000001800224c0     ws2_32:WS2_32.dll
 0002:000004c8       __imp_WSAStartup           00000001800224c8     ws2_32:WS2_32.dll
 0002:000004d0       __imp_WSACleanup           00000001800224d0     ws2_32:WS2_32.dll
 0002:000004d8       __imp_htonl                00000001800224d8     ws2_32:WS2_32.dll
 0002:000004e0       __imp_inet_ntoa            00000001800224e0     ws2_32:WS2_32.dll
 0002:000004e8       \177WS2_32_NULL_THUNK_DATA 00000001800224e8     ws2_32:WS2_32.dll
 0002:000004f0       __imp_?Close@CFileFind@@QEAAXXZ 00000001800224f0     mfc120:mfc120.dll
 0002:000004f8       __imp_?IsDots@CFileFind@@UEBAHXZ 00000001800224f8     mfc120:mfc120.dll
 0002:00000500       __imp_?GetCreationTime@CFileFind@@UEBAHAEAVCTime@ATL@@@Z 0000000180022500     mfc120:mfc120.dll
 0002:00000508       __imp_?GetFilePath@CFileFind@@UEBA?AV?$CStringT@DV?$StrTraitMFC_DLL@DV?$ChTraitsCRT@D@ATL@@@@@ATL@@XZ 0000000180022508     mfc120:mfc120.dll
 0002:00000510       __imp_??1CFileFind@@UEAA@XZ 0000000180022510     mfc120:mfc120.dll
 0002:00000518       __imp_??0CFileFind@@QEAA@XZ 0000000180022518     mfc120:mfc120.dll
 0002:00000520       __imp_?Right@?$CStringT@DV?$StrTraitMFC_DLL@DV?$ChTraitsCRT@D@ATL@@@@@ATL@@QEBA?AV12@H@Z 0000000180022520     mfc120:mfc120.dll
 0002:00000528       __imp_?Replace@?$CStringT@DV?$StrTraitMFC_DLL@DV?$ChTraitsCRT@D@ATL@@@@@ATL@@QEAAHDD@Z 0000000180022528     mfc120:mfc120.dll
 0002:00000530       __imp_?CompareNoCase@?$CStringT@DV?$StrTraitMFC_DLL@DV?$ChTraitsCRT@D@ATL@@@@@ATL@@QEBAHPEBD@Z 0000000180022530     mfc120:mfc120.dll
 0002:00000538       __imp_??1?$CStringT@DV?$StrTraitMFC_DLL@DV?$ChTraitsCRT@D@ATL@@@@@ATL@@QEAA@XZ 0000000180022538     mfc120:mfc120.dll
 0002:00000540       __imp_??3@YAXPEAX@Z        0000000180022540     mfc120:mfc120.dll
 0002:00000548       __imp_??0?$CStringT@DV?$StrTraitMFC_DLL@DV?$ChTraitsCRT@D@ATL@@@@@ATL@@QEAA@PEBD@Z 0000000180022548     mfc120:mfc120.dll
 0002:00000550       __imp_?AfxThrowOleException@@YAXJ@Z 0000000180022550     mfc120:mfc120.dll
 0002:00000558       __imp_??2@YAPEAX_K@Z       0000000180022558     mfc120:mfc120.dll
 0002:00000560       __imp_?FindFile@CFileFind@@UEAAHPEBDK@Z 0000000180022560     mfc120:mfc120.dll
 0002:00000568       __imp_?FindNextFileA@CFileFind@@UEAAHXZ 0000000180022568     mfc120:mfc120.dll
 0002:00000570       __imp_??_U@YAPEAX_K@Z      0000000180022570     mfc120:mfc120.dll
 0002:00000578       __imp_?Delete@CException@@QEAAXXZ 0000000180022578     mfc120:mfc120.dll
 0002:00000580       __imp_??3CNoTrackObject@@SAXPEAX@Z 0000000180022580     mfc120:mfc120.dll
 0002:00000588       __imp_??0AFX_MODULE_STATE@@QEAA@HP6A_JPEAUHWND__@@I_K_J@ZKH@Z 0000000180022588     mfc120:mfc120.dll
 0002:00000590       __imp_??1AFX_MODULE_STATE@@UEAA@XZ 0000000180022590     mfc120:mfc120.dll
 0002:00000598       __imp_?AfxSetModuleState@@YAPEAVAFX_MODULE_STATE@@PEAV1@@Z 0000000180022598     mfc120:mfc120.dll
 0002:000005a0       __imp_?AfxGetModuleState@@YAPEAVAFX_MODULE_STATE@@XZ 00000001800225a0     mfc120:mfc120.dll
 0002:000005a8       __imp_??0AFX_MAINTAIN_STATE2@@QEAA@PEAVAFX_MODULE_STATE@@@Z 00000001800225a8     mfc120:mfc120.dll
 0002:000005b0       __imp_??1AFX_MAINTAIN_STATE2@@QEAA@XZ 00000001800225b0     mfc120:mfc120.dll
 0002:000005b8       __imp_?AfxWinInit@@YAHPEAUHINSTANCE__@@0PEADH@Z 00000001800225b8     mfc120:mfc120.dll
 0002:000005c0       __imp_?AfxWndProc@@YA_JPEAUHWND__@@I_K_J@Z 00000001800225c0     mfc120:mfc120.dll
 0002:000005c8       __imp_?AfxTermThread@@YAXPEAUHINSTANCE__@@@Z 00000001800225c8     mfc120:mfc120.dll
 0002:000005d0       __imp_?AfxWinTerm@@YAXXZ   00000001800225d0     mfc120:mfc120.dll
 0002:000005d8       __imp_??0CDynLinkLibrary@@QEAA@AEAUAFX_EXTENSION_MODULE@@H@Z 00000001800225d8     mfc120:mfc120.dll
 0002:000005e0       __imp_?AfxInitExtensionModule@@YAHAEAUAFX_EXTENSION_MODULE@@PEAUHINSTANCE__@@@Z 00000001800225e0     mfc120:mfc120.dll
 0002:000005e8       __imp_?AfxTermExtensionModule@@YAXAEAUAFX_EXTENSION_MODULE@@H@Z 00000001800225e8     mfc120:mfc120.dll
 0002:000005f0       __imp_?AfxCoreInitModule@@YAXXZ 00000001800225f0     mfc120:mfc120.dll
 0002:000005f8       __imp_?AfxLockTempMaps@@YAXXZ 00000001800225f8     mfc120:mfc120.dll
 0002:00000600       __imp_?AfxUnlockTempMaps@@YAHH@Z 0000000180022600     mfc120:mfc120.dll
 0002:00000608       __imp_??0CDynLinkLibrary@@QEAA@PEAUHINSTANCE__@@0@Z 0000000180022608     mfc120:mfc120.dll
 0002:00000610       __imp_??_V@YAXPEAX@Z       0000000180022610     mfc120:mfc120.dll
 0002:00000618       __imp_??B?$CSimpleStringT@D$00@ATL@@QEBAPEBDXZ 0000000180022618     mfc120:mfc120.dll
 0002:00000620       __imp_?Format@?$CStringT@DV?$StrTraitMFC_DLL@DV?$ChTraitsCRT@D@ATL@@@@@ATL@@QEAAXPEBDZZ 0000000180022620     mfc120:mfc120.dll
 0002:00000628       __imp_??0?$CStringT@DV?$StrTraitMFC_DLL@DV?$ChTraitsCRT@D@ATL@@@@@ATL@@QEAA@XZ 0000000180022628     mfc120:mfc120.dll
 0002:00000630       __imp_?AfxThrowMemoryException@@YAXXZ 0000000180022630     mfc120:mfc120.dll
 0002:00000638       \177mfc120_NULL_THUNK_DATA 0000000180022638     mfc120:mfc120.dll
 0002:00000640       __xc_a                     0000000180022640     msvcrt:cinitexe.obj
 0002:000006c0       __xc_z                     00000001800226c0     msvcrt:cinitexe.obj
 0002:000006c8       __xi_a                     00000001800226c8     msvcrt:cinitexe.obj
 0002:000006e0       __xi_z                     00000001800226e0     msvcrt:cinitexe.obj
 0002:00000728       ?has_infinity@_Num_float_base@std@@2_NB 0000000180022728     Adapter.obj
 0002:0000072c       ?VT@?$CVarTypeInfo@PEAN@ATL@@2GB 000000018002272c     Adapter.obj
 0002:0000072e       ?has_quiet_NaN@_Num_float_base@std@@2_NB 000000018002272e     Adapter.obj
 0002:00000730       ?pmField@?$CVarTypeInfo@PEAN@ATL@@2QEQtagVARIANT@@PEANEQ3@ 0000000180022730     Adapter.obj
 0002:00000734       ?has_signaling_NaN@_Num_float_base@std@@2_NB 0000000180022734     Adapter.obj
 0002:00000735       ?is_bounded@_Num_float_base@std@@2_NB 0000000180022735     Adapter.obj
 0002:00000736       ?is_exact@_Num_float_base@std@@2_NB 0000000180022736     Adapter.obj
 0002:00000737       ?is_iec559@_Num_float_base@std@@2_NB 0000000180022737     Adapter.obj
 0002:00000738       ?VT@?$CVarTypeInfo@PEAUtagVARIANT@@@ATL@@2GB 0000000180022738     Adapter.obj
 0002:0000073a       ?is_integer@_Num_float_base@std@@2_NB 000000018002273a     Adapter.obj
 0002:00000740       IID_IAxWinAmbientDispatch  0000000180022740     Adapter.obj
 0002:00000750       ?is_modulo@_Num_float_base@std@@2_NB 0000000180022750     Adapter.obj
 0002:00000751       ?is_signed@_Num_float_base@std@@2_NB 0000000180022751     Adapter.obj
 0002:00000758       _GUID_0002e012_0000_0000_c000_000000000046 0000000180022758     Adapter.obj
 0002:00000768       ?VT@?$CVarTypeInfo@PEA_W@ATL@@2GB 0000000180022768     Adapter.obj
 0002:0000076a       ?is_specialized@_Num_float_base@std@@2_NB 000000018002276a     Adapter.obj
 0002:00000770       ?pmField@?$CVarTypeInfo@PEA_W@ATL@@2QEQtagVARIANT@@PEA_WEQ3@ 0000000180022770     Adapter.obj
 0002:00000774       ?tinyness_before@_Num_float_base@std@@2_NB 0000000180022774     Adapter.obj
 0002:00000775       ?traps@_Num_float_base@std@@2_NB 0000000180022775     Adapter.obj
 0002:00000778       ?round_style@_Num_float_base@std@@2W4float_round_style@2@B 0000000180022778     Adapter.obj
 0002:0000077c       ?VT@?$CVarTypeInfo@PEAPEA_W@ATL@@2GB 000000018002277c     Adapter.obj
 0002:00000780       ?radix@_Num_float_base@std@@2HB 0000000180022780     Adapter.obj
 0002:00000788       ?pmField@?$CVarTypeInfo@PEAPEA_W@ATL@@2QEQtagVARIANT@@PEAPEA_WEQ3@ 0000000180022788     Adapter.obj
 0002:0000078c       ??_C@_05GIBEAPNE@CLSID?$AA@ 000000018002278c     Adapter.obj
 0002:00000794       ?VT@?$CVarTypeInfo@PEAUIUnknown@@@ATL@@2GB 0000000180022794     Adapter.obj
 0002:00000798       ?pmField@?$CVarTypeInfo@PEAUIUnknown@@@ATL@@2QEQtagVARIANT@@PEAUIUnknown@@EQ3@ 0000000180022798     Adapter.obj
 0002:0000079c       ?is_signed@?$numeric_limits@D@std@@2_NB 000000018002279c     Adapter.obj
 0002:000007a0       ?digits@?$numeric_limits@D@std@@2HB 00000001800227a0     Adapter.obj
 0002:000007a4       ?VT@?$CVarTypeInfo@PEAPEAUIUnknown@@@ATL@@2GB 00000001800227a4     Adapter.obj
 0002:000007a8       ?digits10@?$numeric_limits@D@std@@2HB 00000001800227a8     Adapter.obj
 0002:000007b0       ?CLSID_WinFormsControl@@3U_GUID@@B 00000001800227b0     Adapter.obj
 0002:000007c0       ?pmField@?$CVarTypeInfo@PEAPEAUIUnknown@@@ATL@@2QEQtagVARIANT@@PEAPEAUIUnknown@@EQ3@ 00000001800227c0     Adapter.obj
 0002:000007c4       ??_C@_05PDIKPLII@AppID?$AA@ 00000001800227c4     Adapter.obj
 0002:000007cc       ?VT@?$CVarTypeInfo@PEAUIDispatch@@@ATL@@2GB 00000001800227cc     Adapter.obj
 0002:000007d0       ?pmField@?$CVarTypeInfo@PEAUIDispatch@@@ATL@@2QEQtagVARIANT@@PEAUIDispatch@@EQ3@ 00000001800227d0     Adapter.obj
 0002:000007d4       ?VT@?$CVarTypeInfo@PEAPEAUIDispatch@@@ATL@@2GB 00000001800227d4     Adapter.obj
 0002:000007d8       ?pmField@?$CVarTypeInfo@PEAPEAUIDispatch@@@ATL@@2QEQtagVARIANT@@PEAPEAUIDispatch@@EQ3@ 00000001800227d8     Adapter.obj
 0002:000007dc       ?is_signed@?$numeric_limits@_W@std@@2_NB 00000001800227dc     Adapter.obj
 0002:000007e0       ?digits@?$numeric_limits@_W@std@@2HB 00000001800227e0     Adapter.obj
 0002:000007e4       ?VT@?$CVarTypeInfo@TtagCY@@@ATL@@2GB 00000001800227e4     Adapter.obj
 0002:000007e8       ?digits10@?$numeric_limits@_W@std@@2HB 00000001800227e8     Adapter.obj
 0002:000007f0       ?pmField@?$CVarTypeInfo@TtagCY@@@ATL@@2QEQtagVARIANT@@TtagCY@@EQ3@ 00000001800227f0     Adapter.obj
 0002:000007f4       ?VT@?$CVarTypeInfo@PEATtagCY@@@ATL@@2GB 00000001800227f4     Adapter.obj
 0002:000007f8       ?pmField@?$CVarTypeInfo@PEATtagCY@@@ATL@@2QEQtagVARIANT@@PEATtagCY@@EQ3@ 00000001800227f8     Adapter.obj
 0002:000007fc       ?is_modulo@?$numeric_limits@_N@std@@2_NB 00000001800227fc     Adapter.obj
 0002:000007fd       ?is_signed@?$numeric_limits@_N@std@@2_NB 00000001800227fd     Adapter.obj
 0002:00000800       ?digits@?$numeric_limits@_N@std@@2HB 0000000180022800     Adapter.obj
 0002:00000804       ?digits10@?$numeric_limits@_N@std@@2HB 0000000180022804     Adapter.obj
 0002:00000808       ?chDirSep@ATL@@3DB         0000000180022808     Adapter.obj
 0002:00000809       ?chRightBracket@ATL@@3DB   0000000180022809     Adapter.obj
 0002:0000080c       ?sc_redShift@ColorF@D2D1@@0IB 000000018002280c     Adapter.obj
 0002:00000810       ?chLeftBracket@ATL@@3DB    0000000180022810     Adapter.obj
 0002:00000811       ?chQuote@ATL@@3DB          0000000180022811     Adapter.obj
 0002:00000814       ?sc_greenShift@ColorF@D2D1@@0IB 0000000180022814     Adapter.obj
 0002:00000818       ?c_bIsMFCDLLTraits@?$_MFCDLLTraitsCheck@_WV?$StrTraitATL@_WV?$ChTraitsCRT@_W@ATL@@@ATL@@@_CSTRING_IMPL_@ATL@@2_NB 0000000180022818     Adapter.obj
 0002:00000819       ?chEquals@ATL@@3DB         0000000180022819     Adapter.obj
 0002:00000820       ?szStringVal@ATL@@3QEBDEB  0000000180022820     Adapter.obj
 0002:00000828       ?sc_blueShift@ColorF@D2D1@@0IB 0000000180022828     Adapter.obj
 0002:0000082c       ??_C@_01CPLAODJH@S?$AA@    000000018002282c     Adapter.obj
 0002:00000830       ?multiszStringVal@ATL@@3QEBDEB 0000000180022830     Adapter.obj
 0002:00000838       ?sc_redMask@ColorF@D2D1@@0IB 0000000180022838     Adapter.obj
 0002:0000083c       ??_C@_01PLPBNMEI@M?$AA@    000000018002283c     Adapter.obj
 0002:00000840       ?szDwordVal@ATL@@3QEBDEB   0000000180022840     Adapter.obj
 0002:00000848       ?sc_greenMask@ColorF@D2D1@@0IB 0000000180022848     Adapter.obj
 0002:0000084c       ??_C@_01CKDDGHAB@D?$AA@    000000018002284c     Adapter.obj
 0002:00000850       ?szBinaryVal@ATL@@3QEBDEB  0000000180022850     Adapter.obj
 0002:00000858       ?sc_blueMask@ColorF@D2D1@@0IB 0000000180022858     Adapter.obj
 0002:0000085c       ??_C@_01HMGJMAIH@B?$AA@    000000018002285c     Adapter.obj
 0002:00000860       ?szValToken@ATL@@3QEBDEB   0000000180022860     Adapter.obj
 0002:00000868       ??_C@_03LAIAPFCB@Val?$AA@  0000000180022868     Adapter.obj
 0002:00000870       ?szForceRemove@ATL@@3QEBDEB 0000000180022870     Adapter.obj
 0002:00000878       ??_C@_0M@DBGDLGLL@ForceRemove?$AA@ 0000000180022878     Adapter.obj
 0002:00000888       ?szNoRemove@ATL@@3QEBDEB   0000000180022888     Adapter.obj
 0002:00000890       ?is_signed@?$numeric_limits@C@std@@2_NB 0000000180022890     Adapter.obj
 0002:00000898       ??_C@_08KAAPDIAN@NoRemove?$AA@ 0000000180022898     Adapter.obj
 0002:000008a8       ?szDelete@ATL@@3QEBDEB     00000001800228a8     Adapter.obj
 0002:000008b0       ??_C@_06JBKGCNBB@Delete?$AA@ 00000001800228b0     Adapter.obj
 0002:000008b8       ?digits@?$numeric_limits@C@std@@2HB 00000001800228b8     Adapter.obj
 0002:000008bc       ?digits10@?$numeric_limits@C@std@@2HB 00000001800228bc     Adapter.obj
 0002:000008c0       ?is_signed@?$numeric_limits@E@std@@2_NB 00000001800228c0     Adapter.obj
 0002:000008c4       ?digits@?$numeric_limits@E@std@@2HB 00000001800228c4     Adapter.obj
 0002:000008c8       ?digits10@?$numeric_limits@E@std@@2HB 00000001800228c8     Adapter.obj
 0002:000008cc       ?is_signed@?$numeric_limits@F@std@@2_NB 00000001800228cc     Adapter.obj
 0002:000008d0       ?digits@?$numeric_limits@F@std@@2HB 00000001800228d0     Adapter.obj
 0002:000008d4       ?c_bIsMFCDLLTraits@?$_MFCDLLTraitsCheck@_WV?$StrTraitMFC_DLL@_WV?$ChTraitsCRT@_W@ATL@@@@@_CSTRING_IMPL_@ATL@@2_NB 00000001800228d4     Adapter.obj
 0002:000008d8       ?digits10@?$numeric_limits@F@std@@2HB 00000001800228d8     Adapter.obj
 0002:000008e0       ?value@?$integral_constant@_K$07@std@@2_KB 00000001800228e0     Adapter.obj
 0002:000008e8       ?is_signed@?$numeric_limits@G@std@@2_NB 00000001800228e8     Adapter.obj
 0002:000008f0       _GUID_783321ed_78a3_4366_b574_6af607a64788 00000001800228f0     Adapter.obj
 0002:00000900       ?digits@?$numeric_limits@G@std@@2HB 0000000180022900     Adapter.obj
 0002:00000904       ?digits10@?$numeric_limits@G@std@@2HB 0000000180022904     Adapter.obj
 0002:00000908       _GUID_6358b7ba_87d2_42d5_bf71_82e919dd5862 0000000180022908     Adapter.obj
 0002:00000918       IID_IAxWinAmbientDispatchEx 0000000180022918     Adapter.obj
 0002:00000928       _GUID_bb3e1550_356e_44b0_99da_85ac6017865e 0000000180022928     Adapter.obj
 0002:00000938       ?is_signed@?$numeric_limits@H@std@@2_NB 0000000180022938     Adapter.obj
 0002:0000093c       ?digits@?$numeric_limits@H@std@@2HB 000000018002293c     Adapter.obj
 0002:00000940       IID_IInternalConnection    0000000180022940     Adapter.obj
 0002:00000950       ?digits10@?$numeric_limits@H@std@@2HB 0000000180022950     Adapter.obj
 0002:00000958       _GUID_3d5c9008_ec7c_4364_9f8a_9af3c58cbae6 0000000180022958     Adapter.obj
 0002:00000968       ?value@?$integral_constant@_K$03@std@@2_KB 0000000180022968     Adapter.obj
 0002:00000970       _GUID_274a7dea_d771_4095_abbd_8df7abd23ce3 0000000180022970     Adapter.obj
 0002:00000980       ?is_signed@?$numeric_limits@I@std@@2_NB 0000000180022980     Adapter.obj
 0002:00000984       ?digits@?$numeric_limits@I@std@@2HB 0000000180022984     Adapter.obj
 0002:00000988       ?digits10@?$numeric_limits@I@std@@2HB 0000000180022988     Adapter.obj
 0002:00000990       _GUID_7815cbba_ddf7_478c_a46c_7b6c738b7978 0000000180022990     Adapter.obj
 0002:000009a0       ?MAX_VALUE@CRegParser@ATL@@1HB 00000001800229a0     Adapter.obj
 0002:000009a4       ?is_signed@?$numeric_limits@J@std@@2_NB 00000001800229a4     Adapter.obj
 0002:000009a8       ?value@?$integral_constant@_K$01@std@@2_KB 00000001800229a8     Adapter.obj
 0002:000009b0       ?digits@?$numeric_limits@J@std@@2HB 00000001800229b0     Adapter.obj
 0002:000009b4       ?digits10@?$numeric_limits@J@std@@2HB 00000001800229b4     Adapter.obj
 0002:000009c0       ?rgszNeverDelete@CRegParser@ATL@@1QBQEBDB 00000001800229c0     Adapter.obj
 0002:00000a20       ?cbNeverDelete@CRegParser@ATL@@1HB 0000000180022a20     Adapter.obj
 0002:00000a24       ?MAX_TYPE@CRegParser@ATL@@1HB 0000000180022a24     Adapter.obj
 0002:00000a28       ?is_signed@?$numeric_limits@K@std@@2_NB 0000000180022a28     Adapter.obj
 0002:00000a2c       ?digits@?$numeric_limits@K@std@@2HB 0000000180022a2c     Adapter.obj
 0002:00000a30       ?digits10@?$numeric_limits@K@std@@2HB 0000000180022a30     Adapter.obj
 0002:00000a38       _GUID_fc4801a3_2ba9_11cf_a229_00aa003d7352 0000000180022a38     Adapter.obj
 0002:00000a48       ?value@?$integral_constant@_K$00@std@@2_KB 0000000180022a48     Adapter.obj
 0002:00000a50       ?is_signed@?$numeric_limits@_J@std@@2_NB 0000000180022a50     Adapter.obj
 0002:00000a54       ?digits@?$numeric_limits@_J@std@@2HB 0000000180022a54     Adapter.obj
 0002:00000a58       ?digits10@?$numeric_limits@_J@std@@2HB 0000000180022a58     Adapter.obj
 0002:00000a60       ?value@?$_Maximum@$S@std@@2_KB 0000000180022a60     Adapter.obj
 0002:00000a68       ?is_signed@?$numeric_limits@_K@std@@2_NB 0000000180022a68     Adapter.obj
 0002:00000a6c       ?digits@?$numeric_limits@_K@std@@2HB 0000000180022a6c     Adapter.obj
 0002:00000a70       ?digits10@?$numeric_limits@_K@std@@2HB 0000000180022a70     Adapter.obj
 0002:00000a78       ?value@?$integral_constant@_K$0A@@std@@2_KB 0000000180022a78     Adapter.obj
 0002:00000a80       ?value@?$integral_constant@_N$0A@@std@@2_NB 0000000180022a80     Adapter.obj
 0002:00000a88       CLSID_Registrar            0000000180022a88     Adapter.obj
 0002:00000a98       ?value@?$integral_constant@_N$00@std@@2_NB 0000000180022a98     Adapter.obj
 0002:00000a9c       ?digits@?$numeric_limits@M@std@@2HB 0000000180022a9c     Adapter.obj
 0002:00000aa0       ?digits10@?$numeric_limits@M@std@@2HB 0000000180022aa0     Adapter.obj
 0002:00000aa4       ?max_digits10@?$numeric_limits@M@std@@2HB 0000000180022aa4     Adapter.obj
 0002:00000aa8       ?max_exponent@?$numeric_limits@M@std@@2HB 0000000180022aa8     Adapter.obj
 0002:00000ab0       ?Millisecond@CFileTime@ATL@@2_KB 0000000180022ab0     Adapter.obj
 0002:00000ab8       ?max_exponent10@?$numeric_limits@M@std@@2HB 0000000180022ab8     Adapter.obj
 0002:00000ac0       ?Second@CFileTime@ATL@@2_KB 0000000180022ac0     Adapter.obj
 0002:00000ac8       ?Minute@CFileTime@ATL@@2_KB 0000000180022ac8     Adapter.obj
 0002:00000ad0       ?min_exponent@?$numeric_limits@M@std@@2HB 0000000180022ad0     Adapter.obj
 0002:00000ad8       ?Hour@CFileTime@ATL@@2_KB  0000000180022ad8     Adapter.obj
 0002:00000ae0       ?min_exponent10@?$numeric_limits@M@std@@2HB 0000000180022ae0     Adapter.obj
 0002:00000ae8       IID_IRegistrar             0000000180022ae8     Adapter.obj
 0002:00000af8       ?Day@CFileTime@ATL@@2_KB   0000000180022af8     Adapter.obj
 0002:00000b00       ?Week@CFileTime@ATL@@2_KB  0000000180022b00     Adapter.obj
 0002:00000b08       ?szInvalidDateTime@ATL@@3QEBDEB 0000000180022b08     Adapter.obj
 0002:00000b10       ??_C@_0BB@KEKMKJPM@Invalid?5DateTime?$AA@ 0000000180022b10     Adapter.obj
 0002:00000b28       ?szInvalidDateTimeSpan@ATL@@3QEBDEB 0000000180022b28     Adapter.obj
 0002:00000b30       ??_C@_0BF@GPPHKJFN@Invalid?5DateTimeSpan?$AA@ 0000000180022b30     Adapter.obj
 0002:00000b48       ?digits@?$numeric_limits@N@std@@2HB 0000000180022b48     Adapter.obj
 0002:00000b4c       ?digits10@?$numeric_limits@N@std@@2HB 0000000180022b4c     Adapter.obj
 0002:00000b50       ?_Min@?$AtlLimits@H@ATL@@2HB 0000000180022b50     Adapter.obj
 0002:00000b54       ?_Max@?$AtlLimits@H@ATL@@2HB 0000000180022b54     Adapter.obj
 0002:00000b58       ?max_digits10@?$numeric_limits@N@std@@2HB 0000000180022b58     Adapter.obj
 0002:00000b5c       ?skipws@?$_Iosb@H@std@@2W4_Fmtflags@12@B 0000000180022b5c     Adapter.obj
 0002:00000b60       ?max_exponent@?$numeric_limits@N@std@@2HB 0000000180022b60     Adapter.obj
 0002:00000b64       ?unitbuf@?$_Iosb@H@std@@2W4_Fmtflags@12@B 0000000180022b64     Adapter.obj
 0002:00000b68       ?uppercase@?$_Iosb@H@std@@2W4_Fmtflags@12@B 0000000180022b68     Adapter.obj
 0002:00000b6c       ?max_exponent10@?$numeric_limits@N@std@@2HB 0000000180022b6c     Adapter.obj
 0002:00000b70       ?_Min@?$AtlLimits@I@ATL@@2IB 0000000180022b70     Adapter.obj
 0002:00000b74       ?showbase@?$_Iosb@H@std@@2W4_Fmtflags@12@B 0000000180022b74     Adapter.obj
 0002:00000b78       ?_Max@?$AtlLimits@I@ATL@@2IB 0000000180022b78     Adapter.obj
 0002:00000b7c       ?min_exponent@?$numeric_limits@N@std@@2HB 0000000180022b7c     Adapter.obj
 0002:00000b80       ?showpoint@?$_Iosb@H@std@@2W4_Fmtflags@12@B 0000000180022b80     Adapter.obj
 0002:00000b84       ?min_exponent10@?$numeric_limits@N@std@@2HB 0000000180022b84     Adapter.obj
 0002:00000b88       ?showpos@?$_Iosb@H@std@@2W4_Fmtflags@12@B 0000000180022b88     Adapter.obj
 0002:00000b8c       ?left@?$_Iosb@H@std@@2W4_Fmtflags@12@B 0000000180022b8c     Adapter.obj
 0002:00000b90       ?_Min@?$AtlLimits@J@ATL@@2JB 0000000180022b90     Adapter.obj
 0002:00000b94       ?right@?$_Iosb@H@std@@2W4_Fmtflags@12@B 0000000180022b94     Adapter.obj
 0002:00000b98       ?_Max@?$AtlLimits@J@ATL@@2JB 0000000180022b98     Adapter.obj
 0002:00000b9c       ?internal@?$_Iosb@H@std@@2W4_Fmtflags@12@B 0000000180022b9c     Adapter.obj
 0002:00000ba0       ?dec@?$_Iosb@H@std@@2W4_Fmtflags@12@B 0000000180022ba0     Adapter.obj
 0002:00000ba4       ?oct@?$_Iosb@H@std@@2W4_Fmtflags@12@B 0000000180022ba4     Adapter.obj
 0002:00000ba8       ?_Min@?$AtlLimits@K@ATL@@2KB 0000000180022ba8     Adapter.obj
 0002:00000bac       ?hex@?$_Iosb@H@std@@2W4_Fmtflags@12@B 0000000180022bac     Adapter.obj
 0002:00000bb0       ?_Max@?$AtlLimits@K@ATL@@2KB 0000000180022bb0     Adapter.obj
 0002:00000bb4       ?scientific@?$_Iosb@H@std@@2W4_Fmtflags@12@B 0000000180022bb4     Adapter.obj
 0002:00000bb8       ?fixed@?$_Iosb@H@std@@2W4_Fmtflags@12@B 0000000180022bb8     Adapter.obj
 0002:00000bbc       ?hexfloat@?$_Iosb@H@std@@2W4_Fmtflags@12@B 0000000180022bbc     Adapter.obj
 0002:00000bc0       ?_Min@?$AtlLimits@_J@ATL@@2_JB 0000000180022bc0     Adapter.obj
 0002:00000bc8       ?boolalpha@?$_Iosb@H@std@@2W4_Fmtflags@12@B 0000000180022bc8     Adapter.obj
 0002:00000bcc       ?digits@?$numeric_limits@O@std@@2HB 0000000180022bcc     Adapter.obj
 0002:00000bd0       ?_Max@?$AtlLimits@_J@ATL@@2_JB 0000000180022bd0     Adapter.obj
 0002:00000bd8       ?_Stdio@?$_Iosb@H@std@@2W4_Fmtflags@12@B 0000000180022bd8     Adapter.obj
 0002:00000bdc       ?digits10@?$numeric_limits@O@std@@2HB 0000000180022bdc     Adapter.obj
 0002:00000be0       _GUID_00000146_0000_0000_c000_000000000046 0000000180022be0     Adapter.obj
 0002:00000bf0       ?max_digits10@?$numeric_limits@O@std@@2HB 0000000180022bf0     Adapter.obj
 0002:00000bf4       ?adjustfield@?$_Iosb@H@std@@2W4_Fmtflags@12@B 0000000180022bf4     Adapter.obj
 0002:00000bf8       ?collate@?$_Locbase@H@std@@2HB 0000000180022bf8     Adapter.obj
 0002:00000bfc       ?basefield@?$_Iosb@H@std@@2W4_Fmtflags@12@B 0000000180022bfc     Adapter.obj
 0002:00000c00       ?ctype@?$_Locbase@H@std@@2HB 0000000180022c00     Adapter.obj
 0002:00000c04       ?max_exponent@?$numeric_limits@O@std@@2HB 0000000180022c04     Adapter.obj
 0002:00000c08       ?_Min@?$AtlLimits@_K@ATL@@2_KB 0000000180022c08     Adapter.obj
 0002:00000c10       ?monetary@?$_Locbase@H@std@@2HB 0000000180022c10     Adapter.obj
 0002:00000c14       ?floatfield@?$_Iosb@H@std@@2W4_Fmtflags@12@B 0000000180022c14     Adapter.obj
 0002:00000c18       ?_Max@?$AtlLimits@_K@ATL@@2_KB 0000000180022c18     Adapter.obj
 0002:00000c20       ?numeric@?$_Locbase@H@std@@2HB 0000000180022c20     Adapter.obj
 0002:00000c24       ?max_exponent10@?$numeric_limits@O@std@@2HB 0000000180022c24     Adapter.obj
 0002:00000c28       ?time@?$_Locbase@H@std@@2HB 0000000180022c28     Adapter.obj
 0002:00000c2c       ?goodbit@?$_Iosb@H@std@@2W4_Iostate@12@B 0000000180022c2c     Adapter.obj
 0002:00000c30       ?messages@?$_Locbase@H@std@@2HB 0000000180022c30     Adapter.obj
 0002:00000c34       ?min_exponent@?$numeric_limits@O@std@@2HB 0000000180022c34     Adapter.obj
 0002:00000c38       ?all@?$_Locbase@H@std@@2HB 0000000180022c38     Adapter.obj
 0002:00000c3c       ?eofbit@?$_Iosb@H@std@@2W4_Iostate@12@B 0000000180022c3c     Adapter.obj
 0002:00000c40       ?min_exponent10@?$numeric_limits@O@std@@2HB 0000000180022c40     Adapter.obj
 0002:00000c44       ?none@?$_Locbase@H@std@@2HB 0000000180022c44     Adapter.obj
 0002:00000c48       ?failbit@?$_Iosb@H@std@@2W4_Iostate@12@B 0000000180022c48     Adapter.obj
 0002:00000c4c       ?badbit@?$_Iosb@H@std@@2W4_Iostate@12@B 0000000180022c4c     Adapter.obj
 0002:00000c50       ?_Hardfail@?$_Iosb@H@std@@2W4_Iostate@12@B 0000000180022c50     Adapter.obj
 0002:00000c54       ?in@?$_Iosb@H@std@@2W4_Openmode@12@B 0000000180022c54     Adapter.obj
 0002:00000c58       ?out@?$_Iosb@H@std@@2W4_Openmode@12@B 0000000180022c58     Adapter.obj
 0002:00000c5c       ?ate@?$_Iosb@H@std@@2W4_Openmode@12@B 0000000180022c5c     Adapter.obj
 0002:00000c60       IID_IDocHostUIHandlerDispatch 0000000180022c60     Adapter.obj
 0002:00000c70       ?app@?$_Iosb@H@std@@2W4_Openmode@12@B 0000000180022c70     Adapter.obj
 0002:00000c74       ?trunc@?$_Iosb@H@std@@2W4_Openmode@12@B 0000000180022c74     Adapter.obj
 0002:00000c78       ?_Nocreate@?$_Iosb@H@std@@2W4_Openmode@12@B 0000000180022c78     Adapter.obj
 0002:00000c7c       ?_Noreplace@?$_Iosb@H@std@@2W4_Openmode@12@B 0000000180022c7c     Adapter.obj
 0002:00000c80       ?binary@?$_Iosb@H@std@@2W4_Openmode@12@B 0000000180022c80     Adapter.obj
 0002:00000c84       ?beg@?$_Iosb@H@std@@2W4_Seekdir@12@B 0000000180022c84     Adapter.obj
 0002:00000c88       ?cur@?$_Iosb@H@std@@2W4_Seekdir@12@B 0000000180022c88     Adapter.obj
 0002:00000c8c       ?c_bIsMFCDLLTraits@?$_MFCDLLTraitsCheck@DV?$StrTraitMFC_DLL@DV?$ChTraitsCRT@D@ATL@@@@@_CSTRING_IMPL_@ATL@@2_NB 0000000180022c8c     Adapter.obj
 0002:00000c90       ?end@?$_Iosb@H@std@@2W4_Seekdir@12@B 0000000180022c90     Adapter.obj
 0002:00000c94       ?VT@?$CVarTypeInfo@D@ATL@@2GB 0000000180022c94     Adapter.obj
 0002:00000c98       ?pmField@?$CVarTypeInfo@D@ATL@@2QEQtagVARIANT@@DEQ3@ 0000000180022c98     Adapter.obj
 0002:00000c9c       ?VT@?$CVarTypeInfo@E@ATL@@2GB 0000000180022c9c     Adapter.obj
 0002:00000ca0       ?pmField@?$CVarTypeInfo@E@ATL@@2QEQtagVARIANT@@EEQ3@ 0000000180022ca0     Adapter.obj
 0002:00000ca8       LIBID_ATLLib               0000000180022ca8     Adapter.obj
 0002:00000cb8       ?VT@?$CVarTypeInfo@PEAD@ATL@@2GB 0000000180022cb8     Adapter.obj
 0002:00000cc0       ?pmField@?$CVarTypeInfo@PEAD@ATL@@2QEQtagVARIANT@@PEADEQ3@ 0000000180022cc0     Adapter.obj
 0002:00000cc4       ?VT@?$CVarTypeInfo@PEAE@ATL@@2GB 0000000180022cc4     Adapter.obj
 0002:00000cc8       ?pmField@?$CVarTypeInfo@PEAE@ATL@@2QEQtagVARIANT@@PEAEEQ3@ 0000000180022cc8     Adapter.obj
 0002:00000ccc       ?c_bIsMFCDLLTraits@?$_MFCDLLTraitsCheck@DV?$StrTraitATL@DV?$ChTraitsCRT@D@ATL@@@ATL@@@_CSTRING_IMPL_@ATL@@2_NB 0000000180022ccc     Adapter.obj
 0002:00000cd0       _GUID_00000109_0000_0000_c000_000000000046 0000000180022cd0     Adapter.obj
 0002:00000ce0       ?VT@?$CVarTypeInfo@F@ATL@@2GB 0000000180022ce0     Adapter.obj
 0002:00000ce8       _GUID_7fd52380_4e07_101b_ae2d_08002b2ec713 0000000180022ce8     Adapter.obj
 0002:00000cf8       ?pmField@?$CVarTypeInfo@F@ATL@@2QEQtagVARIANT@@FEQ3@ 0000000180022cf8     Adapter.obj
 0002:00000d00       _GUID_b196b284_bab4_101a_b69c_00aa00341d07 0000000180022d00     Adapter.obj
 0002:00000d10       ?VT@?$CVarTypeInfo@PEAF@ATL@@2GB 0000000180022d10     Adapter.obj
 0002:00000d18       ?pmField@?$CVarTypeInfo@PEAF@ATL@@2QEQtagVARIANT@@PEAFEQ3@ 0000000180022d18     Adapter.obj
 0002:00000d1c       ?generic@CArchiveException@@2HB 0000000180022d1c     Adapter.obj
 0002:00000d20       ?maxDaysInSpan@COleDateTimeSpan@ATL@@0JB 0000000180022d20     Adapter.obj
 0002:00000d24       ?VT@?$CVarTypeInfo@G@ATL@@2GB 0000000180022d24     Adapter.obj
 0002:00000d28       ?pmField@?$CVarTypeInfo@G@ATL@@2QEQtagVARIANT@@GEQ3@ 0000000180022d28     Adapter.obj
 0002:00000d2c       ?VT@?$CVarTypeInfo@PEAG@ATL@@2GB 0000000180022d2c     Adapter.obj
 0002:00000d30       ?pmField@?$CVarTypeInfo@PEAG@ATL@@2QEQtagVARIANT@@PEAGEQ3@ 0000000180022d30     Adapter.obj
 0002:00000d34       ?VT@?$CVarTypeInfo@H@ATL@@2GB 0000000180022d34     Adapter.obj
 0002:00000d38       ?pmField@?$CVarTypeInfo@H@ATL@@2QEQtagVARIANT@@HEQ3@ 0000000180022d38     Adapter.obj
 0002:00000d3c       ?generic@CFileException@@2HB 0000000180022d3c     Adapter.obj
 0002:00000d40       ?VT@?$CVarTypeInfo@PEAH@ATL@@2GB 0000000180022d40     Adapter.obj
 0002:00000d48       ?pmField@?$CVarTypeInfo@PEAH@ATL@@2QEQtagVARIANT@@PEAHEQ3@ 0000000180022d48     Adapter.obj
 0002:00000d4c       ?VT@?$CVarTypeInfo@I@ATL@@2GB 0000000180022d4c     Adapter.obj
 0002:00000d50       ?pmField@?$CVarTypeInfo@I@ATL@@2QEQtagVARIANT@@IEQ3@ 0000000180022d50     Adapter.obj
 0002:00000d58       ?OLE_DATETIME_HALFSECOND@COleDateTimeSpan@ATL@@2NB 0000000180022d58     Adapter.obj
 0002:00000d60       ?VT@?$CVarTypeInfo@PEAI@ATL@@2GB 0000000180022d60     Adapter.obj
 0002:00000d68       ?pmField@?$CVarTypeInfo@PEAI@ATL@@2QEQtagVARIANT@@PEAIEQ3@ 0000000180022d68     Adapter.obj
 0002:00000d6c       ?VT@?$CVarTypeInfo@J@ATL@@2GB 0000000180022d6c     Adapter.obj
 0002:00000d70       ?pmField@?$CVarTypeInfo@J@ATL@@2QEQtagVARIANT@@JEQ3@ 0000000180022d70     Adapter.obj
 0002:00000d74       ?has_denorm@_Num_base@std@@2W4float_denorm_style@2@B 0000000180022d74     Adapter.obj
 0002:00000d78       ?has_denorm_loss@_Num_base@std@@2_NB 0000000180022d78     Adapter.obj
 0002:00000d7c       ?VT@?$CVarTypeInfo@PEAJ@ATL@@2GB 0000000180022d7c     Adapter.obj
 0002:00000d80       ?pmField@?$CVarTypeInfo@PEAJ@ATL@@2QEQtagVARIANT@@PEAJEQ3@ 0000000180022d80     Adapter.obj
 0002:00000d84       ?has_infinity@_Num_base@std@@2_NB 0000000180022d84     Adapter.obj
 0002:00000d85       ?has_quiet_NaN@_Num_base@std@@2_NB 0000000180022d85     Adapter.obj
 0002:00000d86       ?has_signaling_NaN@_Num_base@std@@2_NB 0000000180022d86     Adapter.obj
 0002:00000d87       ?is_bounded@_Num_base@std@@2_NB 0000000180022d87     Adapter.obj
 0002:00000d88       IID_IAxWinHostWindow       0000000180022d88     Adapter.obj
 0002:00000d98       ?VT@?$CVarTypeInfo@K@ATL@@2GB 0000000180022d98     Adapter.obj
 0002:00000d9a       ?is_exact@_Num_base@std@@2_NB 0000000180022d9a     Adapter.obj
 0002:00000da0       ?pmField@?$CVarTypeInfo@K@ATL@@2QEQtagVARIANT@@KEQ3@ 0000000180022da0     Adapter.obj
 0002:00000da4       ?is_iec559@_Num_base@std@@2_NB 0000000180022da4     Adapter.obj
 0002:00000da5       ?is_integer@_Num_base@std@@2_NB 0000000180022da5     Adapter.obj
 0002:00000da6       ?is_modulo@_Num_base@std@@2_NB 0000000180022da6     Adapter.obj
 0002:00000da8       ?VT@?$CVarTypeInfo@PEAK@ATL@@2GB 0000000180022da8     Adapter.obj
 0002:00000daa       ?is_signed@_Num_base@std@@2_NB 0000000180022daa     Adapter.obj
 0002:00000db0       ?pmField@?$CVarTypeInfo@PEAK@ATL@@2QEQtagVARIANT@@PEAKEQ3@ 0000000180022db0     Adapter.obj
 0002:00000db4       ?is_specialized@_Num_base@std@@2_NB 0000000180022db4     Adapter.obj
 0002:00000db5       ?tinyness_before@_Num_base@std@@2_NB 0000000180022db5     Adapter.obj
 0002:00000db6       ?traps@_Num_base@std@@2_NB 0000000180022db6     Adapter.obj
 0002:00000db8       ?round_style@_Num_base@std@@2W4float_round_style@2@B 0000000180022db8     Adapter.obj
 0002:00000dbc       ?VT@?$CVarTypeInfo@_J@ATL@@2GB 0000000180022dbc     Adapter.obj
 0002:00000dc0       ?pmField@?$CVarTypeInfo@_J@ATL@@2QEQtagVARIANT@@_JEQ3@ 0000000180022dc0     Adapter.obj
 0002:00000dc4       ?digits@_Num_base@std@@2HB 0000000180022dc4     Adapter.obj
 0002:00000dc8       ?digits10@_Num_base@std@@2HB 0000000180022dc8     Adapter.obj
 0002:00000dcc       ?max_digits10@_Num_base@std@@2HB 0000000180022dcc     Adapter.obj
 0002:00000dd0       ?max_exponent@_Num_base@std@@2HB 0000000180022dd0     Adapter.obj
 0002:00000dd4       ?VT@?$CVarTypeInfo@PEA_J@ATL@@2GB 0000000180022dd4     Adapter.obj
 0002:00000dd8       ?max_exponent10@_Num_base@std@@2HB 0000000180022dd8     Adapter.obj
 0002:00000de0       ?pmField@?$CVarTypeInfo@PEA_J@ATL@@2QEQtagVARIANT@@PEA_JEQ3@ 0000000180022de0     Adapter.obj
 0002:00000de4       ?min_exponent@_Num_base@std@@2HB 0000000180022de4     Adapter.obj
 0002:00000de8       ??_C@_0BF@HDDNNDFH@Component?5Categories?$AA@ 0000000180022de8     Adapter.obj
 0002:00000e00       ??_C@_08PICKODJL@FileType?$AA@ 0000000180022e00     Adapter.obj
 0002:00000e10       ??_C@_09JKPGEJCH@Interface?$AA@ 0000000180022e10     Adapter.obj
 0002:00000e1c       ?min_exponent10@_Num_base@std@@2HB 0000000180022e1c     Adapter.obj
 0002:00000e20       ??_C@_08PPIOJEA@Hardware?$AA@ 0000000180022e20     Adapter.obj
 0002:00000e2c       ??_C@_04IHBFOLAC@Mime?$AA@ 0000000180022e2c     Adapter.obj
 0002:00000e34       ??_C@_03DDIMFGBA@SAM?$AA@  0000000180022e34     Adapter.obj
 0002:00000e38       ?radix@_Num_base@std@@2HB  0000000180022e38     Adapter.obj
 0002:00000e40       ??_C@_08LOPHEHKG@SECURITY?$AA@ 0000000180022e40     Adapter.obj
 0002:00000e4c       ??_C@_06FDHFNJBJ@SYSTEM?$AA@ 0000000180022e4c     Adapter.obj
 0002:00000e54       ?VT@?$CVarTypeInfo@_K@ATL@@2GB 0000000180022e54     Adapter.obj
 0002:00000e58       ??_C@_08KEKAJNJI@Software?$AA@ 0000000180022e58     Adapter.obj
 0002:00000e68       ??_C@_07KJLOKDKB@TypeLib?$AA@ 0000000180022e68     Adapter.obj
 0002:00000e70       ?pmField@?$CVarTypeInfo@_K@ATL@@2QEQtagVARIANT@@_KEQ3@ 0000000180022e70     Adapter.obj
 0002:00000e78       _GUID_00000000_0000_0000_c000_000000000046 0000000180022e78     Adapter.obj
 0002:00000e88       ?VT@?$CVarTypeInfo@PEA_K@ATL@@2GB 0000000180022e88     Adapter.obj
 0002:00000e90       ?pmField@?$CVarTypeInfo@PEA_K@ATL@@2QEQtagVARIANT@@PEA_KEQ3@ 0000000180022e90     Adapter.obj
 0002:00000e98       _GUID_00020400_0000_0000_c000_000000000046 0000000180022e98     Adapter.obj
 0002:00000ea8       ?VT@?$CVarTypeInfo@M@ATL@@2GB 0000000180022ea8     Adapter.obj
 0002:00000eb0       ?pmField@?$CVarTypeInfo@M@ATL@@2QEQtagVARIANT@@MEQ3@ 0000000180022eb0     Adapter.obj
 0002:00000eb4       ?is_bounded@_Num_int_base@std@@2_NB 0000000180022eb4     Adapter.obj
 0002:00000eb5       ?is_exact@_Num_int_base@std@@2_NB 0000000180022eb5     Adapter.obj
 0002:00000eb8       IID_IAxWinHostWindowLic    0000000180022eb8     Adapter.obj
 0002:00000ec8       ?is_integer@_Num_int_base@std@@2_NB 0000000180022ec8     Adapter.obj
 0002:00000ecc       ?VT@?$CVarTypeInfo@PEAM@ATL@@2GB 0000000180022ecc     Adapter.obj
 0002:00000ece       ?is_modulo@_Num_int_base@std@@2_NB 0000000180022ece     Adapter.obj
 0002:00000ed0       ?pmField@?$CVarTypeInfo@PEAM@ATL@@2QEQtagVARIANT@@PEAMEQ3@ 0000000180022ed0     Adapter.obj
 0002:00000ed4       ?is_specialized@_Num_int_base@std@@2_NB 0000000180022ed4     Adapter.obj
 0002:00000ed8       ?radix@_Num_int_base@std@@2HB 0000000180022ed8     Adapter.obj
 0002:00000edc       ?VT@?$CVarTypeInfo@N@ATL@@2GB 0000000180022edc     Adapter.obj
 0002:00000ee0       ?pmField@?$CVarTypeInfo@N@ATL@@2QEQtagVARIANT@@NEQ3@ 0000000180022ee0     Adapter.obj
 0002:00000ee4       ?has_denorm@_Num_float_base@std@@2W4float_denorm_style@2@B 0000000180022ee4     Adapter.obj
 0002:00000ee8       ?has_denorm_loss@_Num_float_base@std@@2_NB 0000000180022ee8     Adapter.obj
 0002:00001088       ??_7CWin32Heap@ATL@@6B@    0000000180023088     Adapter.obj
 0002:000010b0       ??_C@_02DPKJAMEF@?$CFd?$AA@ 00000001800230b0     Adapter.obj
 0002:000010c0       ??_7CAtlStringMgr@ATL@@6B@ 00000001800230c0     Adapter.obj
 0002:000010f8       ??_7error_category@std@@6B@ 00000001800230f8     Adapter.obj
 0002:00001130       ??_7_Generic_error_category@std@@6B@ 0000000180023130     Adapter.obj
 0002:00001160       ??_C@_07DCLBNMLN@generic?$AA@ 0000000180023160     Adapter.obj
 0002:00001168       ??_C@_0O@BFJCFAAK@unknown?5error?$AA@ 0000000180023168     Adapter.obj
 0002:00001180       ??_7_Iostream_error_category@std@@6B@ 0000000180023180     Adapter.obj
 0002:000011b0       ??_C@_08LLGCOLLL@iostream?$AA@ 00000001800231b0     Adapter.obj
 0002:000011c0       ??_C@_0BG@PADBLCHM@iostream?5stream?5error?$AA@ 00000001800231c0     Adapter.obj
 0002:000011e0       ??_7_System_error_category@std@@6B@ 00000001800231e0     Adapter.obj
 0002:00001210       ??_C@_06FHFOAHML@system?$AA@ 0000000180023210     Adapter.obj
 0002:00001218       ??_C@_02NMFNNFIO@?$CFo?$AA@ 0000000180023218     Adapter.obj
 0002:0000121c       ??_C@_02NJNOFBBI@?$CFx?$AA@ 000000018002321c     Adapter.obj
 0002:00001220       ??_C@_04BFAHMMK@?$CFlld?$AA@ 0000000180023220     Adapter.obj
 0002:00001228       ??_C@_02CFKBDFGI@?1?2?$AA@ 0000000180023228     Adapter.obj
 0002:0000122c       ??_C@_02DKCKIIND@?$CFs?$AA@ 000000018002322c     Adapter.obj
 0002:00001230       ??_C@_0BA@JFNIOLAK@string?5too?5long?$AA@ 0000000180023230     Adapter.obj
 0002:00001240       ??_C@_0BI@CFPLBAOH@invalid?5string?5position?$AA@ 0000000180023240     Adapter.obj
 0002:00001258       ??_C@_0BD@OLBABOEK@vector?$DMT?$DO?5too?5long?$AA@ 0000000180023258     Adapter.obj
 0002:00001278       ??_7DerivedLock@@6B@       0000000180023278     DerivedLock.obj
 0002:00001598       ??_C@_05LLAMLEHD@?$CFI64d?$AA@ 0000000180023598     Global.obj
 0002:0000159e       ??_C@_00CNPNBAHC@?$AA@     000000018002359e     Global.obj
 0002:000015a0       ??_C@_0CD@FOAEPEHP@?$CF04d?9?$CF02d?9?$CF02d?5?$CF02d?3?$CF02d?3?$CF02d?4?$CF0@ 00000001800235a0     Global.obj
 0002:000015d0       ??_7CSpeedLimit@@6B@       00000001800235d0     Global.obj
 0002:000015d8       ??_C@_08BCHAAPIF@?$CFd?3?$CFd?3?$CFd?$AA@ 00000001800235d8     Global.obj
 0002:000015e4       ??_C@_01IHBHIGKO@?0?$AA@   00000001800235e4     Global.obj
 0002:000015e8       ??_C@_09CMDJPDJN@?$CK?$CD06?$CD?$HO?$CI?$DM?1?$AA@ 00000001800235e8     Global.obj
 0002:000015f8       ??_C@_0BB@HNPGOKHM@?$CF010d?$CFs?$CFs?$CFs?$CF010d?$AA@ 00000001800235f8     Global.obj
 0002:00001610       ??_C@_0BB@LFFHMFME@?$CF010d?$CFs?$CFd?$CFs?$CF010d?$AA@ 0000000180023610     Global.obj
 0002:00001624       ??_C@_04NOJCDH@?$CF02x?$AA@ 0000000180023624     Global.obj
 0002:0000162c       ??_C@_04JFFKLGJF@?$CF02X?$AA@ 000000018002362c     Global.obj
 0002:00001634       ??_C@_05NFBAKGKI@?$CF010d?$AA@ 0000000180023634     Global.obj
 0002:00001640       ??_C@_0BF@FEKIOOC@?$CF02d?$CF02d?$CF02d?$CF02d?$CF02d?$AA@ 0000000180023640     Global.obj
 0002:00001658       ??_C@_0BN@LCPPDDCI@?$CF02d?$CF02d?$CF02d?$CF02d?$CF02d?$CF06d?$CF06d?$AA@ 0000000180023658     Global.obj
 0002:00001678       ??_C@_07BJALGGNB@DELIVRD?$AA@ 0000000180023678     Global.obj
 0002:00001680       ??_C@_03LHMFPBNN@M1?3?$AA@ 0000000180023680     Global.obj
 0002:00001684       ??_C@_03LFIDEPIE@M2?3?$AA@ 0000000180023684     Global.obj
 0002:00001688       ??_C@_03LPLPLGBE@R1?3?$AA@ 0000000180023688     Global.obj
 0002:0000168c       ??_C@_03LNPJAIEN@R2?3?$AA@ 000000018002368c     Global.obj
 0002:00001690       ??_C@_0BO@NGNOHJIK@?$CF04d?9?$CF02d?9?$CF02d?5?$CF02d?3?$CF02d?3?$CF02d?$AA@ 0000000180023690     Global.obj
 0002:000016b0       ??_C@_0BN@BGMOIGMF@?$CF02d?$CF02d?$CF02d?$CF02d?$CF02d?$CF07d?$CF05d?$AA@ 00000001800236b0     Global.obj
 0002:000016d0       ??_C@_07FGAOOBMN@http?3?1?1?$AA@ 00000001800236d0     Global.obj
 0002:000016d8       ??_C@_01KMDKNFGN@?1?$AA@   00000001800236d8     Global.obj
 0002:000016dc       ??_C@_01JLIPDDHJ@?3?$AA@   00000001800236dc     Global.obj
 0002:000016e0       ??_C@_0P@PLMNPDMB@?$CF02d?3?$CF02d?3?$CF02d?$AA@ 00000001800236e0     Global.obj
 0002:000016f0       ??_C@_01PPODPGHN@?$DO?$AA@ 00000001800236f0     Global.obj
 0002:000016f4       ??_C@_02DPNDACHE@?$DM?1?$AA@ 00000001800236f4     Global.obj
 0002:000016f8       ??_C@_01NEMOKFLO@?$DN?$AA@ 00000001800236f8     Global.obj
 0002:000016fc       ??_C@_03IGAPNLEG@?$CG?$CDx?$AA@ 00000001800236fc     Global.obj
 0002:00001700       ??_C@_0N@HKKFMMEA@?1warning?4wav?$AA@ 0000000180023700     Global.obj
 0002:00001710       ??_C@_0BF@PKPHIBHB@?$CFd?9?$CFd?9?$CFd?5?$CFd?3?$CFd?3?$CFd?3?$CFd?$AA@ 0000000180023710     Global.obj
 0002:00001728       ??_C@_02OHHJMEON@?8?8?$AA@ 0000000180023728     Global.obj
 0002:0000172c       ??_C@_01GEODFPGF@?8?$AA@   000000018002372c     Global.obj
 0002:00001730       __real@408f400000000000    0000000180023730     Global.obj
 0002:00001738       __real@c08f400000000000    0000000180023738     Global.obj
 0002:00001ce8       ??_7CIocpKeyIoMgr@@6B@     0000000180023ce8     IocpKeyIoMgr.obj
 0002:00001cf0       ??_C@_0DP@GINNDOJC@CancelDelay?5WSARecv?5Error?5With?5E@ 0000000180023cf0     IocpKeyIoMgr.obj
 0002:00001d30       ??_C@_08FIGNJEBH@Iocp?4txt?$AA@ 0000000180023d30     IocpKeyIoMgr.obj
 0002:00001d40       ??_C@_0DP@IBGALGCE@IocpAsyncSend?5IocpAsyncSend?5WSA_@ 0000000180023d40     IocpKeyIoMgr.obj
 0002:00001d80       ??_C@_0O@LBLAJFIB@IoPending?4txt?$AA@ 0000000180023d80     IocpKeyIoMgr.obj
 0002:00001d90       ??_C@_0FC@LMALHDAJ@IocpAsyncSend?5IocpAsyncSend?5Alre@ 0000000180023d90     IocpKeyIoMgr.obj
 0002:00001df0       ??_C@_0EJ@JFHLIMKE@IocpAsyncSend?5IocpAsyncSend?5Erro@ 0000000180023df0     IocpKeyIoMgr.obj
 0002:00001e40       ??_C@_0DK@NGOHHACH@INFO?5?9?9?5User?5login?5out?3?$CFs?0?5Socke@ 0000000180023e40     IocpKeyIoMgr.obj
 0002:00001e80       ??_C@_07POILLFDI@log?4txt?$AA@ 0000000180023e80     IocpKeyIoMgr.obj
 0002:00001e90       ??_C@_0EO@GFABFDBO@INFO?5?9?9?5Socket?3?$CFd?5SockId?3?$CFd?5IP?3?$CF@ 0000000180023e90     IocpKeyIoMgr.obj
 0002:00001ee0       ??_C@_0EC@FFLBNBDA@CheckForInvalidConnection?3Socket@ 0000000180023ee0     IocpKeyIoMgr.obj
 0002:00001f28       ??_C@_0BB@MOGOBHAF@list?$DMT?$DO?5too?5long?$AA@ 0000000180023f28     IocpKeyIoMgr.obj
 0002:00001f40       ??_C@_0BE@JONHPENG@map?1set?$DMT?$DO?5too?5long?$AA@ 0000000180023f40     IocpKeyIoMgr.obj
 0002:00002208       ??_7CIocpServer@@6B@       0000000180024208     IocpServer.obj
 0002:00002290       ??_7CIocpServerFactory@@6B@ 0000000180024290     IocpServer.obj
 0002:00002890       ??_7CIocpServerImpl@@6B@   0000000180024890     IocpServerImpl.obj
 0002:00002910       ??_C@_0CK@KANHODII@INFO?5?9?9?5CIocpServerImpl?5start?5de@ 0000000180024910     IocpServerImpl.obj
 0002:00002940       ??_C@_0CI@OJFIDBCK@INFO?5?9?9?5CIocpServerImpl?5end?5dest@ 0000000180024940     IocpServerImpl.obj
 0002:00002968       ??_C@_0CA@GIDKPOI@InitSocket?5Error?5With?5ErCode?3?$CFd?$AA@ 0000000180024968     IocpServerImpl.obj
 0002:00002988       ??_C@_0DH@ICGEBNLE@InitSocket?5CreateIoCompletionPor@ 0000000180024988     IocpServerImpl.obj
 0002:000029c0       ??_C@_0CO@BJEFDNII@BindAndListenSocket?5Bind?5Error?5W@ 00000001800249c0     IocpServerImpl.obj
 0002:000029f0       ??_C@_0DA@KOOFCNLG@BindAndListenSocket?5Listen?5Error@ 00000001800249f0     IocpServerImpl.obj
 0002:00002a20       ??_C@_0CO@DEPECBCN@StartThread?5CreateThread?5Error?5W@ 0000000180024a20     IocpServerImpl.obj
 0002:00002a50       ??_C@_0DC@KANHNKMH@StartThread?5CreateThread?$FL?$CFd?$FN?5Err@ 0000000180024a50     IocpServerImpl.obj
 0002:00002a90       ??_C@_0EF@DOMEIKMP@StartThreadAcceptEx?5CreateThread@ 0000000180024a90     IocpServerImpl.obj
 0002:00002ae0       ??_C@_0EP@NNMFHLAB@StartThreadCheckDelay?5CreateThre@ 0000000180024ae0     IocpServerImpl.obj
 0002:00002b30       ??_C@_0CM@GMBJHEDG@PostAcceptEx?5WSASocket?5Error?5Wit@ 0000000180024b30     IocpServerImpl.obj
 0002:00002b60       ??_C@_0BK@OIOIDBFB@PostAcceptEx?5?I?j?G?kIO?J?$KH?$LA?$NM?$CB?$CB?$AA@ 0000000180024b60     IocpServerImpl.obj
 0002:00002b80       ??_C@_0DH@DLKMILDA@PostAcceptEx?5lpAcceptEx?5Error?5Wi@ 0000000180024b80     IocpServerImpl.obj
 0002:00002bb8       ??_C@_0BG@ENKPIAJA@PostAcceptEx?5error?4?4?4?$AA@ 0000000180024bb8     IocpServerImpl.obj
 0002:00002bd0       ??_C@_0CL@KGCKAPGM@This?5IP?3?$CFs?5is?5Black?5IP?5?$CB?$CB?$CB?5Kick?5@ 0000000180024bd0     IocpServerImpl.obj
 0002:00002c00       ??_C@_0DM@FPEFEOHL@DataAction?5WSASend?5Error?5With?5Er@ 0000000180024c00     IocpServerImpl.obj
 0002:00002c40       ??_C@_0DM@MAKFOJD@DataAction?5WSARecv?5Error?5With?5Er@ 0000000180024c40     IocpServerImpl.obj
 0002:00002c80       ??_C@_0DC@PLFFDCML@GetFunPointer?5Get?5lpAcceptEx?5Err@ 0000000180024c80     IocpServerImpl.obj
 0002:00002cb8       ??_C@_0DG@MPEOCBHN@GetFunPointer?5Get?5lpTransmitFile@ 0000000180024cb8     IocpServerImpl.obj
 0002:00002cf0       ??_C@_0DO@NICJGCBA@GetFunPointer?5Get?5lpGetAcceptExS@ 0000000180024cf0     IocpServerImpl.obj
 0002:00002d30       ??_C@_0BM@BHIHAIEF@funcCheckInvalidConn?5begin?$CB?$AA@ 0000000180024d30     IocpServerImpl.obj
 0002:00002d50       ??_C@_0BK@PGDEBLNE@funcCheckInvalidConn?5end?$CB?$AA@ 0000000180024d50     IocpServerImpl.obj
 0002:00002d70       ??_C@_0BO@OAIEOAGO@funcCheckInvalidConn?5Error?$CB?$CB?$CB?$AA@ 0000000180024d70     IocpServerImpl.obj
 0002:00002d90       ??_C@_0DD@DNKDIDKE@RegAcceptEvent?5WSAEventSelect?5Er@ 0000000180024d90     IocpServerImpl.obj
 0002:00002dc8       ??_C@_0CJ@MLLBACMH@INFO?5?9?9?5New?5user?5connect?3?$CFs?3?$CFd?0s@ 0000000180024dc8     IocpServerImpl.obj
 0002:00002df8       ??_C@_0CF@POGHHIBN@Init?5WSAStartup?5Error?5With?5ErCod@ 0000000180024df8     IocpServerImpl.obj
 0002:00002e20       ??_C@_0DB@IHAFOGBA@Init?5CreateIoCompletionPort?5Erro@ 0000000180024e20     IocpServerImpl.obj
 0002:00002e58       ??_C@_0CI@JDKFDFFL@CompletionRoutine?5Create?5IOKEY?5F@ 0000000180024e58     IocpServerImpl.obj
 0002:00002e80       ??_C@_0FC@EALANDCG@CompletionRoutine?5Bind?5New?5Socke@ 0000000180024e80     IocpServerImpl.obj
 0002:00002ed8       ??_C@_0CI@HLLDDLEG@?$CB?$CB?$CB?5SOCKET?A?$KM?$LN?S?J?$PN?R?Q?$LO?$KN?$LD?$KM?$LJ?$PN?A?K?W?n?$LE?s?V?$LF@ 0000000180024ed8     IocpServerImpl.obj
 0002:00002f00       ??_C@_0FB@FFMHDKNI@CompletionRoutine?5PostAcceptSock@ 0000000180024f00     IocpServerImpl.obj
 0002:00002f58       ??_C@_0DH@GNCHACEI@CompletionRoutine?5PostAcceptSock@ 0000000180024f58     IocpServerImpl.obj
 0002:00002f90       ??_C@_0EM@PKGJHAIA@CompletionRoutine?5PostAcceptSock@ 0000000180024f90     IocpServerImpl.obj
 0002:00002fe0       ??_C@_0DM@BEFDGBGH@CompletionRoutine?5DealIocpRead?5I@ 0000000180024fe0     IocpServerImpl.obj
 0002:00003020       ??_C@_0FI@PNFHHCEL@DealIocpWriteOver?5IOCP_WRITE_OVE@ 0000000180025020     IocpServerImpl.obj
 0002:00003080       ??_C@_0EG@HDILBHHE@GetQueuedCompletionStatus?5CheckI@ 0000000180025080     IocpServerImpl.obj
 0002:000030c8       ??_C@_0DB@KEOKMPOD@Enter?5CIocpServerImpl?3?3Completio@ 00000001800250c8     IocpServerImpl.obj
 0002:00003100       ??_C@_0BM@FBOMNMGC@CompletionRoutine?5Error?5?$CB?$CB?$CB?$AA@ 0000000180025100     IocpServerImpl.obj
 0002:00003120       ??_C@_0BP@MEDMIOGN@CompletionRoutine?5Exit?5bRet?$DN?$CFd?$AA@ 0000000180025120     IocpServerImpl.obj
 0002:00003140       ??_C@_0CL@MHLOOKPC@PostSomeAcceptEx?$CIint?$CJ?5PostAccept@ 0000000180025140     IocpServerImpl.obj
 0002:00003170       ??_C@_0DC@DLMDLCGC@Enter?5CIocpServerImpl?3?3funcThrea@ 0000000180025170     IocpServerImpl.obj
 0002:000031a8       ??_C@_0CA@NMICNEGD@funcThreadAeecptEx?5WAIT_FAILED?$CB?$AA@ 00000001800251a8     IocpServerImpl.obj
 0002:000031c8       ??_C@_0CB@CKEECBKM@funcThreadAeecptEx?5WAIT_TIMEOUT?$CB@ 00000001800251c8     IocpServerImpl.obj
 0002:000031f0       ??_C@_0CG@MIGNIPFJ@funcThreadAeecptEx?5WAIT_OBJECT_0@ 00000001800251f0     IocpServerImpl.obj
 0002:00003218       ??_C@_0BM@ICPCPFJL@funcThreadAeecptEx?5Error?$CB?$CB?$CB?$AA@ 0000000180025218     IocpServerImpl.obj
 0002:00003238       ??_C@_0BM@DGLOLKFB@funcThreadAeecptEx?5Exit?4?4?4?4?$AA@ 0000000180025238     IocpServerImpl.obj
 0002:00003258       ??_C@_0DG@FIJODOHL@Enter?5CIocpServerImpl?3?3ThreadChe@ 0000000180025258     IocpServerImpl.obj
 0002:00003290       ??_C@_0CA@LIIAGIMC@ThreadCheckDelaySockId?5Exit?4?4?4?4?$AA@ 0000000180025290     IocpServerImpl.obj
 0002:000032b0       ??_C@_0CK@OLBBJGCF@INFO?5?9?9?5New?5user?5connect?3?$CFs?3?$CFd?0?5@ 00000001800252b0     IocpServerImpl.obj
 0002:000032e8       ??_7LockBase@@6B@          00000001800252e8     LockBase.obj
 0002:00003308       ??_7SafeLock@@6B@          0000000180025308     SafeLock.obj
 0002:000033b0       _GUID_a6bc3ac0_dbaa_11ce_9de3_00aa004bb851 00000001800253b0     mfcs120:nolib.obj
 0002:000033c0       _GUID_0000010c_0000_0000_c000_000000000046 00000001800253c0     mfcs120:nolib.obj
 0002:000033d0       _GUID_00020412_0000_0000_c000_000000000046 00000001800253d0     mfcs120:nolib.obj
 0002:000033e0       _GUID_00020401_0000_0000_c000_000000000046 00000001800253e0     mfcs120:nolib.obj
 0002:000033f0       _GUID_1cf2b120_547d_101b_8e65_08002b2bd119 00000001800253f0     mfcs120:nolib.obj
 0002:00003400       _GUID_11a66efa_382e_451a_9234_1e0e12ef3085 0000000180025400     mfcs120:nolib.obj
 0002:00003410       _GUID_43826d1e_e718_42ee_bc55_a1e261c37bfe 0000000180025410     mfcs120:nolib.obj
 0002:00003420       _GUID_00000001_0000_0000_c000_000000000046 0000000180025420     mfcs120:nolib.obj
 0002:00003430       ??_C@_1BK@BFMCNHEO@?$AAC?$AAo?$AAm?$AAc?$AAt?$AAl?$AA3?$AA2?$AA?4?$AAd?$AAl?$AAl?$AA?$AA@ 0000000180025430     mfcs120:nolib.obj
 0002:00003450       ?debugString@?4??IsolationAwarePrivatenPgViNgRzlnPgpgk@@9@4QBDB 0000000180025450     mfcs120:nolib.obj
 0002:00003490       _pActualRawDllMain         0000000180025490     mfcs120:dllmodul.obj
 0002:000034f0       ??_7_AFX_DLL_MODULE_STATE@@6B@ 00000001800254f0     mfcs120:dllmodul.obj
 0002:00003510       ??_7type_info@@6B@         0000000180025510     msvcrt:ti_inst.obj
 0002:00003518       _pDefaultRawDllMain        0000000180025518     msvcrt:crtdll.obj
 0002:00003520       ?ProcessDetach@NativeDll@<CrtImplementationDetails>@@0IB 0000000180025520     msvcrt:initsect.obj
 0002:00003524       ?ProcessAttach@NativeDll@<CrtImplementationDetails>@@0IB 0000000180025524     msvcrt:initsect.obj
 0002:00003528       ?ThreadAttach@NativeDll@<CrtImplementationDetails>@@0IB 0000000180025528     msvcrt:initsect.obj
 0002:0000352c       ?ThreadDetach@NativeDll@<CrtImplementationDetails>@@0IB 000000018002552c     msvcrt:initsect.obj
 0002:00003530       ?ProcessVerifier@NativeDll@<CrtImplementationDetails>@@0IB 0000000180025530     msvcrt:initsect.obj
 0002:00003538       GUID_ATLVer30              0000000180025538     atls:atlbase.obj
 0002:00003548       GUID_ATLVer70              0000000180025548     atls:atlbase.obj
 0002:00003558       GUID_ATLVer100             0000000180025558     atls:atlbase.obj
 0002:00003568       GUID_ATLVer110             0000000180025568     atls:atlbase.obj
 0002:00003580       ??_C@_1IC@ONKHOIDK@?$AAE?$AAR?$AAR?$AAO?$AAR?$AA?5?$AA?3?$AA?5?$AAU?$AAn?$AAa?$AAb?$AAl?$AAe?$AA?5?$AAt?$AAo?$AA?5?$AAi?$AAn?$AAi?$AAt?$AAi?$AAa?$AAl?$AAi?$AAz?$AAe?$AA?5?$AAc?$AAr?$AAi@ 0000000180025580     atls:atlbase.obj
 0002:00003610       ?rgszNeverDelete@CRegParser@ATL@@1QBQEB_WB 0000000180025610     atls:stdafx.obj
 0002:00003670       ??_C@_1M@EJNEECMJ@?$AAA?$AAp?$AAp?$AAI?$AAD?$AA?$AA@ 0000000180025670     atls:stdafx.obj
 0002:00003680       ??_C@_1M@KANJNLFF@?$AAC?$AAL?$AAS?$AAI?$AAD?$AA?$AA@ 0000000180025680     atls:stdafx.obj
 0002:00003690       ??_C@_1CK@OEKPKBNA@?$AAC?$AAo?$AAm?$AAp?$AAo?$AAn?$AAe?$AAn?$AAt?$AA?5?$AAC?$AAa?$AAt?$AAe?$AAg?$AAo?$AAr?$AAi?$AAe?$AAs?$AA?$AA@ 0000000180025690     atls:stdafx.obj
 0002:000036c0       ??_C@_1BC@NKMMNMGL@?$AAF?$AAi?$AAl?$AAe?$AAT?$AAy?$AAp?$AAe?$AA?$AA@ 00000001800256c0     atls:stdafx.obj
 0002:000036d8       ??_C@_1BE@EKPAFMCP@?$AAI?$AAn?$AAt?$AAe?$AAr?$AAf?$AAa?$AAc?$AAe?$AA?$AA@ 00000001800256d8     atls:stdafx.obj
 0002:000036f0       ??_C@_1BC@MAICEHGI@?$AAH?$AAa?$AAr?$AAd?$AAw?$AAa?$AAr?$AAe?$AA?$AA@ 00000001800256f0     atls:stdafx.obj
 0002:00003708       ??_C@_19HLLLM@?$AAM?$AAi?$AAm?$AAe?$AA?$AA@ 0000000180025708     atls:stdafx.obj
 0002:00003718       ??_C@_17OMAOINJK@?$AAS?$AAA?$AAM?$AA?$AA@ 0000000180025718     atls:stdafx.obj
 0002:00003720       ??_C@_1BC@IBECJAAI@?$AAS?$AAE?$AAC?$AAU?$AAR?$AAI?$AAT?$AAY?$AA?$AA@ 0000000180025720     atls:stdafx.obj
 0002:00003738       ??_C@_1O@GBFINDKL@?$AAS?$AAY?$AAS?$AAT?$AAE?$AAM?$AA?$AA@ 0000000180025738     atls:stdafx.obj
 0002:00003748       ??_C@_1BC@EAHCMADO@?$AAS?$AAo?$AAf?$AAt?$AAw?$AAa?$AAr?$AAe?$AA?$AA@ 0000000180025748     atls:stdafx.obj
 0002:00003760       ??_C@_1BA@JIHHIEDE@?$AAT?$AAy?$AAp?$AAe?$AAL?$AAi?$AAb?$AA?$AA@ 0000000180025760     atls:stdafx.obj
 0002:00003770       ?chDirSep@ATL@@3_WB        0000000180025770     atls:stdafx.obj
 0002:00003774       ?chRightBracket@ATL@@3_WB  0000000180025774     atls:stdafx.obj
 0002:00003778       ?chLeftBracket@ATL@@3_WB   0000000180025778     atls:stdafx.obj
 0002:0000377c       ?chQuote@ATL@@3_WB         000000018002577c     atls:stdafx.obj
 0002:00003780       ?chEquals@ATL@@3_WB        0000000180025780     atls:stdafx.obj
 0002:00003788       ?szStringVal@ATL@@3QEB_WEB 0000000180025788     atls:stdafx.obj
 0002:00003790       ??_C@_13HADIAKP@?$AAS?$AA?$AA@ 0000000180025790     atls:stdafx.obj
 0002:00003798       ?multiszStringVal@ATL@@3QEB_WEB 0000000180025798     atls:stdafx.obj
 0002:000037a0       ??_C@_13LHMFKAAD@?$AAM?$AA?$AA@ 00000001800257a0     atls:stdafx.obj
 0002:000037a8       ?szDwordVal@ATL@@3QEB_WEB  00000001800257a8     atls:stdafx.obj
 0002:000037b0       ??_C@_13MKMNOPIJ@?$AAD?$AA?$AA@ 00000001800257b0     atls:stdafx.obj
 0002:000037b8       ?szBinaryVal@ATL@@3QEB_WEB 00000001800257b8     atls:stdafx.obj
 0002:000037c0       ??_C@_13OPKGLAFF@?$AAB?$AA?$AA@ 00000001800257c0     atls:stdafx.obj
 0002:000037c8       ?szValToken@ATL@@3QEB_WEB  00000001800257c8     atls:stdafx.obj
 0002:000037d0       ??_C@_17LLMMEOJD@?$AAV?$AAa?$AAl?$AA?$AA@ 00000001800257d0     atls:stdafx.obj
 0002:000037d8       ?szForceRemove@ATL@@3QEB_WEB 00000001800257d8     atls:stdafx.obj
 0002:000037e0       ??_C@_1BI@JFAIJMHL@?$AAF?$AAo?$AAr?$AAc?$AAe?$AAR?$AAe?$AAm?$AAo?$AAv?$AAe?$AA?$AA@ 00000001800257e0     atls:stdafx.obj
 0002:000037f8       ?szNoRemove@ATL@@3QEB_WEB  00000001800257f8     atls:stdafx.obj
 0002:00003800       ??_C@_1BC@GCKHIPE@?$AAN?$AAo?$AAR?$AAe?$AAm?$AAo?$AAv?$AAe?$AA?$AA@ 0000000180025800     atls:stdafx.obj
 0002:00003818       ?szDelete@ATL@@3QEB_WEB    0000000180025818     atls:stdafx.obj
 0002:00003820       ??_C@_1O@JDLOHAN@?$AAD?$AAe?$AAl?$AAe?$AAt?$AAe?$AA?$AA@ 0000000180025820     atls:stdafx.obj
 0002:00003830       _pRawDllMain               0000000180025830     mfcs120:rawdllmainproxy.obj
 0002:00003840       _load_config_used          0000000180025840     msvcrt:loadcfg.obj
 0002:00003918       ??_R4CWin32Heap@ATL@@6B@   0000000180025918     Adapter.obj
 0002:00003940       ??_R3CWin32Heap@ATL@@8     0000000180025940     Adapter.obj
 0002:00003958       ??_R2CWin32Heap@ATL@@8     0000000180025958     Adapter.obj
 0002:00003970       ??_R1A@?0A@EA@CWin32Heap@ATL@@8 0000000180025970     Adapter.obj
 0002:00003998       ??_R1A@?0A@EA@IAtlMemMgr@ATL@@8 0000000180025998     Adapter.obj
 0002:000039c0       ??_R3IAtlMemMgr@ATL@@8     00000001800259c0     Adapter.obj
 0002:000039d8       ??_R2IAtlMemMgr@ATL@@8     00000001800259d8     Adapter.obj
 0002:000039e8       ??_R1A@?0A@EA@IAtlStringMgr@ATL@@8 00000001800259e8     Adapter.obj
 0002:00003a10       ??_R3IAtlStringMgr@ATL@@8  0000000180025a10     Adapter.obj
 0002:00003a28       ??_R2IAtlStringMgr@ATL@@8  0000000180025a28     Adapter.obj
 0002:00003a38       ??_R4CAtlStringMgr@ATL@@6B@ 0000000180025a38     Adapter.obj
 0002:00003a60       ??_R3CAtlStringMgr@ATL@@8  0000000180025a60     Adapter.obj
 0002:00003a78       ??_R2CAtlStringMgr@ATL@@8  0000000180025a78     Adapter.obj
 0002:00003a90       ??_R1A@?0A@EA@CAtlStringMgr@ATL@@8 0000000180025a90     Adapter.obj
 0002:00003ab8       ??_R4error_category@std@@6B@ 0000000180025ab8     Adapter.obj
 0002:00003ae0       ??_R3error_category@std@@8 0000000180025ae0     Adapter.obj
 0002:00003af8       ??_R2error_category@std@@8 0000000180025af8     Adapter.obj
 0002:00003b08       ??_R1A@?0A@EA@error_category@std@@8 0000000180025b08     Adapter.obj
 0002:00003b30       ??_R4_Generic_error_category@std@@6B@ 0000000180025b30     Adapter.obj
 0002:00003b58       ??_R3_Generic_error_category@std@@8 0000000180025b58     Adapter.obj
 0002:00003b70       ??_R2_Generic_error_category@std@@8 0000000180025b70     Adapter.obj
 0002:00003b88       ??_R1A@?0A@EA@_Generic_error_category@std@@8 0000000180025b88     Adapter.obj
 0002:00003bb0       ??_R4_Iostream_error_category@std@@6B@ 0000000180025bb0     Adapter.obj
 0002:00003bd8       ??_R3_Iostream_error_category@std@@8 0000000180025bd8     Adapter.obj
 0002:00003bf0       ??_R2_Iostream_error_category@std@@8 0000000180025bf0     Adapter.obj
 0002:00003c10       ??_R1A@?0A@EA@_Iostream_error_category@std@@8 0000000180025c10     Adapter.obj
 0002:00003c38       ??_R4_System_error_category@std@@6B@ 0000000180025c38     Adapter.obj
 0002:00003c60       ??_R3_System_error_category@std@@8 0000000180025c60     Adapter.obj
 0002:00003c78       ??_R2_System_error_category@std@@8 0000000180025c78     Adapter.obj
 0002:00003c98       ??_R1A@?0A@EA@_System_error_category@std@@8 0000000180025c98     Adapter.obj
 0002:00003cc0       ??_R4DerivedLock@@6B@      0000000180025cc0     DerivedLock.obj
 0002:00003ce8       ??_R3DerivedLock@@8        0000000180025ce8     DerivedLock.obj
 0002:00003d00       ??_R2DerivedLock@@8        0000000180025d00     DerivedLock.obj
 0002:00003d18       ??_R1A@?0A@EA@DerivedLock@@8 0000000180025d18     DerivedLock.obj
 0002:00003d40       ??_R1A@?0A@EA@LockBase@@8  0000000180025d40     DerivedLock.obj
 0002:00003d68       ??_R3LockBase@@8           0000000180025d68     DerivedLock.obj
 0002:00003d80       ??_R2LockBase@@8           0000000180025d80     DerivedLock.obj
 0002:00003d90       ??_R4CSpeedLimit@@6B@      0000000180025d90     Global.obj
 0002:00003db8       ??_R3CSpeedLimit@@8        0000000180025db8     Global.obj
 0002:00003dd0       ??_R2CSpeedLimit@@8        0000000180025dd0     Global.obj
 0002:00003de0       ??_R1A@?0A@EA@CSpeedLimit@@8 0000000180025de0     Global.obj
 0002:00003e08       ??_R4CIocpKeyIoMgr@@6B@    0000000180025e08     IocpKeyIoMgr.obj
 0002:00003e30       ??_R3CIocpKeyIoMgr@@8      0000000180025e30     IocpKeyIoMgr.obj
 0002:00003e48       ??_R2CIocpKeyIoMgr@@8      0000000180025e48     IocpKeyIoMgr.obj
 0002:00003e58       ??_R1A@?0A@EA@CIocpKeyIoMgr@@8 0000000180025e58     IocpKeyIoMgr.obj
 0002:00003e80       ??_R4CIocpServer@@6B@      0000000180025e80     IocpServer.obj
 0002:00003ea8       ??_R3CIocpServer@@8        0000000180025ea8     IocpServer.obj
 0002:00003ec0       ??_R2CIocpServer@@8        0000000180025ec0     IocpServer.obj
 0002:00003ed0       ??_R1A@?0A@EA@CIocpServer@@8 0000000180025ed0     IocpServer.obj
 0002:00003ef8       ??_R4CIocpServerFactory@@6B@ 0000000180025ef8     IocpServer.obj
 0002:00003f20       ??_R3CIocpServerFactory@@8 0000000180025f20     IocpServer.obj
 0002:00003f38       ??_R2CIocpServerFactory@@8 0000000180025f38     IocpServer.obj
 0002:00003f48       ??_R1A@?0A@EA@CIocpServerFactory@@8 0000000180025f48     IocpServer.obj
 0002:00003f70       ??_R4CIocpServerImpl@@6B@  0000000180025f70     IocpServerImpl.obj
 0002:00003f98       ??_R3CIocpServerImpl@@8    0000000180025f98     IocpServerImpl.obj
 0002:00003fb0       ??_R2CIocpServerImpl@@8    0000000180025fb0     IocpServerImpl.obj
 0002:00003fc8       ??_R1A@?0A@EA@CIocpServerImpl@@8 0000000180025fc8     IocpServerImpl.obj
 0002:00003ff0       ??_R4LockBase@@6B@         0000000180025ff0     LockBase.obj
 0002:00004018       ??_R4SafeLock@@6B@         0000000180026018     SafeLock.obj
 0002:00004040       ??_R3SafeLock@@8           0000000180026040     SafeLock.obj
 0002:00004058       ??_R2SafeLock@@8           0000000180026058     SafeLock.obj
 0002:00004068       ??_R1A@?0A@EA@SafeLock@@8  0000000180026068     SafeLock.obj
 0002:00004090       ??_R3CNoTrackObject@@8     0000000180026090     mfcs120:dllmodul.obj
 0002:000040a8       ??_R2CNoTrackObject@@8     00000001800260a8     mfcs120:dllmodul.obj
 0002:000040b8       ??_R1A@?0A@EA@CNoTrackObject@@8 00000001800260b8     mfcs120:dllmodul.obj
 0002:000040e0       ??_R4_AFX_DLL_MODULE_STATE@@6B@ 00000001800260e0     mfcs120:dllmodul.obj
 0002:00004108       ??_R3_AFX_DLL_MODULE_STATE@@8 0000000180026108     mfcs120:dllmodul.obj
 0002:00004120       ??_R2_AFX_DLL_MODULE_STATE@@8 0000000180026120     mfcs120:dllmodul.obj
 0002:00004140       ??_R1A@?0A@EA@_AFX_DLL_MODULE_STATE@@8 0000000180026140     mfcs120:dllmodul.obj
 0002:00004168       ??_R1A@?0A@EA@AFX_MODULE_STATE@@8 0000000180026168     mfcs120:dllmodul.obj
 0002:00004190       ??_R3AFX_MODULE_STATE@@8   0000000180026190     mfcs120:dllmodul.obj
 0002:000041a8       ??_R2AFX_MODULE_STATE@@8   00000001800261a8     mfcs120:dllmodul.obj
 0002:000041c0       ??_R4type_info@@6B@        00000001800261c0     msvcrt:ti_inst.obj
 0002:000041e8       ??_R3type_info@@8          00000001800261e8     msvcrt:ti_inst.obj
 0002:00004200       ??_R2type_info@@8          0000000180026200     msvcrt:ti_inst.obj
 0002:00004210       ??_R1A@?0A@EA@type_info@@8 0000000180026210     msvcrt:ti_inst.obj
 0002:00004238       __rtc_iaa                  0000000180026238     msvcrt:initsect.obj
 0002:00004240       __rtc_izz                  0000000180026240     msvcrt:initsect.obj
 0002:00004248       __rtc_taa                  0000000180026248     msvcrt:initsect.obj
 0002:00004250       __rtc_tzz                  0000000180026250     msvcrt:initsect.obj
 0002:00009ad0       __pobjMapEntryFirst        000000018002bad0     Adapter.obj
 0002:00009ad8       __pobjMapEntryLast         000000018002bad8     Adapter.obj
 0002:00009ea0       __IMPORT_DESCRIPTOR_WINMM  000000018002bea0     winmm:WINMM.dll
 0002:00009eb4       __IMPORT_DESCRIPTOR_mfc120 000000018002beb4     mfc120:mfc120.dll
 0002:00009ec8       __IMPORT_DESCRIPTOR_MSVCR120 000000018002bec8     msvcrt:MSVCR120.dll
 0002:00009edc       __IMPORT_DESCRIPTOR_KERNEL32 000000018002bedc     kernel32:KERNEL32.dll
 0002:00009ef0       __IMPORT_DESCRIPTOR_USER32 000000018002bef0     user32:USER32.dll
 0002:00009f04       __IMPORT_DESCRIPTOR_SHELL32 000000018002bf04     shell32:SHELL32.dll
 0002:00009f18       __IMPORT_DESCRIPTOR_SHLWAPI 000000018002bf18     shlwapi:SHLWAPI.dll
 0002:00009f2c       __IMPORT_DESCRIPTOR_OLEAUT32 000000018002bf2c     oleaut32:OLEAUT32.dll
 0002:00009f40       __IMPORT_DESCRIPTOR_MSVCP120 000000018002bf40     msvcprt:MSVCP120.dll
 0002:00009f54       __IMPORT_DESCRIPTOR_WS2_32 000000018002bf54     ws2_32:WS2_32.dll
 0002:00009f68       __IMPORT_DESCRIPTOR_LogMgr64 000000018002bf68     LogMgr64:LogMgr64.dll
 0002:00009f7c       __NULL_IMPORT_DESCRIPTOR   000000018002bf7c     winmm:WINMM.dll
 0003:00000000       _pIncludeInitManaged       000000018002d000     Adapter.obj
 0003:00000008       ?_Generic_object@?$_Error_objects@H@std@@2V_Generic_error_category@2@A 000000018002d008     Adapter.obj
 0003:00000010       ?_Iostream_object@?$_Error_objects@H@std@@2V_Iostream_error_category@2@A 000000018002d010     Adapter.obj
 0003:00000018       ?_System_object@?$_Error_objects@H@std@@2V_System_error_category@2@A 000000018002d018     Adapter.obj
 0003:00000020       ?BeepOrNot@CGlobal@@2_NA   000000018002d020     Global.obj
 0003:00000030       ?PADDING@@3PAEA            000000018002d030     md5.obj
 0003:00000070       WinbaseIsolationAwarePrivateT_UnPgpgk 000000018002d070     mfcs120:nolib.obj
 0003:00000080       __security_cookie          000000018002d080     msvcrt:gs_cookie.obj
 0003:00000088       __security_cookie_complement 000000018002d088     msvcrt:gs_cookie.obj
 0003:00000090       _fltused                   000000018002d090     msvcrt:dllsupp.obj
 0003:00000094       __native_dllmain_reason    000000018002d094     msvcrt:natstart.obj
 0003:00000098       ??_R0?AVCWin32Heap@ATL@@@8 000000018002d098     Adapter.obj
 0003:000000c0       ??_R0?AUIAtlMemMgr@ATL@@@8 000000018002d0c0     Adapter.obj
 0003:000000e8       ??_R0?AUIAtlStringMgr@ATL@@@8 000000018002d0e8     Adapter.obj
 0003:00000110       ??_R0?AVCAtlStringMgr@ATL@@@8 000000018002d110     Adapter.obj
 0003:00000138       ??_R0?AVerror_category@std@@@8 000000018002d138     Adapter.obj
 0003:00000168       ??_R0?AV_Generic_error_category@std@@@8 000000018002d168     Adapter.obj
 0003:000001a0       ??_R0?AV_Iostream_error_category@std@@@8 000000018002d1a0     Adapter.obj
 0003:000001d8       ??_R0?AV_System_error_category@std@@@8 000000018002d1d8     Adapter.obj
 0003:00000210       ??_R0?AVDerivedLock@@@8    000000018002d210     DerivedLock.obj
 0003:00000238       ??_R0?AVLockBase@@@8       000000018002d238     DerivedLock.obj
 0003:00000258       ??_R0?AVCSpeedLimit@@@8    000000018002d258     Global.obj
 0003:00000280       ??_R0?AVCIocpKeyIoMgr@@@8  000000018002d280     IocpKeyIoMgr.obj
 0003:000002a8       ??_R0?AVCIocpServer@@@8    000000018002d2a8     IocpServer.obj
 0003:000002d0       ??_R0?AVCIocpServerFactory@@@8 000000018002d2d0     IocpServer.obj
 0003:00000300       ??_R0?AVCIocpServerImpl@@@8 000000018002d300     IocpServerImpl.obj
 0003:00000328       ??_R0?AVSafeLock@@@8       000000018002d328     SafeLock.obj
 0003:00000348       ??_R0PEAVCMemoryException@@@8 000000018002d348     mfcs120:dllmodul.obj
 0003:00000370       ??_R0?AVCNoTrackObject@@@8 000000018002d370     mfcs120:dllmodul.obj
 0003:00000398       ??_R0?AV_AFX_DLL_MODULE_STATE@@@8 000000018002d398     mfcs120:dllmodul.obj
 0003:000003c8       ??_R0?AVAFX_MODULE_STATE@@@8 000000018002d3c8     mfcs120:dllmodul.obj
 0003:000003f0       ??_R0?AVtype_info@@@8      000000018002d3f0     msvcrt:ti_inst.obj
 0003:00000410       ?ATL_CREATE_OBJECT@CComApartment@ATL@@2IA 000000018002d410     Adapter.obj
 0003:00000418       ?_pAtlAutoThreadModule@ATL@@3PEAUIAtlAutoThreadModule@1@EA 000000018002d418     Adapter.obj
 0003:00000420       ?s_pLog@CFixedStringMgr@ATL@@2PEAVIFixedStringLog@2@EA 000000018002d420     Adapter.obj
 0003:00000428       ?_pAtlModule@ATL@@3PEAVCAtlModule@1@EA 000000018002d428     Adapter.obj
 0003:00000430       ?m_libid@CAtlModule@ATL@@2U_GUID@@A 000000018002d430     Adapter.obj
 0003:00000440       ?m_bInitFailed@CAtlBaseModule@ATL@@2_NA 000000018002d440     Adapter.obj
 0003:00000448       ?_pModule@ATL@@3PEAVCComModule@1@EA 000000018002d448     Adapter.obj
 0003:00000450       ?_pPerfRegFunc@ATL@@3P6AJPEAUHINSTANCE__@@@ZEA 000000018002d450     Adapter.obj
 0003:00000458       ?_pPerfUnRegFunc@ATL@@3P6AJXZEA 000000018002d458     Adapter.obj
 0003:00000460       ?_AtlRegisterPerUser@ATL@@3_NA 000000018002d460     Adapter.obj
 0003:00000464       ?atlTraceGeneral@ATL@@3V?$CTraceCategoryEx@$00$0A@@1@A 000000018002d464     Adapter.obj
 0003:00000468       ?atlTraceCOM@ATL@@3V?$CTraceCategoryEx@$01$0A@@1@A 000000018002d468     Adapter.obj
 0003:0000046c       ?atlTraceQI@ATL@@3V?$CTraceCategoryEx@$03$0A@@1@A 000000018002d46c     Adapter.obj
 0003:00000470       ?atlTraceRegistrar@ATL@@3V?$CTraceCategoryEx@$07$0A@@1@A 000000018002d470     Adapter.obj
 0003:00000474       ?atlTraceRefcount@ATL@@3V?$CTraceCategoryEx@$0BA@$0A@@1@A 000000018002d474     Adapter.obj
 0003:00000478       ?atlTraceWindowing@ATL@@3V?$CTraceCategoryEx@$0CA@$0A@@1@A 000000018002d478     Adapter.obj
 0003:0000047c       ?atlTraceControls@ATL@@3V?$CTraceCategoryEx@$0EA@$0A@@1@A 000000018002d47c     Adapter.obj
 0003:00000480       ?atlTraceHosting@ATL@@3V?$CTraceCategoryEx@$0IA@$0A@@1@A 000000018002d480     Adapter.obj
 0003:00000484       ?atlTraceDBClient@ATL@@3V?$CTraceCategoryEx@$0BAA@$0A@@1@A 000000018002d484     Adapter.obj
 0003:00000488       ?atlTraceDBProvider@ATL@@3V?$CTraceCategoryEx@$0CAA@$0A@@1@A 000000018002d488     Adapter.obj
 0003:0000048c       ?atlTraceSnapin@ATL@@3V?$CTraceCategoryEx@$0EAA@$0A@@1@A 000000018002d48c     Adapter.obj
 0003:00000490       ?atlTraceNotImpl@ATL@@3V?$CTraceCategoryEx@$0IAA@$0A@@1@A 000000018002d490     Adapter.obj
 0003:00000494       ?atlTraceAllocation@ATL@@3V?$CTraceCategoryEx@$0BAAA@$0A@@1@A 000000018002d494     Adapter.obj
 0003:00000498       ?atlTraceException@ATL@@3V?$CTraceCategoryEx@$0CAAA@$0A@@1@A 000000018002d498     Adapter.obj
 0003:0000049c       ?atlTraceTime@ATL@@3V?$CTraceCategoryEx@$0EAAA@$0A@@1@A 000000018002d49c     Adapter.obj
 0003:000004a0       ?atlTraceCache@ATL@@3V?$CTraceCategoryEx@$0IAAA@$0A@@1@A 000000018002d4a0     Adapter.obj
 0003:000004a4       ?atlTraceStencil@ATL@@3V?$CTraceCategoryEx@$0BAAAA@$0A@@1@A 000000018002d4a4     Adapter.obj
 0003:000004a8       ?atlTraceString@ATL@@3V?$CTraceCategoryEx@$0CAAAA@$0A@@1@A 000000018002d4a8     Adapter.obj
 0003:000004ac       ?atlTraceMap@ATL@@3V?$CTraceCategoryEx@$0EAAAA@$0A@@1@A 000000018002d4ac     Adapter.obj
 0003:000004b0       ?atlTraceUtil@ATL@@3V?$CTraceCategoryEx@$0IAAAA@$0A@@1@A 000000018002d4b0     Adapter.obj
 0003:000004b4       ?atlTraceSecurity@ATL@@3V?$CTraceCategoryEx@$0BAAAAA@$0A@@1@A 000000018002d4b4     Adapter.obj
 0003:000004b8       ?atlTraceSync@ATL@@3V?$CTraceCategoryEx@$0CAAAAA@$0A@@1@A 000000018002d4b8     Adapter.obj
 0003:000004bc       ?atlTraceISAPI@ATL@@3V?$CTraceCategoryEx@$0EAAAAA@$0A@@1@A 000000018002d4bc     Adapter.obj
 0003:000004c0       ?_AtlComModule@ATL@@3VCAtlComModule@1@A 000000018002d4c0     Adapter.obj
 0003:00000510       ?_AtlWinModule@ATL@@3VCAtlWinModule@1@A 000000018002d510     Adapter.obj
 0003:00000558       ?isInitialized@CAtlStringMgr@ATL@@0_NA 000000018002d558     Adapter.obj
 0003:00000560       ?strHeap@?1??GetInstance@CAtlStringMgr@ATL@@SAPEAUIAtlStringMgr@3@XZ@4VCWin32Heap@3@A 000000018002d560     Adapter.obj
 0003:00000578       ??_B?1??GetInstance@CAtlStringMgr@ATL@@SAPEAUIAtlStringMgr@2@XZ@51 000000018002d578     Adapter.obj
 0003:00000580       ?strMgr@?1??GetInstance@CAtlStringMgr@ATL@@SAPEAUIAtlStringMgr@3@XZ@4V23@A 000000018002d580     Adapter.obj
 0003:000005b8       ?m_csTransFmt@@3VDerivedLock@@A 000000018002d5b8     Adapter.obj
 0003:000005e8       ?id@?$num_put@DV?$back_insert_iterator@V?$basic_string@DU?$char_traits@D@std@@V?$allocator@D@2@@std@@@std@@@std@@2V0locale@2@A 000000018002d5e8     Adapter.obj
 0003:000005f0       ?id@?$num_put@_WV?$back_insert_iterator@V?$basic_string@_WU?$char_traits@_W@std@@V?$allocator@_W@2@@std@@@std@@@std@@2V0locale@2@A 000000018002d5f0     Adapter.obj
 0003:00000600       ?g_nGlobalKey@@3HA         000000018002d600     DoubleListEx.obj
 0003:00000608       ?g_csGlobalKey@@3VDerivedLock@@A 000000018002d608     DoubleListEx.obj
 0003:00000640       ?g_csMsgId@@3VDerivedLock@@A 000000018002d640     Global.obj
 0003:00000680       ?g_nUniqueKey@@3HA         000000018002d680     IocpKeyIoMgr.obj
 0003:00000684       ?g_nUniqueIo@@3HA          000000018002d684     IocpKeyIoMgr.obj
 0003:00000690       ?g_csUniqueKey@@3VDerivedLock@@A 000000018002d690     IocpKeyIoMgr.obj
 0003:000006c0       ?g_csUniqueIo@@3VDerivedLock@@A 000000018002d6c0     IocpKeyIoMgr.obj
 0003:000006f8       ?g_mapBlackIp@@3V?$map@V?$basic_string@DU?$char_traits@D@std@@V?$allocator@D@2@@std@@HU?$less@V?$basic_string@DU?$char_traits@D@std@@V?$allocator@D@2@@std@@@2@V?$allocator@U?$pair@$$CBV?$basic_string@DU?$char_traits@D@std@@V?$allocator@D@2@@std@@H@std@@@2@@std@@A 000000018002d6f8     IocpServer.obj
 0003:00000708       ?cs_BlackIp@@3VDerivedLock@@A 000000018002d708     IocpServer.obj
 0003:00000758       __@@_PchSym_@00@UdlipUcgyUAAxlnnlmUABwveUABxlwvUgifmpUmvghvieviUrlxkhvieviUivovzhvUhgwzucOlyq@912023EEC01ADA63 000000018002d758     StdAfx.obj
 0003:00000760       __afxForceEXCLUDE          000000018002d760     mfcs120:nolib.obj
 0003:00000764       WinbaseIsolationAwarePrivateT_SpeRNgRQnPgpgk 000000018002d764     mfcs120:nolib.obj
 0003:00000768       WinbaseIsolationAwarePrivateT_SpYRNahcpNYYRQ 000000018002d768     mfcs120:nolib.obj
 0003:0000076c       ?WM_DESTROYMODELESS@CDHtmlDialog@@1IA 000000018002d76c     mfcs120:nolib.obj
 0003:00000770       __afxForceUSRDLL           000000018002d770     mfcs120:dllmodul.obj
 0003:000008b8       ?__mixedModuleStartup@@3HA 000000018002d8b8     mfcs120:dllmodul.obj
 0003:000008bc       __afxForceSTDAFX           000000018002d8bc     mfcs120:stdafx.obj
 0003:00000e38       ?__type_info_root_node@@3U__type_info_node@@A 000000018002de38     msvcrt:tncleanup.obj
 0003:00000e50       ?_AtlBaseModule@ATL@@3VCAtlBaseModule@1@A 000000018002de50     atls:atlbase.obj
 0003:00000eb0       __@@_PchSym_@00@UwwUexgllohUexHoryhUhsrkUzgonuxUhixUzgoUzgohUlyqBiUznwGEUhgwzucOlyq@84C1280690CF6209 000000018002deb0     atls:stdafx.obj
 0003:00000eb8       __native_startup_lock      000000018002deb8     <common>
 0003:00000ec0       __native_startup_state     000000018002dec0     <common>
 0003:00000ec8       __dyn_tls_init_callback    000000018002dec8     <common>
 0003:00000ed0       __onexitend                000000018002ded0     <common>
 0003:00000ed8       __onexitbegin              000000018002ded8     <common>

 entry point at        0001:0001d90c

 Static symbols

 0004:fffd2000       $pdata$??0CAtlComModule@ATL@@QEAA@XZ 0000000180000000     mfcs120:dllmodul.obj
 0000:fffcd000       .debug$S                   0000000180000000     LogMgr64:LogMgr64.dll
 0002:fffde000       $unwind$??0CAtlComModule@ATL@@QEAA@XZ 0000000180000000     mfcs120:dllmodul.obj
 0004:fffd2000       $pdata$?AtlWinModuleTerm@ATL@@YAJPEAU_ATL_WIN_MODULE70@1@PEAUHINSTANCE__@@@Z 0000000180000000     mfcs120:dllmodul.obj
 0002:fffde000       $unwind$?AtlWinModuleTerm@ATL@@YAJPEAU_ATL_WIN_MODULE70@1@PEAUHINSTANCE__@@@Z 0000000180000000     mfcs120:dllmodul.obj
 0004:fffd2000       $pdata$?AtlWinModuleInit@ATL@@YAJPEAU_ATL_WIN_MODULE70@1@@Z 0000000180000000     mfcs120:dllmodul.obj
 0002:fffde000       $unwind$?AtlWinModuleInit@ATL@@YAJPEAU_ATL_WIN_MODULE70@1@@Z 0000000180000000     mfcs120:dllmodul.obj
 0004:fffd2000       $pdata$??1_ATL_WIN_MODULE70@ATL@@QEAA@XZ 0000000180000000     mfcs120:dllmodul.obj
 0002:fffde000       $unwind$??1_ATL_WIN_MODULE70@ATL@@QEAA@XZ 0000000180000000     mfcs120:dllmodul.obj
 0004:fffd2000       $pdata$??0_ATL_WIN_MODULE70@ATL@@QEAA@XZ 0000000180000000     mfcs120:dllmodul.obj
 0002:fffde000       $unwind$??0_ATL_WIN_MODULE70@ATL@@QEAA@XZ 0000000180000000     mfcs120:dllmodul.obj
 0004:fffd2000       $pdata$??A?$CSimpleArray@GV?$CSimpleArrayEqualHelper@G@ATL@@@ATL@@QEAAAEAGH@Z 0000000180000000     mfcs120:dllmodul.obj
 0002:fffde000       $unwind$??A?$CSimpleArray@GV?$CSimpleArrayEqualHelper@G@ATL@@@ATL@@QEAAAEAGH@Z 0000000180000000     mfcs120:dllmodul.obj
 0004:fffd2000       $pdata$?RemoveAll@?$CSimpleArray@GV?$CSimpleArrayEqualHelper@G@ATL@@@ATL@@QEAAXXZ 0000000180000000     mfcs120:dllmodul.obj
 0002:fffde000       $unwind$?RemoveAll@?$CSimpleArray@GV?$CSimpleArrayEqualHelper@G@ATL@@@ATL@@QEAAXXZ 0000000180000000     mfcs120:dllmodul.obj
 0004:fffd2000       $pdata$??1?$CSimpleArray@GV?$CSimpleArrayEqualHelper@G@ATL@@@ATL@@QEAA@XZ 0000000180000000     mfcs120:dllmodul.obj
 0002:fffde000       $unwind$??1?$CSimpleArray@GV?$CSimpleArrayEqualHelper@G@ATL@@@ATL@@QEAA@XZ 0000000180000000     mfcs120:dllmodul.obj
 0004:fffd2000       $pdata$??0_ATL_COM_MODULE70@ATL@@QEAA@XZ 0000000180000000     mfcs120:dllmodul.obj
 0002:fffde000       $unwind$??0_ATL_COM_MODULE70@ATL@@QEAA@XZ 0000000180000000     mfcs120:dllmodul.obj
 0004:fffd2000       $pdata$??_GCWin32Heap@ATL@@UEAAPEAXI@Z 0000000180000000     mfcs120:dllmodul.obj
 0002:fffde000       $unwind$??_GCWin32Heap@ATL@@UEAAPEAXI@Z 0000000180000000     mfcs120:dllmodul.obj
 0004:fffd2000       $pdata$?Reallocate@CWin32Heap@ATL@@UEAAPEAXPEAX_K@Z 0000000180000000     mfcs120:dllmodul.obj
 0004:fffd2000       $pdata$??$_Allocate@D@std@@YAPEAD_KPEAD@Z 0000000180000000     Global.obj
 0002:fffde000       $unwind$??$_Allocate@D@std@@YAPEAD_KPEAD@Z 0000000180000000     Global.obj
 0004:fffd2000       $pdata$1$??$_Destroy_range@U?$_Wrap_alloc@V?$allocator@V?$basic_string@DU?$char_traits@D@std@@V?$allocator@D@2@@std@@@std@@@std@@@std@@YAXPEAV?$basic_string@DU?$char_traits@D@std@@V?$allocator@D@2@@0@0AEAU?$_Wrap_alloc@V?$allocator@V?$basic_string@DU?$char_traits@D@std@@V?$allocator@D@2@@std@@@std@@@0@@Z 0000000180000000     Global.obj
 0002:fffde000       $chain$1$??$_Destroy_range@U?$_Wrap_alloc@V?$allocator@V?$basic_string@DU?$char_traits@D@std@@V?$allocator@D@2@@std@@@std@@@std@@@std@@YAXPEAV?$basic_string@DU?$char_traits@D@std@@V?$allocator@D@2@@0@0AEAU?$_Wrap_alloc@V?$allocator@V?$basic_string@DU?$char_traits@D@std@@V?$allocator@D@2@@std@@@std@@@0@@Z 0000000180000000     Global.obj
 0004:fffd2000       $pdata$0$??$_Destroy_range@U?$_Wrap_alloc@V?$allocator@V?$basic_string@DU?$char_traits@D@std@@V?$allocator@D@2@@std@@@std@@@std@@@std@@YAXPEAV?$basic_string@DU?$char_traits@D@std@@V?$allocator@D@2@@0@0AEAU?$_Wrap_alloc@V?$allocator@V?$basic_string@DU?$char_traits@D@std@@V?$allocator@D@2@@std@@@std@@@0@@Z 0000000180000000     Global.obj
 0002:fffde000       $chain$0$??$_Destroy_range@U?$_Wrap_alloc@V?$allocator@V?$basic_string@DU?$char_traits@D@std@@V?$allocator@D@2@@std@@@std@@@std@@@std@@YAXPEAV?$basic_string@DU?$char_traits@D@std@@V?$allocator@D@2@@0@0AEAU?$_Wrap_alloc@V?$allocator@V?$basic_string@DU?$char_traits@D@std@@V?$allocator@D@2@@std@@@std@@@0@@Z 0000000180000000     Global.obj
 0004:fffd2000       $pdata$??$_Destroy_range@U?$_Wrap_alloc@V?$allocator@V?$basic_string@DU?$char_traits@D@std@@V?$allocator@D@2@@std@@@std@@@std@@@std@@YAXPEAV?$basic_string@DU?$char_traits@D@std@@V?$allocator@D@2@@0@0AEAU?$_Wrap_alloc@V?$allocator@V?$basic_string@DU?$char_traits@D@std@@V?$allocator@D@2@@std@@@std@@@0@@Z 0000000180000000     Global.obj
 0002:fffde000       $unwind$??$_Destroy_range@U?$_Wrap_alloc@V?$allocator@V?$basic_string@DU?$char_traits@D@std@@V?$allocator@D@2@@std@@@std@@@std@@@std@@YAXPEAV?$basic_string@DU?$char_traits@D@std@@V?$allocator@D@2@@0@0AEAU?$_Wrap_alloc@V?$allocator@V?$basic_string@DU?$char_traits@D@std@@V?$allocator@D@2@@std@@@std@@@0@@Z 0000000180000000     Global.obj
 0004:fffd2000       $pdata$??$_Umove@PEAV?$basic_string@DU?$char_traits@D@std@@V?$allocator@D@2@@std@@@?$vector@V?$basic_string@DU?$char_traits@D@std@@V?$allocator@D@2@@std@@V?$allocator@V?$basic_string@DU?$char_traits@D@std@@V?$allocator@D@2@@std@@@2@@std@@IEAAPEAV?$basic_string@DU?$char_traits@D@std@@V?$allocator@D@2@@1@PEAV21@00@Z 0000000180000000     Global.obj
 0002:fffde000       $unwind$??$_Umove@PEAV?$basic_string@DU?$char_traits@D@std@@V?$allocator@D@2@@std@@@?$vector@V?$basic_string@DU?$char_traits@D@std@@V?$allocator@D@2@@std@@V?$allocator@V?$basic_string@DU?$char_traits@D@std@@V?$allocator@D@2@@std@@@2@@std@@IEAAPEAV?$basic_string@DU?$char_traits@D@std@@V?$allocator@D@2@@1@PEAV21@00@Z 0000000180000000     Global.obj
 0004:fffd2000       $pdata$??$construct@V?$basic_string@DU?$char_traits@D@std@@V?$allocator@D@2@@std@@V12@@?$_Wrap_alloc@V?$allocator@V?$basic_string@DU?$char_traits@D@std@@V?$allocator@D@2@@std@@@std@@@std@@QEAAXPEAV?$basic_string@DU?$char_traits@D@std@@V?$allocator@D@2@@1@$$QEAV21@@Z 0000000180000000     Global.obj
 0002:fffde000       $unwind$??$construct@V?$basic_string@DU?$char_traits@D@std@@V?$allocator@D@2@@std@@V12@@?$_Wrap_alloc@V?$allocator@V?$basic_string@DU?$char_traits@D@std@@V?$allocator@D@2@@std@@@std@@@std@@QEAAXPEAV?$basic_string@DU?$char_traits@D@std@@V?$allocator@D@2@@1@$$QEAV21@@Z 0000000180000000     Global.obj
 0004:fffd2000       $pdata$?_Xlen@?$vector@V?$basic_string@DU?$char_traits@D@std@@V?$allocator@D@2@@std@@V?$allocator@V?$basic_string@DU?$char_traits@D@std@@V?$allocator@D@2@@std@@@2@@std@@IEBAXXZ 0000000180000000     Global.obj
 0002:fffde000       $unwind$?_Xlen@?$vector@V?$basic_string@DU?$char_traits@D@std@@V?$allocator@D@2@@std@@V?$allocator@V?$basic_string@DU?$char_traits@D@std@@V?$allocator@D@2@@std@@@2@@std@@IEBAXXZ 0000000180000000     Global.obj
 0004:fffd2000       $pdata$?_Reserve@?$vector@V?$basic_string@DU?$char_traits@D@std@@V?$allocator@D@2@@std@@V?$allocator@V?$basic_string@DU?$char_traits@D@std@@V?$allocator@D@2@@std@@@2@@std@@IEAAX_K@Z 0000000180000000     Global.obj
 0002:fffde000       $unwind$?_Reserve@?$vector@V?$basic_string@DU?$char_traits@D@std@@V?$allocator@D@2@@std@@V?$allocator@V?$basic_string@DU?$char_traits@D@std@@V?$allocator@D@2@@std@@@2@@std@@IEAAX_K@Z 0000000180000000     Global.obj
 0001:fffff000       ?catch$1@?0??_Copy@?$basic_string@DU?$char_traits@D@std@@V?$allocator@D@2@@std@@QEAAX_K0@Z@4HA 0000000180000000 f   UTF-8.obj
 0004:fffd2000       $pdata$?catch$0@?0??_Reallocate@?$vector@V?$basic_string@DU?$char_traits@D@std@@V?$allocator@D@2@@std@@V?$allocator@V?$basic_string@DU?$char_traits@D@std@@V?$allocator@D@2@@std@@@2@@std@@IEAAX_K@Z@4HA 0000000180000000     Global.obj
 0002:fffde000       $unwind$?catch$0@?0??_Reallocate@?$vector@V?$basic_string@DU?$char_traits@D@std@@V?$allocator@D@2@@std@@V?$allocator@V?$basic_string@DU?$char_traits@D@std@@V?$allocator@D@2@@std@@@2@@std@@IEAAX_K@Z@4HA 0000000180000000     Global.obj
 0002:fffde000       $ip2state$?_Reallocate@?$vector@V?$basic_string@DU?$char_traits@D@std@@V?$allocator@D@2@@std@@V?$allocator@V?$basic_string@DU?$char_traits@D@std@@V?$allocator@D@2@@std@@@2@@std@@IEAAX_K@Z 0000000180000000     Global.obj
 0002:fffde000       $handlerMap$0$?_Reallocate@?$vector@V?$basic_string@DU?$char_traits@D@std@@V?$allocator@D@2@@std@@V?$allocator@V?$basic_string@DU?$char_traits@D@std@@V?$allocator@D@2@@std@@@2@@std@@IEAAX_K@Z 0000000180000000     Global.obj
 0002:fffde000       $tryMap$?_Reallocate@?$vector@V?$basic_string@DU?$char_traits@D@std@@V?$allocator@D@2@@std@@V?$allocator@V?$basic_string@DU?$char_traits@D@std@@V?$allocator@D@2@@std@@@2@@std@@IEAAX_K@Z 0000000180000000     Global.obj
 0002:fffde000       $stateUnwindMap$?_Reallocate@?$vector@V?$basic_string@DU?$char_traits@D@std@@V?$allocator@D@2@@std@@V?$allocator@V?$basic_string@DU?$char_traits@D@std@@V?$allocator@D@2@@std@@@2@@std@@IEAAX_K@Z 0000000180000000     Global.obj
 0002:fffde000       $cppxdata$?_Reallocate@?$vector@V?$basic_string@DU?$char_traits@D@std@@V?$allocator@D@2@@std@@V?$allocator@V?$basic_string@DU?$char_traits@D@std@@V?$allocator@D@2@@std@@@2@@std@@IEAAX_K@Z 0000000180000000     Global.obj
 0004:fffd2000       $pdata$?_Reallocate@?$vector@V?$basic_string@DU?$char_traits@D@std@@V?$allocator@D@2@@std@@V?$allocator@V?$basic_string@DU?$char_traits@D@std@@V?$allocator@D@2@@std@@@2@@std@@IEAAX_K@Z 0000000180000000     Global.obj
 0002:fffde000       $unwind$?_Reallocate@?$vector@V?$basic_string@DU?$char_traits@D@std@@V?$allocator@D@2@@std@@V?$allocator@V?$basic_string@DU?$char_traits@D@std@@V?$allocator@D@2@@std@@@2@@std@@IEAAX_K@Z 0000000180000000     Global.obj
 0002:fffde000       $unwind$?Init@CComCriticalSection@ATL@@QEAAJXZ 0000000180000000     UTF-8.obj
 0004:fffd2000       $pdata$?Init@CComCriticalSection@ATL@@QEAAJXZ 0000000180000000     UTF-8.obj
 0002:fffde000       $unwind$?Term@CComCriticalSection@ATL@@QEAAJXZ 0000000180000000     UTF-8.obj
 0004:fffd2000       $pdata$?Term@CComCriticalSection@ATL@@QEAAJXZ 0000000180000000     UTF-8.obj
 0002:fffde000       $unwind$?Reallocate@CWin32Heap@ATL@@UEAAPEAXPEAX_K@Z 0000000180000000     UTF-8.obj
 0004:fffd2000       $pdata$?Reallocate@CWin32Heap@ATL@@UEAAPEAXPEAX_K@Z 0000000180000000     UTF-8.obj
 0002:fffde000       $unwind$??_GCWin32Heap@ATL@@UEAAPEAXI@Z 0000000180000000     UTF-8.obj
 0004:fffd2000       $pdata$??_GCWin32Heap@ATL@@UEAAPEAXI@Z 0000000180000000     UTF-8.obj
 0002:fffde000       $unwind$??1?$CSimpleArray@GV?$CSimpleArrayEqualHelper@G@ATL@@@ATL@@QEAA@XZ 0000000180000000     UTF-8.obj
 0004:fffd2000       $pdata$??1?$CSimpleArray@GV?$CSimpleArrayEqualHelper@G@ATL@@@ATL@@QEAA@XZ 0000000180000000     UTF-8.obj
 0002:fffde000       $unwind$?RemoveAll@?$CSimpleArray@GV?$CSimpleArrayEqualHelper@G@ATL@@@ATL@@QEAAXXZ 0000000180000000     UTF-8.obj
 0004:fffd2000       $pdata$?RemoveAll@?$CSimpleArray@GV?$CSimpleArrayEqualHelper@G@ATL@@@ATL@@QEAAXXZ 0000000180000000     UTF-8.obj
 0002:fffde000       $unwind$??A?$CSimpleArray@GV?$CSimpleArrayEqualHelper@G@ATL@@@ATL@@QEAAAEAGH@Z 0000000180000000     UTF-8.obj
 0004:fffd2000       $pdata$??A?$CSimpleArray@GV?$CSimpleArrayEqualHelper@G@ATL@@@ATL@@QEAAAEAGH@Z 0000000180000000     UTF-8.obj
 0002:fffde000       $unwind$??1_ATL_WIN_MODULE70@ATL@@QEAA@XZ 0000000180000000     UTF-8.obj
 0004:fffd2000       $pdata$??1_ATL_WIN_MODULE70@ATL@@QEAA@XZ 0000000180000000     UTF-8.obj
 0002:fffde000       $unwind$?AtlWinModuleInit@ATL@@YAJPEAU_ATL_WIN_MODULE70@1@@Z 0000000180000000     UTF-8.obj
 0004:fffd2000       $pdata$?AtlWinModuleInit@ATL@@YAJPEAU_ATL_WIN_MODULE70@1@@Z 0000000180000000     UTF-8.obj
 0002:fffde000       $chain$0$?AtlWinModuleInit@ATL@@YAJPEAU_ATL_WIN_MODULE70@1@@Z 0000000180000000     UTF-8.obj
 0004:fffd2000       $pdata$0$?AtlWinModuleInit@ATL@@YAJPEAU_ATL_WIN_MODULE70@1@@Z 0000000180000000     UTF-8.obj
 0002:fffde000       $chain$2$?AtlWinModuleInit@ATL@@YAJPEAU_ATL_WIN_MODULE70@1@@Z 0000000180000000     UTF-8.obj
 0004:fffd2000       $pdata$2$?AtlWinModuleInit@ATL@@YAJPEAU_ATL_WIN_MODULE70@1@@Z 0000000180000000     UTF-8.obj
 0002:fffde000       $unwind$?AtlWinModuleTerm@ATL@@YAJPEAU_ATL_WIN_MODULE70@1@PEAUHINSTANCE__@@@Z 0000000180000000     UTF-8.obj
 0004:fffd2000       $pdata$?AtlWinModuleTerm@ATL@@YAJPEAU_ATL_WIN_MODULE70@1@PEAUHINSTANCE__@@@Z 0000000180000000     UTF-8.obj
 0002:fffde000       $chain$2$?AtlWinModuleTerm@ATL@@YAJPEAU_ATL_WIN_MODULE70@1@PEAUHINSTANCE__@@@Z 0000000180000000     UTF-8.obj
 0004:fffd2000       $pdata$2$?AtlWinModuleTerm@ATL@@YAJPEAU_ATL_WIN_MODULE70@1@PEAUHINSTANCE__@@@Z 0000000180000000     UTF-8.obj
 0002:fffde000       $chain$3$?AtlWinModuleTerm@ATL@@YAJPEAU_ATL_WIN_MODULE70@1@PEAUHINSTANCE__@@@Z 0000000180000000     UTF-8.obj
 0004:fffd2000       $pdata$3$?AtlWinModuleTerm@ATL@@YAJPEAU_ATL_WIN_MODULE70@1@PEAUHINSTANCE__@@@Z 0000000180000000     UTF-8.obj
 0002:fffde000       $chain$4$?AtlWinModuleTerm@ATL@@YAJPEAU_ATL_WIN_MODULE70@1@PEAUHINSTANCE__@@@Z 0000000180000000     UTF-8.obj
 0004:fffd2000       $pdata$4$?AtlWinModuleTerm@ATL@@YAJPEAU_ATL_WIN_MODULE70@1@PEAUHINSTANCE__@@@Z 0000000180000000     UTF-8.obj
 0002:fffde000       $unwind$??0CAtlComModule@ATL@@QEAA@XZ 0000000180000000     UTF-8.obj
 0004:fffd2000       $pdata$??0CAtlComModule@ATL@@QEAA@XZ 0000000180000000     UTF-8.obj
 0002:fffde000       $unwind$?Term@CAtlComModule@ATL@@QEAAXXZ 0000000180000000     UTF-8.obj
 0004:fffd2000       $pdata$?Term@CAtlComModule@ATL@@QEAAXXZ 0000000180000000     UTF-8.obj
 0002:fffde000       $chain$1$?Term@CAtlComModule@ATL@@QEAAXXZ 0000000180000000     UTF-8.obj
 0004:fffd2000       $pdata$1$?Term@CAtlComModule@ATL@@QEAAXXZ 0000000180000000     UTF-8.obj
 0002:fffde000       $chain$2$?Term@CAtlComModule@ATL@@QEAAXXZ 0000000180000000     UTF-8.obj
 0004:fffd2000       $pdata$2$?Term@CAtlComModule@ATL@@QEAAXXZ 0000000180000000     UTF-8.obj
 0002:fffde000       $chain$3$?Term@CAtlComModule@ATL@@QEAAXXZ 0000000180000000     UTF-8.obj
 0004:fffd2000       $pdata$3$?Term@CAtlComModule@ATL@@QEAAXXZ 0000000180000000     UTF-8.obj
 0002:fffde000       $chain$4$?Term@CAtlComModule@ATL@@QEAAXXZ 0000000180000000     UTF-8.obj
 0004:fffd2000       $pdata$4$?Term@CAtlComModule@ATL@@QEAAXXZ 0000000180000000     UTF-8.obj
 0002:fffde000       $unwind$?Reallocate@CWin32Heap@ATL@@UEAAPEAXPEAX_K@Z 0000000180000000     mfcs120:dllmodul.obj
 0004:fffd2000       $pdata$?Free@CWin32Heap@ATL@@UEAAXPEAX@Z 0000000180000000     mfcs120:dllmodul.obj
 0002:fffde000       $unwind$?Free@CWin32Heap@ATL@@UEAAXPEAX@Z 0000000180000000     mfcs120:dllmodul.obj
 0004:fffd2000       $pdata$??1CWin32Heap@ATL@@UEAA@XZ 0000000180000000     mfcs120:dllmodul.obj
 0002:fffde000       $unwind$??0CAtlWinModule@ATL@@QEAA@XZ 0000000180000000     UTF-8.obj
 0004:fffd2000       $pdata$??0CAtlWinModule@ATL@@QEAA@XZ 0000000180000000     UTF-8.obj
 0002:fffde000       $unwind$??1CAtlWinModule@ATL@@QEAA@XZ 0000000180000000     UTF-8.obj
 0004:fffd2000       $pdata$??1CAtlWinModule@ATL@@QEAA@XZ 0000000180000000     UTF-8.obj
 0002:fffde000       $unwind$??1CWin32Heap@ATL@@UEAA@XZ 0000000180000000     mfcs120:dllmodul.obj
 0004:fffd2000       $pdata$?Term@CComCriticalSection@ATL@@QEAAJXZ 0000000180000000     mfcs120:dllmodul.obj
 0002:fffde000       $unwind$?Term@CComCriticalSection@ATL@@QEAAJXZ 0000000180000000     mfcs120:dllmodul.obj
 0000:fffcd000       .debug$S                   0000000180000000     ws2_32:WS2_32.dll
 0002:fffde000       $unwind$?GetInstance@CAtlStringMgr@ATL@@SAPEAUIAtlStringMgr@2@XZ 0000000180000000     UTF-8.obj
 0004:fffd2000       $pdata$?GetInstance@CAtlStringMgr@ATL@@SAPEAUIAtlStringMgr@2@XZ 0000000180000000     UTF-8.obj
 0002:fffde000       $unwind$?Allocate@CAtlStringMgr@ATL@@UEAAPEAUCStringData@2@HH@Z 0000000180000000     UTF-8.obj
 0004:fffd2000       $pdata$?Allocate@CAtlStringMgr@ATL@@UEAAPEAUCStringData@2@HH@Z 0000000180000000     UTF-8.obj
 0002:fffde000       $chain$0$?Allocate@CAtlStringMgr@ATL@@UEAAPEAUCStringData@2@HH@Z 0000000180000000     UTF-8.obj
 0004:fffd2000       $pdata$0$?Allocate@CAtlStringMgr@ATL@@UEAAPEAUCStringData@2@HH@Z 0000000180000000     UTF-8.obj
 0002:fffde000       $chain$2$?Allocate@CAtlStringMgr@ATL@@UEAAPEAUCStringData@2@HH@Z 0000000180000000     UTF-8.obj
 0004:fffd2000       $pdata$2$?Allocate@CAtlStringMgr@ATL@@UEAAPEAUCStringData@2@HH@Z 0000000180000000     UTF-8.obj
 0002:fffde000       $unwind$?Reallocate@CAtlStringMgr@ATL@@UEAAPEAUCStringData@2@PEAU32@HH@Z 0000000180000000     UTF-8.obj
 0004:fffd2000       $pdata$?Reallocate@CAtlStringMgr@ATL@@UEAAPEAUCStringData@2@PEAU32@HH@Z 0000000180000000     UTF-8.obj
 0002:fffde000       $chain$0$?Reallocate@CAtlStringMgr@ATL@@UEAAPEAUCStringData@2@PEAU32@HH@Z 0000000180000000     UTF-8.obj
 0004:fffd2000       $pdata$0$?Reallocate@CAtlStringMgr@ATL@@UEAAPEAUCStringData@2@PEAU32@HH@Z 0000000180000000     UTF-8.obj
 0002:fffde000       $chain$2$?Reallocate@CAtlStringMgr@ATL@@UEAAPEAUCStringData@2@PEAU32@HH@Z 0000000180000000     UTF-8.obj
 0004:fffd2000       $pdata$2$?Reallocate@CAtlStringMgr@ATL@@UEAAPEAUCStringData@2@PEAU32@HH@Z 0000000180000000     UTF-8.obj
 0002:fffde000       $unwind$?StaticInitialize@CAtlStringMgr@ATL@@CA_NXZ 0000000180000000     UTF-8.obj
 0004:fffd2000       $pdata$?StaticInitialize@CAtlStringMgr@ATL@@CA_NXZ 0000000180000000     UTF-8.obj
 0002:fffde000       $unwind$??_GCAtlStringMgr@ATL@@UEAAPEAXI@Z 0000000180000000     UTF-8.obj
 0004:fffd2000       $pdata$??_GCAtlStringMgr@ATL@@UEAAPEAXI@Z 0000000180000000     UTF-8.obj
 0004:fffd2000       $pdata$?Init@CComCriticalSection@ATL@@QEAAJXZ 0000000180000000     mfcs120:dllmodul.obj
 0002:fffde000       $unwind$?Init@CComCriticalSection@ATL@@QEAAJXZ 0000000180000000     mfcs120:dllmodul.obj
 0002:fffde000       $unwind$?copy@?$char_traits@D@std@@SAPEADPEADPEBD_K@Z 0000000180000000     UTF-8.obj
 0004:fffd2000       $pdata$?copy@?$char_traits@D@std@@SAPEADPEADPEBD_K@Z 0000000180000000     UTF-8.obj
 0002:fffde000       $unwind$?allocate@?$allocator@D@std@@QEAAPEAD_K@Z 0000000180000000     UTF-8.obj
 0004:fffd2000       $pdata$?allocate@?$allocator@D@std@@QEAAPEAD_K@Z 0000000180000000     UTF-8.obj
 0002:fffde000       $unwind$?allocate@?$_Wrap_alloc@V?$allocator@D@std@@@std@@QEAAPEAD_K@Z 0000000180000000     UTF-8.obj
 0004:fffd2000       $pdata$?allocate@?$_Wrap_alloc@V?$allocator@D@std@@@std@@QEAAPEAD_K@Z 0000000180000000     UTF-8.obj
 0002:fffde000       $unwind$??0?$basic_string@DU?$char_traits@D@std@@V?$allocator@D@2@@std@@QEAA@PEBD@Z 0000000180000000     UTF-8.obj
 0004:fffd2000       $pdata$??0?$basic_string@DU?$char_traits@D@std@@V?$allocator@D@2@@std@@QEAA@PEBD@Z 0000000180000000     UTF-8.obj
 0002:fffde000       $unwind$??1?$basic_string@DU?$char_traits@D@std@@V?$allocator@D@2@@std@@QEAA@XZ 0000000180000000     UTF-8.obj
 0004:fffd2000       $pdata$??1?$basic_string@DU?$char_traits@D@std@@V?$allocator@D@2@@std@@QEAA@XZ 0000000180000000     UTF-8.obj
 0002:fffde000       $unwind$?assign@?$basic_string@DU?$char_traits@D@std@@V?$allocator@D@2@@std@@QEAAAEAV12@AEBV12@_K1@Z 0000000180000000     UTF-8.obj
 0004:fffd2000       $pdata$?assign@?$basic_string@DU?$char_traits@D@std@@V?$allocator@D@2@@std@@QEAAAEAV12@AEBV12@_K1@Z 0000000180000000     UTF-8.obj
 0002:fffde000       $unwind$?assign@?$basic_string@DU?$char_traits@D@std@@V?$allocator@D@2@@std@@QEAAAEAV12@PEBD_K@Z 0000000180000000     UTF-8.obj
 0004:fffd2000       $pdata$?assign@?$basic_string@DU?$char_traits@D@std@@V?$allocator@D@2@@std@@QEAAAEAV12@PEBD_K@Z 0000000180000000     UTF-8.obj
 0002:fffde000       $unwind$?erase@?$basic_string@DU?$char_traits@D@std@@V?$allocator@D@2@@std@@QEAAAEAV12@_K@Z 0000000180000000     UTF-8.obj
 0004:fffd2000       $pdata$?erase@?$basic_string@DU?$char_traits@D@std@@V?$allocator@D@2@@std@@QEAAAEAV12@_K@Z 0000000180000000     UTF-8.obj
 0002:fffde000       $unwind$?erase@?$basic_string@DU?$char_traits@D@std@@V?$allocator@D@2@@std@@QEAAAEAV12@_K0@Z 0000000180000000     UTF-8.obj
 0004:fffd2000       $pdata$?erase@?$basic_string@DU?$char_traits@D@std@@V?$allocator@D@2@@std@@QEAAAEAV12@_K0@Z 0000000180000000     UTF-8.obj
 0002:fffde000       $unwind$?_Copy@?$basic_string@DU?$char_traits@D@std@@V?$allocator@D@2@@std@@QEAAX_K0@Z 0000000180000000     UTF-8.obj
 0004:fffd2000       $pdata$?_Copy@?$basic_string@DU?$char_traits@D@std@@V?$allocator@D@2@@std@@QEAAX_K0@Z 0000000180000000     UTF-8.obj
 0002:fffde000       $cppxdata$?_Copy@?$basic_string@DU?$char_traits@D@std@@V?$allocator@D@2@@std@@QEAAX_K0@Z 0000000180000000     UTF-8.obj
 0002:fffde000       $stateUnwindMap$?_Copy@?$basic_string@DU?$char_traits@D@std@@V?$allocator@D@2@@std@@QEAAX_K0@Z 0000000180000000     UTF-8.obj
 0002:fffde000       $tryMap$?_Copy@?$basic_string@DU?$char_traits@D@std@@V?$allocator@D@2@@std@@QEAAX_K0@Z 0000000180000000     UTF-8.obj
 0002:fffde000       $handlerMap$0$?_Copy@?$basic_string@DU?$char_traits@D@std@@V?$allocator@D@2@@std@@QEAAX_K0@Z 0000000180000000     UTF-8.obj
 0002:fffde000       $handlerMap$1$?_Copy@?$basic_string@DU?$char_traits@D@std@@V?$allocator@D@2@@std@@QEAAX_K0@Z 0000000180000000     UTF-8.obj
 0002:fffde000       $ip2state$?_Copy@?$basic_string@DU?$char_traits@D@std@@V?$allocator@D@2@@std@@QEAAX_K0@Z 0000000180000000     UTF-8.obj
 0002:fffde000       $unwind$?catch$1@?0??_Copy@?$basic_string@DU?$char_traits@D@std@@V?$allocator@D@2@@std@@QEAAX_K0@Z@4HA 0000000180000000     UTF-8.obj
 0004:fffd2000       $pdata$?catch$1@?0??_Copy@?$basic_string@DU?$char_traits@D@std@@V?$allocator@D@2@@std@@QEAAX_K0@Z@4HA 0000000180000000     UTF-8.obj
 0002:fffde000       $unwind$?catch$0@?0??_Copy@?$basic_string@DU?$char_traits@D@std@@V?$allocator@D@2@@std@@QEAAX_K0@Z@4HA 0000000180000000     UTF-8.obj
 0004:fffd2000       $pdata$?catch$0@?0??_Copy@?$basic_string@DU?$char_traits@D@std@@V?$allocator@D@2@@std@@QEAAX_K0@Z@4HA 0000000180000000     UTF-8.obj
 0002:fffde000       $unwind$?_Grow@?$basic_string@DU?$char_traits@D@std@@V?$allocator@D@2@@std@@QEAA_N_K_N@Z 0000000180000000     UTF-8.obj
 0004:fffd2000       $pdata$?_Grow@?$basic_string@DU?$char_traits@D@std@@V?$allocator@D@2@@std@@QEAA_N_K_N@Z 0000000180000000     UTF-8.obj
 0002:fffde000       $chain$1$?_Grow@?$basic_string@DU?$char_traits@D@std@@V?$allocator@D@2@@std@@QEAA_N_K_N@Z 0000000180000000     UTF-8.obj
 0004:fffd2000       $pdata$1$?_Grow@?$basic_string@DU?$char_traits@D@std@@V?$allocator@D@2@@std@@QEAA_N_K_N@Z 0000000180000000     UTF-8.obj
 0002:fffde000       $chain$2$?_Grow@?$basic_string@DU?$char_traits@D@std@@V?$allocator@D@2@@std@@QEAA_N_K_N@Z 0000000180000000     UTF-8.obj
 0004:fffd2000       $pdata$2$?_Grow@?$basic_string@DU?$char_traits@D@std@@V?$allocator@D@2@@std@@QEAA_N_K_N@Z 0000000180000000     UTF-8.obj
 0002:fffde000       $chain$3$?_Grow@?$basic_string@DU?$char_traits@D@std@@V?$allocator@D@2@@std@@QEAA_N_K_N@Z 0000000180000000     UTF-8.obj
 0004:fffd2000       $pdata$3$?_Grow@?$basic_string@DU?$char_traits@D@std@@V?$allocator@D@2@@std@@QEAA_N_K_N@Z 0000000180000000     UTF-8.obj
 0002:fffde000       $chain$4$?_Grow@?$basic_string@DU?$char_traits@D@std@@V?$allocator@D@2@@std@@QEAA_N_K_N@Z 0000000180000000     UTF-8.obj
 0004:fffd2000       $pdata$4$?_Grow@?$basic_string@DU?$char_traits@D@std@@V?$allocator@D@2@@std@@QEAA_N_K_N@Z 0000000180000000     UTF-8.obj
 0002:fffde000       $unwind$?_Tidy@?$basic_string@DU?$char_traits@D@std@@V?$allocator@D@2@@std@@QEAAX_N_K@Z 0000000180000000     UTF-8.obj
 0004:fffd2000       $pdata$?_Tidy@?$basic_string@DU?$char_traits@D@std@@V?$allocator@D@2@@std@@QEAAX_N_K@Z 0000000180000000     UTF-8.obj
 0002:fffde000       $chain$0$?_Tidy@?$basic_string@DU?$char_traits@D@std@@V?$allocator@D@2@@std@@QEAAX_N_K@Z 0000000180000000     UTF-8.obj
 0004:fffd2000       $pdata$0$?_Tidy@?$basic_string@DU?$char_traits@D@std@@V?$allocator@D@2@@std@@QEAAX_N_K@Z 0000000180000000     UTF-8.obj
 0002:fffde000       $chain$1$?_Tidy@?$basic_string@DU?$char_traits@D@std@@V?$allocator@D@2@@std@@QEAAX_N_K@Z 0000000180000000     UTF-8.obj
 0004:fffd2000       $pdata$1$?_Tidy@?$basic_string@DU?$char_traits@D@std@@V?$allocator@D@2@@std@@QEAAX_N_K@Z 0000000180000000     UTF-8.obj
 0002:fffde000       $unwind$?_Xlen@?$basic_string@DU?$char_traits@D@std@@V?$allocator@D@2@@std@@QEBAXXZ 0000000180000000     UTF-8.obj
 0004:fffd2000       $pdata$?_Xlen@?$basic_string@DU?$char_traits@D@std@@V?$allocator@D@2@@std@@QEBAXXZ 0000000180000000     UTF-8.obj
 0002:fffde000       $unwind$?_Xran@?$basic_string@DU?$char_traits@D@std@@V?$allocator@D@2@@std@@QEBAXXZ 0000000180000000     UTF-8.obj
 0004:fffd2000       $pdata$?_Xran@?$basic_string@DU?$char_traits@D@std@@V?$allocator@D@2@@std@@QEBAXXZ 0000000180000000     UTF-8.obj
 0002:fffde000       $unwind$?equivalent@error_category@std@@UEBA_NHAEBVerror_condition@2@@Z 0000000180000000     UTF-8.obj
 0004:fffd2000       $pdata$?equivalent@error_category@std@@UEBA_NHAEBVerror_condition@2@@Z 0000000180000000     UTF-8.obj
 0002:fffde000       $unwind$??_Gerror_category@std@@UEAAPEAXI@Z 0000000180000000     UTF-8.obj
 0004:fffd2000       $pdata$??_Gerror_category@std@@UEAAPEAXI@Z 0000000180000000     UTF-8.obj
 0002:fffde000       $unwind$?message@_Generic_error_category@std@@UEBA?AV?$basic_string@DU?$char_traits@D@std@@V?$allocator@D@2@@2@H@Z 0000000180000000     UTF-8.obj
 0004:fffd2000       $pdata$?message@_Generic_error_category@std@@UEBA?AV?$basic_string@DU?$char_traits@D@std@@V?$allocator@D@2@@2@H@Z 0000000180000000     UTF-8.obj
 0002:fffde000       $unwind$??_G_Generic_error_category@std@@UEAAPEAXI@Z 0000000180000000     UTF-8.obj
 0004:fffd2000       $pdata$??_G_Generic_error_category@std@@UEAAPEAXI@Z 0000000180000000     UTF-8.obj
 0002:fffde000       $unwind$?message@_Iostream_error_category@std@@UEBA?AV?$basic_string@DU?$char_traits@D@std@@V?$allocator@D@2@@2@H@Z 0000000180000000     UTF-8.obj
 0004:fffd2000       $pdata$?message@_Iostream_error_category@std@@UEBA?AV?$basic_string@DU?$char_traits@D@std@@V?$allocator@D@2@@2@H@Z 0000000180000000     UTF-8.obj
 0002:fffde000       $unwind$??_G_Iostream_error_category@std@@UEAAPEAXI@Z 0000000180000000     UTF-8.obj
 0004:fffd2000       $pdata$??_G_Iostream_error_category@std@@UEAAPEAXI@Z 0000000180000000     UTF-8.obj
 0002:fffde000       $unwind$?message@_System_error_category@std@@UEBA?AV?$basic_string@DU?$char_traits@D@std@@V?$allocator@D@2@@2@H@Z 0000000180000000     UTF-8.obj
 0004:fffd2000       $pdata$?message@_System_error_category@std@@UEBA?AV?$basic_string@DU?$char_traits@D@std@@V?$allocator@D@2@@2@H@Z 0000000180000000     UTF-8.obj
 0002:fffde000       $unwind$?default_error_condition@_System_error_category@std@@UEBA?AVerror_condition@2@H@Z 0000000180000000     UTF-8.obj
 0004:fffd2000       $pdata$?default_error_condition@_System_error_category@std@@UEBA?AVerror_condition@2@H@Z 0000000180000000     UTF-8.obj
 0002:fffde000       $unwind$??_G_System_error_category@std@@UEAAPEAXI@Z 0000000180000000     UTF-8.obj
 0004:fffd2000       $pdata$??_G_System_error_category@std@@UEAAPEAXI@Z 0000000180000000     UTF-8.obj
 0004:fffd2000       $pdata$??0CComCriticalSection@ATL@@QEAA@XZ 0000000180000000     mfcs120:dllmodul.obj
 0000:fffcd000       .debug$S                   0000000180000000     ws2_32:WS2_32.dll
 0002:fffde000       $unwind$??0CComCriticalSection@ATL@@QEAA@XZ 0000000180000000     mfcs120:dllmodul.obj
 0000:fffcd000       .debug$S                   0000000180000000     ws2_32:WS2_32.dll
 0004:fffd2000       $pdata$IsolationAwareUnregisterClassA$fin$0 0000000180000000     mfcs120:dllmodul.obj
 0000:fffcd000       .debug$S                   0000000180000000     ws2_32:WS2_32.dll
 0002:fffde000       $unwind$IsolationAwareUnregisterClassA$fin$0 0000000180000000     mfcs120:dllmodul.obj
 0000:fffcd000       .debug$S                   0000000180000000     ws2_32:WS2_32.dll
 0004:fffd2000       $pdata$IsolationAwareUnregisterClassA 0000000180000000     mfcs120:dllmodul.obj
 0000:fffcd000       .debug$S                   0000000180000000     ws2_32:WS2_32.dll
 0004:fffd2000       $pdata$1$?_Destroy@?$vector@V?$basic_string@DU?$char_traits@D@std@@V?$allocator@D@2@@std@@V?$allocator@V?$basic_string@DU?$char_traits@D@std@@V?$allocator@D@2@@std@@@2@@std@@IEAAXPEAV?$basic_string@DU?$char_traits@D@std@@V?$allocator@D@2@@2@0@Z 0000000180000000     Global.obj
 0002:fffde000       $unwind$IsolationAwareUnregisterClassA 0000000180000000     mfcs120:dllmodul.obj
 0004:fffd2000       $pdata$WinbaseIsolationAwarePrivatetRgzlnPgpgk$fin$0 0000000180000000     mfcs120:dllmodul.obj
 0002:fffde000       $unwind$WinbaseIsolationAwarePrivatetRgzlnPgpgk$fin$0 0000000180000000     mfcs120:dllmodul.obj
 0004:fffd2000       $pdata$WinbaseIsolationAwarePrivatetRgzlnPgpgk 0000000180000000     mfcs120:dllmodul.obj
 0002:fffde000       $unwind$WinbaseIsolationAwarePrivatetRgzlnPgpgk 0000000180000000     mfcs120:dllmodul.obj
 0000:fffcd000       .debug$S                   0000000180000000     ws2_32:WS2_32.dll
 0004:fffd2000       $pdata$IsolationAwarePrivatenPgViNgRzlnPgpgk 0000000180000000     mfcs120:dllmodul.obj
 0000:fffcd000       .debug$S                   0000000180000000     ws2_32:WS2_32.dll
 0002:fffde000       $chain$1$?_Destroy@?$vector@V?$basic_string@DU?$char_traits@D@std@@V?$allocator@D@2@@std@@V?$allocator@V?$basic_string@DU?$char_traits@D@std@@V?$allocator@D@2@@std@@@2@@std@@IEAAXPEAV?$basic_string@DU?$char_traits@D@std@@V?$allocator@D@2@@2@0@Z 0000000180000000     Global.obj
 0002:fffde000       $unwind$IsolationAwarePrivatenPgViNgRzlnPgpgk 0000000180000000     mfcs120:dllmodul.obj
 0004:fffd2000       $pdata$0$?_Destroy@?$vector@V?$basic_string@DU?$char_traits@D@std@@V?$allocator@D@2@@std@@V?$allocator@V?$basic_string@DU?$char_traits@D@std@@V?$allocator@D@2@@std@@@2@@std@@IEAAXPEAV?$basic_string@DU?$char_traits@D@std@@V?$allocator@D@2@@2@0@Z 0000000180000000     Global.obj
 0001:fffff000       WinbaseIsolationAwarePrivatetRgzlnPgpgk$fin$0 0000000180000000 f   mfcs120:dllmodul.obj
 0000:fffcd000       .debug$S                   0000000180000000     ws2_32:WS2_32.dll
 0002:fffde000       $chain$0$?_Destroy@?$vector@V?$basic_string@DU?$char_traits@D@std@@V?$allocator@D@2@@std@@V?$allocator@V?$basic_string@DU?$char_traits@D@std@@V?$allocator@D@2@@std@@@2@@std@@IEAAXPEAV?$basic_string@DU?$char_traits@D@std@@V?$allocator@D@2@@2@0@Z 0000000180000000     Global.obj
 0001:fffff000       IsolationAwareUnregisterClassA$fin$0 0000000180000000 f   mfcs120:dllmodul.obj
 0004:fffd2000       $pdata$?_Destroy@?$vector@V?$basic_string@DU?$char_traits@D@std@@V?$allocator@D@2@@std@@V?$allocator@V?$basic_string@DU?$char_traits@D@std@@V?$allocator@D@2@@std@@@2@@std@@IEAAXPEAV?$basic_string@DU?$char_traits@D@std@@V?$allocator@D@2@@2@0@Z 0000000180000000     Global.obj
 0002:fffde000       $unwind$?_Destroy@?$vector@V?$basic_string@DU?$char_traits@D@std@@V?$allocator@D@2@@std@@V?$allocator@V?$basic_string@DU?$char_traits@D@std@@V?$allocator@D@2@@std@@@2@@std@@IEAAXPEAV?$basic_string@DU?$char_traits@D@std@@V?$allocator@D@2@@2@0@Z 0000000180000000     Global.obj
 0004:fffd2000       $pdata$?push_back@?$vector@V?$basic_string@DU?$char_traits@D@std@@V?$allocator@D@2@@std@@V?$allocator@V?$basic_string@DU?$char_traits@D@std@@V?$allocator@D@2@@std@@@2@@std@@QEAAX$$QEAV?$basic_string@DU?$char_traits@D@std@@V?$allocator@D@2@@2@@Z 0000000180000000     Global.obj
 0002:fffde000       $unwind$?push_back@?$vector@V?$basic_string@DU?$char_traits@D@std@@V?$allocator@D@2@@std@@V?$allocator@V?$basic_string@DU?$char_traits@D@std@@V?$allocator@D@2@@std@@@2@@std@@QEAAX$$QEAV?$basic_string@DU?$char_traits@D@std@@V?$allocator@D@2@@2@@Z 0000000180000000     Global.obj
 0004:fffd2000       $pdata$?allocate@?$_Wrap_alloc@V?$allocator@V?$basic_string@DU?$char_traits@D@std@@V?$allocator@D@2@@std@@@std@@@std@@QEAAPEAV?$basic_string@DU?$char_traits@D@std@@V?$allocator@D@2@@2@_K@Z 0000000180000000     Global.obj
 0002:fffde000       $unwind$?allocate@?$_Wrap_alloc@V?$allocator@V?$basic_string@DU?$char_traits@D@std@@V?$allocator@D@2@@std@@@std@@@std@@QEAAPEAV?$basic_string@DU?$char_traits@D@std@@V?$allocator@D@2@@2@_K@Z 0000000180000000     Global.obj
 0000:fffcd000       .debug$S                   0000000180000000     ws2_32:WS2_32.dll
 0004:fffd2000       $pdata$?allocate@?$allocator@V?$basic_string@DU?$char_traits@D@std@@V?$allocator@D@2@@std@@@std@@QEAAPEAV?$basic_string@DU?$char_traits@D@std@@V?$allocator@D@2@@2@_K@Z 0000000180000000     Global.obj
 0000:fffcd000       .debug$S                   0000000180000000     ws2_32:WS2_32.dll
 0002:fffde000       $unwind$?allocate@?$allocator@V?$basic_string@DU?$char_traits@D@std@@V?$allocator@D@2@@std@@@std@@QEAAPEAV?$basic_string@DU?$char_traits@D@std@@V?$allocator@D@2@@2@_K@Z 0000000180000000     Global.obj
 0000:fffcd000       .debug$S                   0000000180000000     ws2_32:WS2_32.dll
 0004:fffd2000       $pdata$??$_Allocate@V?$basic_string@DU?$char_traits@D@std@@V?$allocator@D@2@@std@@@std@@YAPEAV?$basic_string@DU?$char_traits@D@std@@V?$allocator@D@2@@0@_KPEAV10@@Z 0000000180000000     Global.obj
 0000:fffcd000       .debug$S                   0000000180000000     ws2_32:WS2_32.dll
 0002:fffde000       $unwind$??$construct@V?$basic_string@DU?$char_traits@D@std@@V?$allocator@D@2@@std@@V12@@?$allocator_traits@V?$allocator@V?$basic_string@DU?$char_traits@D@std@@V?$allocator@D@2@@std@@@std@@@std@@SAXAEAV?$allocator@V?$basic_string@DU?$char_traits@D@std@@V?$allocator@D@2@@std@@@1@PEAV?$basic_string@DU?$char_traits@D@std@@V?$allocator@D@2@@1@$$QEAV31@@Z 0000000180000000     Global.obj
 0000:fffcd000       .debug$S                   0000000180000000     ws2_32:WS2_32.dll
 0004:fffd2000       $pdata$??$construct@V?$basic_string@DU?$char_traits@D@std@@V?$allocator@D@2@@std@@V12@@?$allocator_traits@V?$allocator@V?$basic_string@DU?$char_traits@D@std@@V?$allocator@D@2@@std@@@std@@@std@@SAXAEAV?$allocator@V?$basic_string@DU?$char_traits@D@std@@V?$allocator@D@2@@std@@@1@PEAV?$basic_string@DU?$char_traits@D@std@@V?$allocator@D@2@@1@$$QEAV31@@Z 0000000180000000     Global.obj
 0000:fffcd000       .debug$S                   0000000180000000     ws2_32:WS2_32.dll
 0002:fffde000       ?isInitialized$initializer$@CAtlStringMgr@ATL@@0P6AXXZEA 0000000180000000     mfcs120:dllmodulx.obj
 0000:fffcd000       .debug$S                   0000000180000000     ws2_32:WS2_32.dll
 0002:fffde000       _AtlWinModule$initializer$ 0000000180000000     mfcs120:dllmodulx.obj
 0000:fffcd000       .debug$S                   0000000180000000     ws2_32:WS2_32.dll
 0002:fffde000       _AtlComModule$initializer$ 0000000180000000     mfcs120:dllmodulx.obj
 0000:fffcd000       .debug$S                   0000000180000000     ws2_32:WS2_32.dll
 0004:fffd2000       $pdata$??_GCAtlStringMgr@ATL@@UEAAPEAXI@Z 0000000180000000     mfcs120:dllmodul.obj
 0002:fffde000       $unwind$?Term@CAtlComModule@ATL@@QEAAXXZ 0000000180000000     mfcs120:dllmodul.obj
 0004:fffd2000       $pdata$??_Estringdispid@CComTypeInfoHolder@ATL@@QEAAPEAXI@Z 0000000180000000     mfcs120:dllmodulx.obj
 0002:fffde000       $unwind$??_Estringdispid@CComTypeInfoHolder@ATL@@QEAAPEAXI@Z 0000000180000000     mfcs120:dllmodulx.obj
 0004:fffd2000       $pdata$?Term@CAtlComModule@ATL@@QEAAXXZ 0000000180000000     mfcs120:dllmodul.obj
 0004:fffd2000       $pdata$??__FstrHeap@?1??GetInstance@CAtlStringMgr@ATL@@SAPEAUIAtlStringMgr@2@XZ@YAXXZ 0000000180000000     mfcs120:dllmodulx.obj
 0000:fffcd000       .debug$S                   0000000180000000     ws2_32:WS2_32.dll
 0002:fffde000       $unwind$??__FstrHeap@?1??GetInstance@CAtlStringMgr@ATL@@SAPEAUIAtlStringMgr@2@XZ@YAXXZ 0000000180000000     mfcs120:dllmodulx.obj
 0000:fffcd000       .debug$S                   0000000180000000     ws2_32:WS2_32.dll
 0004:fffd2000       $pdata$??_GCAtlStringMgr@ATL@@UEAAPEAXI@Z 0000000180000000     mfcs120:dllmodulx.obj
 0000:fffcd000       .debug$S                   0000000180000000     msvcprt:MSVCP120.dll
 0002:fffde000       $unwind$??_GCAtlStringMgr@ATL@@UEAAPEAXI@Z 0000000180000000     mfcs120:dllmodulx.obj
 0000:fffcd000       .debug$S                   0000000180000000     msvcprt:MSVCP120.dll
 0004:fffd2000       $pdata$?StaticInitialize@CAtlStringMgr@ATL@@CA_NXZ 0000000180000000     mfcs120:dllmodulx.obj
 0000:fffcd000       .debug$S                   0000000180000000     msvcprt:MSVCP120.dll
 0002:fffde000       $unwind$?StaticInitialize@CAtlStringMgr@ATL@@CA_NXZ 0000000180000000     mfcs120:dllmodulx.obj
 0000:fffcd000       .debug$S                   0000000180000000     msvcprt:MSVCP120.dll
 0004:fffd2000       $pdata$?Reallocate@CAtlStringMgr@ATL@@UEAAPEAUCStringData@2@PEAU32@HH@Z 0000000180000000     mfcs120:dllmodulx.obj
 0000:fffcd000       .debug$S                   0000000180000000     msvcprt:MSVCP120.dll
 0002:fffde000       $unwind$?Reallocate@CAtlStringMgr@ATL@@UEAAPEAUCStringData@2@PEAU32@HH@Z 0000000180000000     mfcs120:dllmodulx.obj
 0004:fffd2000       $pdata$?Allocate@CAtlStringMgr@ATL@@UEAAPEAUCStringData@2@HH@Z 0000000180000000     mfcs120:dllmodulx.obj
 0002:fffde000       $unwind$?Allocate@CAtlStringMgr@ATL@@UEAAPEAUCStringData@2@HH@Z 0000000180000000     mfcs120:dllmodulx.obj
 0004:fffd2000       $pdata$?GetInstance@CAtlStringMgr@ATL@@SAPEAUIAtlStringMgr@2@XZ 0000000180000000     mfcs120:dllmodulx.obj
 0002:fffde000       $unwind$??$_Allocate@D@std@@YAPEAD_KPEAD@Z 0000000180000000     UTF-8.obj
 0004:fffd2000       $pdata$??$_Allocate@D@std@@YAPEAD_KPEAD@Z 0000000180000000     UTF-8.obj
 0002:fffde000       $unwind$?GetInstance@CAtlStringMgr@ATL@@SAPEAUIAtlStringMgr@2@XZ 0000000180000000     mfcs120:dllmodulx.obj
 0004:fffd2000       $pdata$??1CAtlWinModule@ATL@@QEAA@XZ 0000000180000000     mfcs120:dllmodulx.obj
 0002:fffde000       _AtlComModule$initializer$ 0000000180000000     UTF-8.obj
 0002:fffde000       _AtlWinModule$initializer$ 0000000180000000     UTF-8.obj
 0002:fffde000       ?isInitialized$initializer$@CAtlStringMgr@ATL@@0P6AXXZEA 0000000180000000     UTF-8.obj
 0002:fffde000       ?_Generic_object$initializer$@?$_Error_objects@H@std@@2P6AXXZEA 0000000180000000     UTF-8.obj
 0002:fffde000       ?_Iostream_object$initializer$@?$_Error_objects@H@std@@2P6AXXZEA 0000000180000000     UTF-8.obj
 0002:fffde000       ?_System_object$initializer$@?$_Error_objects@H@std@@2P6AXXZEA 0000000180000000     UTF-8.obj
 0002:fffde000       $unwind$??$_Uninitialized_move@PEAV?$basic_string@DU?$char_traits@D@std@@V?$allocator@D@2@@std@@PEAV12@U?$_Wrap_alloc@V?$allocator@V?$basic_string@DU?$char_traits@D@std@@V?$allocator@D@2@@std@@@std@@@2@@std@@YAPEAV?$basic_string@DU?$char_traits@D@std@@V?$allocator@D@2@@0@PEAV10@00AEAU?$_Wrap_alloc@V?$allocator@V?$basic_string@DU?$char_traits@D@std@@V?$allocator@D@2@@std@@@std@@@0@@Z 0000000180000000     Global.obj
 0004:fffd2000       $pdata$??$_Uninitialized_move@PEAV?$basic_string@DU?$char_traits@D@std@@V?$allocator@D@2@@std@@PEAV12@U?$_Wrap_alloc@V?$allocator@V?$basic_string@DU?$char_traits@D@std@@V?$allocator@D@2@@std@@@std@@@2@@std@@YAPEAV?$basic_string@DU?$char_traits@D@std@@V?$allocator@D@2@@0@PEAV10@00AEAU?$_Wrap_alloc@V?$allocator@V?$basic_string@DU?$char_traits@D@std@@V?$allocator@D@2@@std@@@std@@@0@@Z 0000000180000000     Global.obj
 0002:fffde000       $unwind$??$_Destroy_range@U?$_Wrap_alloc@V?$allocator@V?$basic_string@DU?$char_traits@D@std@@V?$allocator@D@2@@std@@@std@@@std@@@std@@YAXPEAV?$basic_string@DU?$char_traits@D@std@@V?$allocator@D@2@@0@0AEAU?$_Wrap_alloc@V?$allocator@V?$basic_string@DU?$char_traits@D@std@@V?$allocator@D@2@@std@@@std@@@0@U_Nonscalar_ptr_iterator_tag@0@@Z 0000000180000000     Global.obj
 0004:fffd2000       $pdata$??$_Destroy_range@U?$_Wrap_alloc@V?$allocator@V?$basic_string@DU?$char_traits@D@std@@V?$allocator@D@2@@std@@@std@@@std@@@std@@YAXPEAV?$basic_string@DU?$char_traits@D@std@@V?$allocator@D@2@@0@0AEAU?$_Wrap_alloc@V?$allocator@V?$basic_string@DU?$char_traits@D@std@@V?$allocator@D@2@@std@@@std@@@0@U_Nonscalar_ptr_iterator_tag@0@@Z 0000000180000000     Global.obj
 0002:fffde000       $chain$0$??$_Destroy_range@U?$_Wrap_alloc@V?$allocator@V?$basic_string@DU?$char_traits@D@std@@V?$allocator@D@2@@std@@@std@@@std@@@std@@YAXPEAV?$basic_string@DU?$char_traits@D@std@@V?$allocator@D@2@@0@0AEAU?$_Wrap_alloc@V?$allocator@V?$basic_string@DU?$char_traits@D@std@@V?$allocator@D@2@@std@@@std@@@0@U_Nonscalar_ptr_iterator_tag@0@@Z 0000000180000000     Global.obj
 0002:fffde000       $unwind$?Init@CComCriticalSection@ATL@@QEAAJXZ 0000000180000000     StdAfx.obj
 0004:fffd2000       $pdata$?Init@CComCriticalSection@ATL@@QEAAJXZ 0000000180000000     StdAfx.obj
 0002:fffde000       $unwind$?Term@CComCriticalSection@ATL@@QEAAJXZ 0000000180000000     StdAfx.obj
 0004:fffd2000       $pdata$?Term@CComCriticalSection@ATL@@QEAAJXZ 0000000180000000     StdAfx.obj
 0002:fffde000       $unwind$?Reallocate@CWin32Heap@ATL@@UEAAPEAXPEAX_K@Z 0000000180000000     StdAfx.obj
 0004:fffd2000       $pdata$?Reallocate@CWin32Heap@ATL@@UEAAPEAXPEAX_K@Z 0000000180000000     StdAfx.obj
 0002:fffde000       $unwind$??_GCWin32Heap@ATL@@UEAAPEAXI@Z 0000000180000000     StdAfx.obj
 0004:fffd2000       $pdata$??_GCWin32Heap@ATL@@UEAAPEAXI@Z 0000000180000000     StdAfx.obj
 0002:fffde000       $unwind$??1?$CSimpleArray@GV?$CSimpleArrayEqualHelper@G@ATL@@@ATL@@QEAA@XZ 0000000180000000     StdAfx.obj
 0004:fffd2000       $pdata$??1?$CSimpleArray@GV?$CSimpleArrayEqualHelper@G@ATL@@@ATL@@QEAA@XZ 0000000180000000     StdAfx.obj
 0002:fffde000       $unwind$?RemoveAll@?$CSimpleArray@GV?$CSimpleArrayEqualHelper@G@ATL@@@ATL@@QEAAXXZ 0000000180000000     StdAfx.obj
 0004:fffd2000       $pdata$?RemoveAll@?$CSimpleArray@GV?$CSimpleArrayEqualHelper@G@ATL@@@ATL@@QEAAXXZ 0000000180000000     StdAfx.obj
 0002:fffde000       $unwind$??A?$CSimpleArray@GV?$CSimpleArrayEqualHelper@G@ATL@@@ATL@@QEAAAEAGH@Z 0000000180000000     StdAfx.obj
 0004:fffd2000       $pdata$??A?$CSimpleArray@GV?$CSimpleArrayEqualHelper@G@ATL@@@ATL@@QEAAAEAGH@Z 0000000180000000     StdAfx.obj
 0002:fffde000       $unwind$??1_ATL_WIN_MODULE70@ATL@@QEAA@XZ 0000000180000000     StdAfx.obj
 0004:fffd2000       $pdata$??1_ATL_WIN_MODULE70@ATL@@QEAA@XZ 0000000180000000     StdAfx.obj
 0002:fffde000       $unwind$?AtlWinModuleInit@ATL@@YAJPEAU_ATL_WIN_MODULE70@1@@Z 0000000180000000     StdAfx.obj
 0004:fffd2000       $pdata$?AtlWinModuleInit@ATL@@YAJPEAU_ATL_WIN_MODULE70@1@@Z 0000000180000000     StdAfx.obj
 0002:fffde000       $chain$0$?AtlWinModuleInit@ATL@@YAJPEAU_ATL_WIN_MODULE70@1@@Z 0000000180000000     StdAfx.obj
 0004:fffd2000       $pdata$0$?AtlWinModuleInit@ATL@@YAJPEAU_ATL_WIN_MODULE70@1@@Z 0000000180000000     StdAfx.obj
 0002:fffde000       $chain$2$?AtlWinModuleInit@ATL@@YAJPEAU_ATL_WIN_MODULE70@1@@Z 0000000180000000     StdAfx.obj
 0004:fffd2000       $pdata$2$?AtlWinModuleInit@ATL@@YAJPEAU_ATL_WIN_MODULE70@1@@Z 0000000180000000     StdAfx.obj
 0002:fffde000       $unwind$?AtlWinModuleTerm@ATL@@YAJPEAU_ATL_WIN_MODULE70@1@PEAUHINSTANCE__@@@Z 0000000180000000     StdAfx.obj
 0004:fffd2000       $pdata$?AtlWinModuleTerm@ATL@@YAJPEAU_ATL_WIN_MODULE70@1@PEAUHINSTANCE__@@@Z 0000000180000000     StdAfx.obj
 0002:fffde000       $chain$2$?AtlWinModuleTerm@ATL@@YAJPEAU_ATL_WIN_MODULE70@1@PEAUHINSTANCE__@@@Z 0000000180000000     StdAfx.obj
 0004:fffd2000       $pdata$2$?AtlWinModuleTerm@ATL@@YAJPEAU_ATL_WIN_MODULE70@1@PEAUHINSTANCE__@@@Z 0000000180000000     StdAfx.obj
 0002:fffde000       $chain$3$?AtlWinModuleTerm@ATL@@YAJPEAU_ATL_WIN_MODULE70@1@PEAUHINSTANCE__@@@Z 0000000180000000     StdAfx.obj
 0004:fffd2000       $pdata$3$?AtlWinModuleTerm@ATL@@YAJPEAU_ATL_WIN_MODULE70@1@PEAUHINSTANCE__@@@Z 0000000180000000     StdAfx.obj
 0002:fffde000       $chain$4$?AtlWinModuleTerm@ATL@@YAJPEAU_ATL_WIN_MODULE70@1@PEAUHINSTANCE__@@@Z 0000000180000000     StdAfx.obj
 0004:fffd2000       $pdata$4$?AtlWinModuleTerm@ATL@@YAJPEAU_ATL_WIN_MODULE70@1@PEAUHINSTANCE__@@@Z 0000000180000000     StdAfx.obj
 0002:fffde000       $unwind$??0CAtlComModule@ATL@@QEAA@XZ 0000000180000000     StdAfx.obj
 0004:fffd2000       $pdata$??0CAtlComModule@ATL@@QEAA@XZ 0000000180000000     StdAfx.obj
 0002:fffde000       $unwind$?Term@CAtlComModule@ATL@@QEAAXXZ 0000000180000000     StdAfx.obj
 0004:fffd2000       $pdata$?Term@CAtlComModule@ATL@@QEAAXXZ 0000000180000000     StdAfx.obj
 0002:fffde000       $chain$1$?Term@CAtlComModule@ATL@@QEAAXXZ 0000000180000000     StdAfx.obj
 0004:fffd2000       $pdata$1$?Term@CAtlComModule@ATL@@QEAAXXZ 0000000180000000     StdAfx.obj
 0002:fffde000       $chain$2$?Term@CAtlComModule@ATL@@QEAAXXZ 0000000180000000     StdAfx.obj
 0004:fffd2000       $pdata$2$?Term@CAtlComModule@ATL@@QEAAXXZ 0000000180000000     StdAfx.obj
 0002:fffde000       $chain$3$?Term@CAtlComModule@ATL@@QEAAXXZ 0000000180000000     StdAfx.obj
 0004:fffd2000       $pdata$3$?Term@CAtlComModule@ATL@@QEAAXXZ 0000000180000000     StdAfx.obj
 0002:fffde000       $chain$4$?Term@CAtlComModule@ATL@@QEAAXXZ 0000000180000000     StdAfx.obj
 0004:fffd2000       $pdata$4$?Term@CAtlComModule@ATL@@QEAAXXZ 0000000180000000     StdAfx.obj
 0002:fffde000       $unwind$??1CAtlWinModule@ATL@@QEAA@XZ 0000000180000000     mfcs120:dllmodulx.obj
 0004:fffd2000       $pdata$??0CAtlWinModule@ATL@@QEAA@XZ 0000000180000000     mfcs120:dllmodulx.obj
 0002:fffde000       $unwind$??0CAtlWinModule@ATL@@QEAA@XZ 0000000180000000     mfcs120:dllmodulx.obj
 0000:fffcd000       .debug$S                   0000000180000000     oleaut32:OLEAUT32.dll
 0002:fffde000       $unwind$??0CAtlWinModule@ATL@@QEAA@XZ 0000000180000000     StdAfx.obj
 0004:fffd2000       $pdata$??0CAtlWinModule@ATL@@QEAA@XZ 0000000180000000     StdAfx.obj
 0002:fffde000       $unwind$??1CAtlWinModule@ATL@@QEAA@XZ 0000000180000000     StdAfx.obj
 0004:fffd2000       $pdata$??1CAtlWinModule@ATL@@QEAA@XZ 0000000180000000     StdAfx.obj
 0004:fffd2000       $pdata$?Term@CAtlComModule@ATL@@QEAAXXZ 0000000180000000     mfcs120:dllmodulx.obj
 0002:fffde000       $unwind$?Term@CAtlComModule@ATL@@QEAAXXZ 0000000180000000     mfcs120:dllmodulx.obj
 0004:fffd2000       $pdata$??0CAtlComModule@ATL@@QEAA@XZ 0000000180000000     mfcs120:dllmodulx.obj
 0000:fffcd000       .debug$S                   0000000180000000     oleaut32:OLEAUT32.dll
 0002:fffde000       $unwind$?GetInstance@CAtlStringMgr@ATL@@SAPEAUIAtlStringMgr@2@XZ 0000000180000000     StdAfx.obj
 0004:fffd2000       $pdata$?GetInstance@CAtlStringMgr@ATL@@SAPEAUIAtlStringMgr@2@XZ 0000000180000000     StdAfx.obj
 0002:fffde000       $unwind$?Allocate@CAtlStringMgr@ATL@@UEAAPEAUCStringData@2@HH@Z 0000000180000000     StdAfx.obj
 0004:fffd2000       $pdata$?Allocate@CAtlStringMgr@ATL@@UEAAPEAUCStringData@2@HH@Z 0000000180000000     StdAfx.obj
 0002:fffde000       $chain$0$?Allocate@CAtlStringMgr@ATL@@UEAAPEAUCStringData@2@HH@Z 0000000180000000     StdAfx.obj
 0004:fffd2000       $pdata$0$?Allocate@CAtlStringMgr@ATL@@UEAAPEAUCStringData@2@HH@Z 0000000180000000     StdAfx.obj
 0002:fffde000       $chain$2$?Allocate@CAtlStringMgr@ATL@@UEAAPEAUCStringData@2@HH@Z 0000000180000000     StdAfx.obj
 0004:fffd2000       $pdata$2$?Allocate@CAtlStringMgr@ATL@@UEAAPEAUCStringData@2@HH@Z 0000000180000000     StdAfx.obj
 0002:fffde000       $unwind$?Reallocate@CAtlStringMgr@ATL@@UEAAPEAUCStringData@2@PEAU32@HH@Z 0000000180000000     StdAfx.obj
 0004:fffd2000       $pdata$?Reallocate@CAtlStringMgr@ATL@@UEAAPEAUCStringData@2@PEAU32@HH@Z 0000000180000000     StdAfx.obj
 0002:fffde000       $chain$0$?Reallocate@CAtlStringMgr@ATL@@UEAAPEAUCStringData@2@PEAU32@HH@Z 0000000180000000     StdAfx.obj
 0004:fffd2000       $pdata$0$?Reallocate@CAtlStringMgr@ATL@@UEAAPEAUCStringData@2@PEAU32@HH@Z 0000000180000000     StdAfx.obj
 0002:fffde000       $chain$2$?Reallocate@CAtlStringMgr@ATL@@UEAAPEAUCStringData@2@PEAU32@HH@Z 0000000180000000     StdAfx.obj
 0004:fffd2000       $pdata$2$?Reallocate@CAtlStringMgr@ATL@@UEAAPEAUCStringData@2@PEAU32@HH@Z 0000000180000000     StdAfx.obj
 0002:fffde000       $unwind$?StaticInitialize@CAtlStringMgr@ATL@@CA_NXZ 0000000180000000     StdAfx.obj
 0004:fffd2000       $pdata$?StaticInitialize@CAtlStringMgr@ATL@@CA_NXZ 0000000180000000     StdAfx.obj
 0002:fffde000       $unwind$??_GCAtlStringMgr@ATL@@UEAAPEAXI@Z 0000000180000000     StdAfx.obj
 0004:fffd2000       $pdata$??_GCAtlStringMgr@ATL@@UEAAPEAXI@Z 0000000180000000     StdAfx.obj
 0002:fffde000       $unwind$??0CAtlComModule@ATL@@QEAA@XZ 0000000180000000     mfcs120:dllmodulx.obj
 0004:fffd2000       $pdata$?AtlWinModuleTerm@ATL@@YAJPEAU_ATL_WIN_MODULE70@1@PEAUHINSTANCE__@@@Z 0000000180000000     mfcs120:dllmodulx.obj
 0002:fffde000       _AtlComModule$initializer$ 0000000180000000     StdAfx.obj
 0002:fffde000       _AtlWinModule$initializer$ 0000000180000000     StdAfx.obj
 0002:fffde000       ?isInitialized$initializer$@CAtlStringMgr@ATL@@0P6AXXZEA 0000000180000000     StdAfx.obj
 0004:fffd2000       $pdata$0$??$_Destroy_range@U?$_Wrap_alloc@V?$allocator@V?$basic_string@DU?$char_traits@D@std@@V?$allocator@D@2@@std@@@std@@@std@@@std@@YAXPEAV?$basic_string@DU?$char_traits@D@std@@V?$allocator@D@2@@0@0AEAU?$_Wrap_alloc@V?$allocator@V?$basic_string@DU?$char_traits@D@std@@V?$allocator@D@2@@std@@@std@@@0@U_Nonscalar_ptr_iterator_tag@0@@Z 0000000180000000     Global.obj
 0002:fffde000       $chain$1$??$_Destroy_range@U?$_Wrap_alloc@V?$allocator@V?$basic_string@DU?$char_traits@D@std@@V?$allocator@D@2@@std@@@std@@@std@@@std@@YAXPEAV?$basic_string@DU?$char_traits@D@std@@V?$allocator@D@2@@0@0AEAU?$_Wrap_alloc@V?$allocator@V?$basic_string@DU?$char_traits@D@std@@V?$allocator@D@2@@std@@@std@@@0@U_Nonscalar_ptr_iterator_tag@0@@Z 0000000180000000     Global.obj
 0004:fffd2000       $pdata$1$??$_Destroy_range@U?$_Wrap_alloc@V?$allocator@V?$basic_string@DU?$char_traits@D@std@@V?$allocator@D@2@@std@@@std@@@std@@@std@@YAXPEAV?$basic_string@DU?$char_traits@D@std@@V?$allocator@D@2@@0@0AEAU?$_Wrap_alloc@V?$allocator@V?$basic_string@DU?$char_traits@D@std@@V?$allocator@D@2@@std@@@std@@@0@U_Nonscalar_ptr_iterator_tag@0@@Z 0000000180000000     Global.obj
 0002:fffde000       $unwind$??$construct@V?$basic_string@DU?$char_traits@D@std@@V?$allocator@D@2@@std@@V12@@?$allocator@V?$basic_string@DU?$char_traits@D@std@@V?$allocator@D@2@@std@@@std@@QEAAXPEAV?$basic_string@DU?$char_traits@D@std@@V?$allocator@D@2@@1@$$QEAV21@@Z 0000000180000000     Global.obj
 0004:fffd2000       $pdata$??$construct@V?$basic_string@DU?$char_traits@D@std@@V?$allocator@D@2@@std@@V12@@?$allocator@V?$basic_string@DU?$char_traits@D@std@@V?$allocator@D@2@@std@@@std@@QEAAXPEAV?$basic_string@DU?$char_traits@D@std@@V?$allocator@D@2@@1@$$QEAV21@@Z 0000000180000000     Global.obj
 0002:fffde000       $unwind$?Init@CComCriticalSection@ATL@@QEAAJXZ 0000000180000000     SafeLock.obj
 0004:fffd2000       $pdata$?Init@CComCriticalSection@ATL@@QEAAJXZ 0000000180000000     SafeLock.obj
 0002:fffde000       $unwind$?Term@CComCriticalSection@ATL@@QEAAJXZ 0000000180000000     SafeLock.obj
 0004:fffd2000       $pdata$?Term@CComCriticalSection@ATL@@QEAAJXZ 0000000180000000     SafeLock.obj
 0002:fffde000       $unwind$?Reallocate@CWin32Heap@ATL@@UEAAPEAXPEAX_K@Z 0000000180000000     SafeLock.obj
 0004:fffd2000       $pdata$?Reallocate@CWin32Heap@ATL@@UEAAPEAXPEAX_K@Z 0000000180000000     SafeLock.obj
 0002:fffde000       $unwind$??_GCWin32Heap@ATL@@UEAAPEAXI@Z 0000000180000000     SafeLock.obj
 0004:fffd2000       $pdata$??_GCWin32Heap@ATL@@UEAAPEAXI@Z 0000000180000000     SafeLock.obj
 0002:fffde000       $unwind$??1?$CSimpleArray@GV?$CSimpleArrayEqualHelper@G@ATL@@@ATL@@QEAA@XZ 0000000180000000     SafeLock.obj
 0004:fffd2000       $pdata$??1?$CSimpleArray@GV?$CSimpleArrayEqualHelper@G@ATL@@@ATL@@QEAA@XZ 0000000180000000     SafeLock.obj
 0002:fffde000       $unwind$?RemoveAll@?$CSimpleArray@GV?$CSimpleArrayEqualHelper@G@ATL@@@ATL@@QEAAXXZ 0000000180000000     SafeLock.obj
 0004:fffd2000       $pdata$?RemoveAll@?$CSimpleArray@GV?$CSimpleArrayEqualHelper@G@ATL@@@ATL@@QEAAXXZ 0000000180000000     SafeLock.obj
 0002:fffde000       $unwind$??A?$CSimpleArray@GV?$CSimpleArrayEqualHelper@G@ATL@@@ATL@@QEAAAEAGH@Z 0000000180000000     SafeLock.obj
 0004:fffd2000       $pdata$??A?$CSimpleArray@GV?$CSimpleArrayEqualHelper@G@ATL@@@ATL@@QEAAAEAGH@Z 0000000180000000     SafeLock.obj
 0002:fffde000       $unwind$??1_ATL_WIN_MODULE70@ATL@@QEAA@XZ 0000000180000000     SafeLock.obj
 0004:fffd2000       $pdata$??1_ATL_WIN_MODULE70@ATL@@QEAA@XZ 0000000180000000     SafeLock.obj
 0002:fffde000       $unwind$?AtlWinModuleInit@ATL@@YAJPEAU_ATL_WIN_MODULE70@1@@Z 0000000180000000     SafeLock.obj
 0004:fffd2000       $pdata$?AtlWinModuleInit@ATL@@YAJPEAU_ATL_WIN_MODULE70@1@@Z 0000000180000000     SafeLock.obj
 0002:fffde000       $chain$0$?AtlWinModuleInit@ATL@@YAJPEAU_ATL_WIN_MODULE70@1@@Z 0000000180000000     SafeLock.obj
 0004:fffd2000       $pdata$0$?AtlWinModuleInit@ATL@@YAJPEAU_ATL_WIN_MODULE70@1@@Z 0000000180000000     SafeLock.obj
 0002:fffde000       $chain$2$?AtlWinModuleInit@ATL@@YAJPEAU_ATL_WIN_MODULE70@1@@Z 0000000180000000     SafeLock.obj
 0004:fffd2000       $pdata$2$?AtlWinModuleInit@ATL@@YAJPEAU_ATL_WIN_MODULE70@1@@Z 0000000180000000     SafeLock.obj
 0002:fffde000       $unwind$?AtlWinModuleTerm@ATL@@YAJPEAU_ATL_WIN_MODULE70@1@PEAUHINSTANCE__@@@Z 0000000180000000     SafeLock.obj
 0004:fffd2000       $pdata$?AtlWinModuleTerm@ATL@@YAJPEAU_ATL_WIN_MODULE70@1@PEAUHINSTANCE__@@@Z 0000000180000000     SafeLock.obj
 0002:fffde000       $chain$2$?AtlWinModuleTerm@ATL@@YAJPEAU_ATL_WIN_MODULE70@1@PEAUHINSTANCE__@@@Z 0000000180000000     SafeLock.obj
 0004:fffd2000       $pdata$2$?AtlWinModuleTerm@ATL@@YAJPEAU_ATL_WIN_MODULE70@1@PEAUHINSTANCE__@@@Z 0000000180000000     SafeLock.obj
 0002:fffde000       $chain$3$?AtlWinModuleTerm@ATL@@YAJPEAU_ATL_WIN_MODULE70@1@PEAUHINSTANCE__@@@Z 0000000180000000     SafeLock.obj
 0004:fffd2000       $pdata$3$?AtlWinModuleTerm@ATL@@YAJPEAU_ATL_WIN_MODULE70@1@PEAUHINSTANCE__@@@Z 0000000180000000     SafeLock.obj
 0002:fffde000       $chain$4$?AtlWinModuleTerm@ATL@@YAJPEAU_ATL_WIN_MODULE70@1@PEAUHINSTANCE__@@@Z 0000000180000000     SafeLock.obj
 0004:fffd2000       $pdata$4$?AtlWinModuleTerm@ATL@@YAJPEAU_ATL_WIN_MODULE70@1@PEAUHINSTANCE__@@@Z 0000000180000000     SafeLock.obj
 0002:fffde000       $unwind$??0CAtlComModule@ATL@@QEAA@XZ 0000000180000000     SafeLock.obj
 0004:fffd2000       $pdata$??0CAtlComModule@ATL@@QEAA@XZ 0000000180000000     SafeLock.obj
 0002:fffde000       $unwind$?Term@CAtlComModule@ATL@@QEAAXXZ 0000000180000000     SafeLock.obj
 0004:fffd2000       $pdata$?Term@CAtlComModule@ATL@@QEAAXXZ 0000000180000000     SafeLock.obj
 0002:fffde000       $chain$1$?Term@CAtlComModule@ATL@@QEAAXXZ 0000000180000000     SafeLock.obj
 0004:fffd2000       $pdata$1$?Term@CAtlComModule@ATL@@QEAAXXZ 0000000180000000     SafeLock.obj
 0002:fffde000       $chain$2$?Term@CAtlComModule@ATL@@QEAAXXZ 0000000180000000     SafeLock.obj
 0004:fffd2000       $pdata$2$?Term@CAtlComModule@ATL@@QEAAXXZ 0000000180000000     SafeLock.obj
 0002:fffde000       $chain$3$?Term@CAtlComModule@ATL@@QEAAXXZ 0000000180000000     SafeLock.obj
 0004:fffd2000       $pdata$3$?Term@CAtlComModule@ATL@@QEAAXXZ 0000000180000000     SafeLock.obj
 0002:fffde000       $chain$4$?Term@CAtlComModule@ATL@@QEAAXXZ 0000000180000000     SafeLock.obj
 0004:fffd2000       $pdata$4$?Term@CAtlComModule@ATL@@QEAAXXZ 0000000180000000     SafeLock.obj
 0002:fffde000       $unwind$?AtlWinModuleTerm@ATL@@YAJPEAU_ATL_WIN_MODULE70@1@PEAUHINSTANCE__@@@Z 0000000180000000     mfcs120:dllmodulx.obj
 0004:fffd2000       $pdata$?AtlWinModuleInit@ATL@@YAJPEAU_ATL_WIN_MODULE70@1@@Z 0000000180000000     mfcs120:dllmodulx.obj
 0002:fffde000       $unwind$?AtlWinModuleInit@ATL@@YAJPEAU_ATL_WIN_MODULE70@1@@Z 0000000180000000     mfcs120:dllmodulx.obj
 0000:fffcd000       .debug$S                   0000000180000000     oleaut32:OLEAUT32.dll
 0002:fffde000       $unwind$??0CAtlWinModule@ATL@@QEAA@XZ 0000000180000000     SafeLock.obj
 0004:fffd2000       $pdata$??0CAtlWinModule@ATL@@QEAA@XZ 0000000180000000     SafeLock.obj
 0002:fffde000       $unwind$??1CAtlWinModule@ATL@@QEAA@XZ 0000000180000000     SafeLock.obj
 0004:fffd2000       $pdata$??1CAtlWinModule@ATL@@QEAA@XZ 0000000180000000     SafeLock.obj
 0004:fffd2000       $pdata$??1_ATL_WIN_MODULE70@ATL@@QEAA@XZ 0000000180000000     mfcs120:dllmodulx.obj
 0002:fffde000       $unwind$??1_ATL_WIN_MODULE70@ATL@@QEAA@XZ 0000000180000000     mfcs120:dllmodulx.obj
 0004:fffd2000       $pdata$??0_ATL_WIN_MODULE70@ATL@@QEAA@XZ 0000000180000000     mfcs120:dllmodulx.obj
 0002:fffde000       $unwind$??0_ATL_WIN_MODULE70@ATL@@QEAA@XZ 0000000180000000     mfcs120:dllmodulx.obj
 0002:fffde000       $unwind$?GetInstance@CAtlStringMgr@ATL@@SAPEAUIAtlStringMgr@2@XZ 0000000180000000     SafeLock.obj
 0004:fffd2000       $pdata$?GetInstance@CAtlStringMgr@ATL@@SAPEAUIAtlStringMgr@2@XZ 0000000180000000     SafeLock.obj
 0002:fffde000       $unwind$?Allocate@CAtlStringMgr@ATL@@UEAAPEAUCStringData@2@HH@Z 0000000180000000     SafeLock.obj
 0004:fffd2000       $pdata$?Allocate@CAtlStringMgr@ATL@@UEAAPEAUCStringData@2@HH@Z 0000000180000000     SafeLock.obj
 0002:fffde000       $chain$0$?Allocate@CAtlStringMgr@ATL@@UEAAPEAUCStringData@2@HH@Z 0000000180000000     SafeLock.obj
 0004:fffd2000       $pdata$0$?Allocate@CAtlStringMgr@ATL@@UEAAPEAUCStringData@2@HH@Z 0000000180000000     SafeLock.obj
 0002:fffde000       $chain$2$?Allocate@CAtlStringMgr@ATL@@UEAAPEAUCStringData@2@HH@Z 0000000180000000     SafeLock.obj
 0004:fffd2000       $pdata$2$?Allocate@CAtlStringMgr@ATL@@UEAAPEAUCStringData@2@HH@Z 0000000180000000     SafeLock.obj
 0002:fffde000       $unwind$?Reallocate@CAtlStringMgr@ATL@@UEAAPEAUCStringData@2@PEAU32@HH@Z 0000000180000000     SafeLock.obj
 0004:fffd2000       $pdata$?Reallocate@CAtlStringMgr@ATL@@UEAAPEAUCStringData@2@PEAU32@HH@Z 0000000180000000     SafeLock.obj
 0002:fffde000       $chain$0$?Reallocate@CAtlStringMgr@ATL@@UEAAPEAUCStringData@2@PEAU32@HH@Z 0000000180000000     SafeLock.obj
 0004:fffd2000       $pdata$0$?Reallocate@CAtlStringMgr@ATL@@UEAAPEAUCStringData@2@PEAU32@HH@Z 0000000180000000     SafeLock.obj
 0002:fffde000       $chain$2$?Reallocate@CAtlStringMgr@ATL@@UEAAPEAUCStringData@2@PEAU32@HH@Z 0000000180000000     SafeLock.obj
 0004:fffd2000       $pdata$2$?Reallocate@CAtlStringMgr@ATL@@UEAAPEAUCStringData@2@PEAU32@HH@Z 0000000180000000     SafeLock.obj
 0002:fffde000       $unwind$?StaticInitialize@CAtlStringMgr@ATL@@CA_NXZ 0000000180000000     SafeLock.obj
 0004:fffd2000       $pdata$?StaticInitialize@CAtlStringMgr@ATL@@CA_NXZ 0000000180000000     SafeLock.obj
 0002:fffde000       $unwind$??_GCAtlStringMgr@ATL@@UEAAPEAXI@Z 0000000180000000     SafeLock.obj
 0004:fffd2000       $pdata$??_GCAtlStringMgr@ATL@@UEAAPEAXI@Z 0000000180000000     SafeLock.obj
 0004:fffd2000       $pdata$??A?$CSimpleArray@GV?$CSimpleArrayEqualHelper@G@ATL@@@ATL@@QEAAAEAGH@Z 0000000180000000     mfcs120:dllmodulx.obj
 0002:fffde000       $unwind$??A?$CSimpleArray@GV?$CSimpleArrayEqualHelper@G@ATL@@@ATL@@QEAAAEAGH@Z 0000000180000000     mfcs120:dllmodulx.obj
 0004:fffd2000       $pdata$?RemoveAll@?$CSimpleArray@GV?$CSimpleArrayEqualHelper@G@ATL@@@ATL@@QEAAXXZ 0000000180000000     mfcs120:dllmodulx.obj
 0002:fffde000       $unwind$??$_Uninit_move@PEAV?$basic_string@DU?$char_traits@D@std@@V?$allocator@D@2@@std@@PEAV12@U?$_Wrap_alloc@V?$allocator@V?$basic_string@DU?$char_traits@D@std@@V?$allocator@D@2@@std@@@std@@@2@@std@@YAPEAV?$basic_string@DU?$char_traits@D@std@@V?$allocator@D@2@@0@PEAV10@00AEAU?$_Wrap_alloc@V?$allocator@V?$basic_string@DU?$char_traits@D@std@@V?$allocator@D@2@@std@@@std@@@0@@Z 0000000180000000     Global.obj
 0002:fffde000       $unwind$?RemoveAll@?$CSimpleArray@GV?$CSimpleArrayEqualHelper@G@ATL@@@ATL@@QEAAXXZ 0000000180000000     mfcs120:dllmodulx.obj
 0004:fffd2000       $pdata$??1?$CSimpleArray@GV?$CSimpleArrayEqualHelper@G@ATL@@@ATL@@QEAA@XZ 0000000180000000     mfcs120:dllmodulx.obj
 0002:fffde000       $unwind$??1?$CSimpleArray@GV?$CSimpleArrayEqualHelper@G@ATL@@@ATL@@QEAA@XZ 0000000180000000     mfcs120:dllmodulx.obj
 0004:fffd2000       $pdata$??0_ATL_COM_MODULE70@ATL@@QEAA@XZ 0000000180000000     mfcs120:dllmodulx.obj
 0002:fffde000       _AtlComModule$initializer$ 0000000180000000     SafeLock.obj
 0002:fffde000       _AtlWinModule$initializer$ 0000000180000000     SafeLock.obj
 0002:fffde000       ?isInitialized$initializer$@CAtlStringMgr@ATL@@0P6AXXZEA 0000000180000000     SafeLock.obj
 0004:fffd2000       $pdata$??$_Uninit_move@PEAV?$basic_string@DU?$char_traits@D@std@@V?$allocator@D@2@@std@@PEAV12@U?$_Wrap_alloc@V?$allocator@V?$basic_string@DU?$char_traits@D@std@@V?$allocator@D@2@@std@@@std@@@2@@std@@YAPEAV?$basic_string@DU?$char_traits@D@std@@V?$allocator@D@2@@0@PEAV10@00AEAU?$_Wrap_alloc@V?$allocator@V?$basic_string@DU?$char_traits@D@std@@V?$allocator@D@2@@std@@@std@@@0@@Z 0000000180000000     Global.obj
 0002:fffde000       $unwind$??$destroy@V?$basic_string@DU?$char_traits@D@std@@V?$allocator@D@2@@std@@@?$_Wrap_alloc@V?$allocator@V?$basic_string@DU?$char_traits@D@std@@V?$allocator@D@2@@std@@@std@@@std@@QEAAXPEAV?$basic_string@DU?$char_traits@D@std@@V?$allocator@D@2@@1@@Z 0000000180000000     Global.obj
 0004:fffd2000       $pdata$??$destroy@V?$basic_string@DU?$char_traits@D@std@@V?$allocator@D@2@@std@@@?$_Wrap_alloc@V?$allocator@V?$basic_string@DU?$char_traits@D@std@@V?$allocator@D@2@@std@@@std@@@std@@QEAAXPEAV?$basic_string@DU?$char_traits@D@std@@V?$allocator@D@2@@1@@Z 0000000180000000     Global.obj
 0002:fffde000       $unwind$??$_Uninit_move@PEAV?$basic_string@DU?$char_traits@D@std@@V?$allocator@D@2@@std@@PEAV12@V?$allocator@V?$basic_string@DU?$char_traits@D@std@@V?$allocator@D@2@@std@@@2@V12@@std@@YAPEAV?$basic_string@DU?$char_traits@D@std@@V?$allocator@D@2@@0@PEAV10@00AEAU?$_Wrap_alloc@V?$allocator@V?$basic_string@DU?$char_traits@D@std@@V?$allocator@D@2@@std@@@std@@@0@0U_Nonscalar_ptr_iterator_tag@0@@Z 0000000180000000     Global.obj
 0004:fffd2000       $pdata$??$_Uninit_move@PEAV?$basic_string@DU?$char_traits@D@std@@V?$allocator@D@2@@std@@PEAV12@V?$allocator@V?$basic_string@DU?$char_traits@D@std@@V?$allocator@D@2@@std@@@2@V12@@std@@YAPEAV?$basic_string@DU?$char_traits@D@std@@V?$allocator@D@2@@0@PEAV10@00AEAU?$_Wrap_alloc@V?$allocator@V?$basic_string@DU?$char_traits@D@std@@V?$allocator@D@2@@std@@@std@@@0@0U_Nonscalar_ptr_iterator_tag@0@@Z 0000000180000000     Global.obj
 0002:fffde000       $unwind$?Init@CComCriticalSection@ATL@@QEAAJXZ 0000000180000000     md5.obj
 0004:fffd2000       $pdata$?Init@CComCriticalSection@ATL@@QEAAJXZ 0000000180000000     md5.obj
 0002:fffde000       $unwind$?Term@CComCriticalSection@ATL@@QEAAJXZ 0000000180000000     md5.obj
 0004:fffd2000       $pdata$?Term@CComCriticalSection@ATL@@QEAAJXZ 0000000180000000     md5.obj
 0002:fffde000       $unwind$?Reallocate@CWin32Heap@ATL@@UEAAPEAXPEAX_K@Z 0000000180000000     md5.obj
 0004:fffd2000       $pdata$?Reallocate@CWin32Heap@ATL@@UEAAPEAXPEAX_K@Z 0000000180000000     md5.obj
 0002:fffde000       $unwind$??_GCWin32Heap@ATL@@UEAAPEAXI@Z 0000000180000000     md5.obj
 0004:fffd2000       $pdata$??_GCWin32Heap@ATL@@UEAAPEAXI@Z 0000000180000000     md5.obj
 0002:fffde000       $unwind$??1?$CSimpleArray@GV?$CSimpleArrayEqualHelper@G@ATL@@@ATL@@QEAA@XZ 0000000180000000     md5.obj
 0004:fffd2000       $pdata$??1?$CSimpleArray@GV?$CSimpleArrayEqualHelper@G@ATL@@@ATL@@QEAA@XZ 0000000180000000     md5.obj
 0002:fffde000       $unwind$?RemoveAll@?$CSimpleArray@GV?$CSimpleArrayEqualHelper@G@ATL@@@ATL@@QEAAXXZ 0000000180000000     md5.obj
 0004:fffd2000       $pdata$?RemoveAll@?$CSimpleArray@GV?$CSimpleArrayEqualHelper@G@ATL@@@ATL@@QEAAXXZ 0000000180000000     md5.obj
 0002:fffde000       $unwind$??A?$CSimpleArray@GV?$CSimpleArrayEqualHelper@G@ATL@@@ATL@@QEAAAEAGH@Z 0000000180000000     md5.obj
 0004:fffd2000       $pdata$??A?$CSimpleArray@GV?$CSimpleArrayEqualHelper@G@ATL@@@ATL@@QEAAAEAGH@Z 0000000180000000     md5.obj
 0002:fffde000       $unwind$??1_ATL_WIN_MODULE70@ATL@@QEAA@XZ 0000000180000000     md5.obj
 0004:fffd2000       $pdata$??1_ATL_WIN_MODULE70@ATL@@QEAA@XZ 0000000180000000     md5.obj
 0002:fffde000       $unwind$?AtlWinModuleInit@ATL@@YAJPEAU_ATL_WIN_MODULE70@1@@Z 0000000180000000     md5.obj
 0004:fffd2000       $pdata$?AtlWinModuleInit@ATL@@YAJPEAU_ATL_WIN_MODULE70@1@@Z 0000000180000000     md5.obj
 0002:fffde000       $chain$0$?AtlWinModuleInit@ATL@@YAJPEAU_ATL_WIN_MODULE70@1@@Z 0000000180000000     md5.obj
 0004:fffd2000       $pdata$0$?AtlWinModuleInit@ATL@@YAJPEAU_ATL_WIN_MODULE70@1@@Z 0000000180000000     md5.obj
 0002:fffde000       $chain$2$?AtlWinModuleInit@ATL@@YAJPEAU_ATL_WIN_MODULE70@1@@Z 0000000180000000     md5.obj
 0004:fffd2000       $pdata$2$?AtlWinModuleInit@ATL@@YAJPEAU_ATL_WIN_MODULE70@1@@Z 0000000180000000     md5.obj
 0002:fffde000       $unwind$?AtlWinModuleTerm@ATL@@YAJPEAU_ATL_WIN_MODULE70@1@PEAUHINSTANCE__@@@Z 0000000180000000     md5.obj
 0004:fffd2000       $pdata$?AtlWinModuleTerm@ATL@@YAJPEAU_ATL_WIN_MODULE70@1@PEAUHINSTANCE__@@@Z 0000000180000000     md5.obj
 0002:fffde000       $chain$2$?AtlWinModuleTerm@ATL@@YAJPEAU_ATL_WIN_MODULE70@1@PEAUHINSTANCE__@@@Z 0000000180000000     md5.obj
 0004:fffd2000       $pdata$2$?AtlWinModuleTerm@ATL@@YAJPEAU_ATL_WIN_MODULE70@1@PEAUHINSTANCE__@@@Z 0000000180000000     md5.obj
 0002:fffde000       $chain$3$?AtlWinModuleTerm@ATL@@YAJPEAU_ATL_WIN_MODULE70@1@PEAUHINSTANCE__@@@Z 0000000180000000     md5.obj
 0004:fffd2000       $pdata$3$?AtlWinModuleTerm@ATL@@YAJPEAU_ATL_WIN_MODULE70@1@PEAUHINSTANCE__@@@Z 0000000180000000     md5.obj
 0002:fffde000       $chain$4$?AtlWinModuleTerm@ATL@@YAJPEAU_ATL_WIN_MODULE70@1@PEAUHINSTANCE__@@@Z 0000000180000000     md5.obj
 0004:fffd2000       $pdata$4$?AtlWinModuleTerm@ATL@@YAJPEAU_ATL_WIN_MODULE70@1@PEAUHINSTANCE__@@@Z 0000000180000000     md5.obj
 0002:fffde000       $unwind$??0CAtlComModule@ATL@@QEAA@XZ 0000000180000000     md5.obj
 0004:fffd2000       $pdata$??0CAtlComModule@ATL@@QEAA@XZ 0000000180000000     md5.obj
 0002:fffde000       $unwind$?Term@CAtlComModule@ATL@@QEAAXXZ 0000000180000000     md5.obj
 0004:fffd2000       $pdata$?Term@CAtlComModule@ATL@@QEAAXXZ 0000000180000000     md5.obj
 0002:fffde000       $chain$1$?Term@CAtlComModule@ATL@@QEAAXXZ 0000000180000000     md5.obj
 0004:fffd2000       $pdata$1$?Term@CAtlComModule@ATL@@QEAAXXZ 0000000180000000     md5.obj
 0002:fffde000       $chain$2$?Term@CAtlComModule@ATL@@QEAAXXZ 0000000180000000     md5.obj
 0004:fffd2000       $pdata$2$?Term@CAtlComModule@ATL@@QEAAXXZ 0000000180000000     md5.obj
 0002:fffde000       $chain$3$?Term@CAtlComModule@ATL@@QEAAXXZ 0000000180000000     md5.obj
 0004:fffd2000       $pdata$3$?Term@CAtlComModule@ATL@@QEAAXXZ 0000000180000000     md5.obj
 0002:fffde000       $chain$4$?Term@CAtlComModule@ATL@@QEAAXXZ 0000000180000000     md5.obj
 0004:fffd2000       $pdata$4$?Term@CAtlComModule@ATL@@QEAAXXZ 0000000180000000     md5.obj
 0002:fffde000       $unwind$??0_ATL_COM_MODULE70@ATL@@QEAA@XZ 0000000180000000     mfcs120:dllmodulx.obj
 0004:fffd2000       $pdata$??_GCWin32Heap@ATL@@UEAAPEAXI@Z 0000000180000000     mfcs120:dllmodulx.obj
 0002:fffde000       $unwind$??_GCWin32Heap@ATL@@UEAAPEAXI@Z 0000000180000000     mfcs120:dllmodulx.obj
 0004:fffd2000       $pdata$?Reallocate@CWin32Heap@ATL@@UEAAPEAXPEAX_K@Z 0000000180000000     mfcs120:dllmodulx.obj
 0002:fffde000       $unwind$??0CAtlWinModule@ATL@@QEAA@XZ 0000000180000000     md5.obj
 0004:fffd2000       $pdata$??0CAtlWinModule@ATL@@QEAA@XZ 0000000180000000     md5.obj
 0002:fffde000       $unwind$??1CAtlWinModule@ATL@@QEAA@XZ 0000000180000000     md5.obj
 0004:fffd2000       $pdata$??1CAtlWinModule@ATL@@QEAA@XZ 0000000180000000     md5.obj
 0002:fffde000       $unwind$?Reallocate@CWin32Heap@ATL@@UEAAPEAXPEAX_K@Z 0000000180000000     mfcs120:dllmodulx.obj
 0004:fffd2000       $pdata$?Free@CWin32Heap@ATL@@UEAAXPEAX@Z 0000000180000000     mfcs120:dllmodulx.obj
 0002:fffde000       $unwind$?Free@CWin32Heap@ATL@@UEAAXPEAX@Z 0000000180000000     mfcs120:dllmodulx.obj
 0004:fffd2000       $pdata$??1CWin32Heap@ATL@@UEAA@XZ 0000000180000000     mfcs120:dllmodulx.obj
 0002:fffde000       $unwind$?GetInstance@CAtlStringMgr@ATL@@SAPEAUIAtlStringMgr@2@XZ 0000000180000000     md5.obj
 0004:fffd2000       $pdata$?GetInstance@CAtlStringMgr@ATL@@SAPEAUIAtlStringMgr@2@XZ 0000000180000000     md5.obj
 0002:fffde000       $unwind$?Allocate@CAtlStringMgr@ATL@@UEAAPEAUCStringData@2@HH@Z 0000000180000000     md5.obj
 0004:fffd2000       $pdata$?Allocate@CAtlStringMgr@ATL@@UEAAPEAUCStringData@2@HH@Z 0000000180000000     md5.obj
 0002:fffde000       $chain$0$?Allocate@CAtlStringMgr@ATL@@UEAAPEAUCStringData@2@HH@Z 0000000180000000     md5.obj
 0004:fffd2000       $pdata$0$?Allocate@CAtlStringMgr@ATL@@UEAAPEAUCStringData@2@HH@Z 0000000180000000     md5.obj
 0002:fffde000       $chain$2$?Allocate@CAtlStringMgr@ATL@@UEAAPEAUCStringData@2@HH@Z 0000000180000000     md5.obj
 0004:fffd2000       $pdata$2$?Allocate@CAtlStringMgr@ATL@@UEAAPEAUCStringData@2@HH@Z 0000000180000000     md5.obj
 0002:fffde000       $unwind$?Reallocate@CAtlStringMgr@ATL@@UEAAPEAUCStringData@2@PEAU32@HH@Z 0000000180000000     md5.obj
 0004:fffd2000       $pdata$?Reallocate@CAtlStringMgr@ATL@@UEAAPEAUCStringData@2@PEAU32@HH@Z 0000000180000000     md5.obj
 0002:fffde000       $chain$0$?Reallocate@CAtlStringMgr@ATL@@UEAAPEAUCStringData@2@PEAU32@HH@Z 0000000180000000     md5.obj
 0004:fffd2000       $pdata$0$?Reallocate@CAtlStringMgr@ATL@@UEAAPEAUCStringData@2@PEAU32@HH@Z 0000000180000000     md5.obj
 0002:fffde000       $chain$2$?Reallocate@CAtlStringMgr@ATL@@UEAAPEAUCStringData@2@PEAU32@HH@Z 0000000180000000     md5.obj
 0004:fffd2000       $pdata$2$?Reallocate@CAtlStringMgr@ATL@@UEAAPEAUCStringData@2@PEAU32@HH@Z 0000000180000000     md5.obj
 0002:fffde000       $unwind$?StaticInitialize@CAtlStringMgr@ATL@@CA_NXZ 0000000180000000     md5.obj
 0004:fffd2000       $pdata$?StaticInitialize@CAtlStringMgr@ATL@@CA_NXZ 0000000180000000     md5.obj
 0002:fffde000       $unwind$??_GCAtlStringMgr@ATL@@UEAAPEAXI@Z 0000000180000000     md5.obj
 0004:fffd2000       $pdata$??_GCAtlStringMgr@ATL@@UEAAPEAXI@Z 0000000180000000     md5.obj
 0002:fffde000       $unwind$??1CWin32Heap@ATL@@UEAA@XZ 0000000180000000     mfcs120:dllmodulx.obj
 0004:fffd2000       $pdata$?Term@CComCriticalSection@ATL@@QEAAJXZ 0000000180000000     mfcs120:dllmodulx.obj
 0002:fffde000       $unwind$?Term@CComCriticalSection@ATL@@QEAAJXZ 0000000180000000     mfcs120:dllmodulx.obj
 0004:fffd2000       $pdata$?Init@CComCriticalSection@ATL@@QEAAJXZ 0000000180000000     mfcs120:dllmodulx.obj
 0002:fffde000       $unwind$?Init@CComCriticalSection@ATL@@QEAAJXZ 0000000180000000     mfcs120:dllmodulx.obj
 0004:fffd2000       $pdata$??0CComCriticalSection@ATL@@QEAA@XZ 0000000180000000     mfcs120:dllmodulx.obj
 0002:fffde000       $unwind$??0CComCriticalSection@ATL@@QEAA@XZ 0000000180000000     mfcs120:dllmodulx.obj
 0004:fffd2000       $pdata$IsolationAwareUnregisterClassA$fin$0 0000000180000000     mfcs120:dllmodulx.obj
 0002:fffde000       $unwind$IsolationAwareUnregisterClassA$fin$0 0000000180000000     mfcs120:dllmodulx.obj
 0004:fffd2000       $pdata$IsolationAwareUnregisterClassA 0000000180000000     mfcs120:dllmodulx.obj
 0002:fffde000       $unwind$IsolationAwareUnregisterClassA 0000000180000000     mfcs120:dllmodulx.obj
 0004:fffd2000       $pdata$WinbaseIsolationAwarePrivatetRgzlnPgpgk$fin$0 0000000180000000     mfcs120:dllmodulx.obj
 0002:fffde000       $unwind$WinbaseIsolationAwarePrivatetRgzlnPgpgk$fin$0 0000000180000000     mfcs120:dllmodulx.obj
 0004:fffd2000       $pdata$WinbaseIsolationAwarePrivatetRgzlnPgpgk 0000000180000000     mfcs120:dllmodulx.obj
 0002:fffde000       _AtlComModule$initializer$ 0000000180000000     md5.obj
 0002:fffde000       _AtlWinModule$initializer$ 0000000180000000     md5.obj
 0002:fffde000       ?isInitialized$initializer$@CAtlStringMgr@ATL@@0P6AXXZEA 0000000180000000     md5.obj
 0002:fffde000       $cppxdata$??$_Uninit_move@PEAV?$basic_string@DU?$char_traits@D@std@@V?$allocator@D@2@@std@@PEAV12@V?$allocator@V?$basic_string@DU?$char_traits@D@std@@V?$allocator@D@2@@std@@@2@V12@@std@@YAPEAV?$basic_string@DU?$char_traits@D@std@@V?$allocator@D@2@@0@PEAV10@00AEAU?$_Wrap_alloc@V?$allocator@V?$basic_string@DU?$char_traits@D@std@@V?$allocator@D@2@@std@@@std@@@0@0U_Nonscalar_ptr_iterator_tag@0@@Z 0000000180000000     Global.obj
 0002:fffde000       $stateUnwindMap$??$_Uninit_move@PEAV?$basic_string@DU?$char_traits@D@std@@V?$allocator@D@2@@std@@PEAV12@V?$allocator@V?$basic_string@DU?$char_traits@D@std@@V?$allocator@D@2@@std@@@2@V12@@std@@YAPEAV?$basic_string@DU?$char_traits@D@std@@V?$allocator@D@2@@0@PEAV10@00AEAU?$_Wrap_alloc@V?$allocator@V?$basic_string@DU?$char_traits@D@std@@V?$allocator@D@2@@std@@@std@@@0@0U_Nonscalar_ptr_iterator_tag@0@@Z 0000000180000000     Global.obj
 0002:fffde000       $tryMap$??$_Uninit_move@PEAV?$basic_string@DU?$char_traits@D@std@@V?$allocator@D@2@@std@@PEAV12@V?$allocator@V?$basic_string@DU?$char_traits@D@std@@V?$allocator@D@2@@std@@@2@V12@@std@@YAPEAV?$basic_string@DU?$char_traits@D@std@@V?$allocator@D@2@@0@PEAV10@00AEAU?$_Wrap_alloc@V?$allocator@V?$basic_string@DU?$char_traits@D@std@@V?$allocator@D@2@@std@@@std@@@0@0U_Nonscalar_ptr_iterator_tag@0@@Z 0000000180000000     Global.obj
 0002:fffde000       $handlerMap$0$??$_Uninit_move@PEAV?$basic_string@DU?$char_traits@D@std@@V?$allocator@D@2@@std@@PEAV12@V?$allocator@V?$basic_string@DU?$char_traits@D@std@@V?$allocator@D@2@@std@@@2@V12@@std@@YAPEAV?$basic_string@DU?$char_traits@D@std@@V?$allocator@D@2@@0@PEAV10@00AEAU?$_Wrap_alloc@V?$allocator@V?$basic_string@DU?$char_traits@D@std@@V?$allocator@D@2@@std@@@std@@@0@0U_Nonscalar_ptr_iterator_tag@0@@Z 0000000180000000     Global.obj
 0002:fffde000       $unwind$??__FstrHeap@?1??GetInstance@CAtlStringMgr@ATL@@SAPEAUIAtlStringMgr@2@XZ@YAXXZ 0000000180000000     mfcs120:dllmodul.obj
 0002:fffde000       $unwind$?Init@CComCriticalSection@ATL@@QEAAJXZ 0000000180000000     LockBase.obj
 0004:fffd2000       $pdata$?Init@CComCriticalSection@ATL@@QEAAJXZ 0000000180000000     LockBase.obj
 0002:fffde000       $unwind$?Term@CComCriticalSection@ATL@@QEAAJXZ 0000000180000000     LockBase.obj
 0004:fffd2000       $pdata$?Term@CComCriticalSection@ATL@@QEAAJXZ 0000000180000000     LockBase.obj
 0002:fffde000       $unwind$?Reallocate@CWin32Heap@ATL@@UEAAPEAXPEAX_K@Z 0000000180000000     LockBase.obj
 0004:fffd2000       $pdata$?Reallocate@CWin32Heap@ATL@@UEAAPEAXPEAX_K@Z 0000000180000000     LockBase.obj
 0002:fffde000       $unwind$??_GCWin32Heap@ATL@@UEAAPEAXI@Z 0000000180000000     LockBase.obj
 0004:fffd2000       $pdata$??_GCWin32Heap@ATL@@UEAAPEAXI@Z 0000000180000000     LockBase.obj
 0002:fffde000       $unwind$??1?$CSimpleArray@GV?$CSimpleArrayEqualHelper@G@ATL@@@ATL@@QEAA@XZ 0000000180000000     LockBase.obj
 0004:fffd2000       $pdata$??1?$CSimpleArray@GV?$CSimpleArrayEqualHelper@G@ATL@@@ATL@@QEAA@XZ 0000000180000000     LockBase.obj
 0002:fffde000       $unwind$?RemoveAll@?$CSimpleArray@GV?$CSimpleArrayEqualHelper@G@ATL@@@ATL@@QEAAXXZ 0000000180000000     LockBase.obj
 0004:fffd2000       $pdata$?RemoveAll@?$CSimpleArray@GV?$CSimpleArrayEqualHelper@G@ATL@@@ATL@@QEAAXXZ 0000000180000000     LockBase.obj
 0002:fffde000       $unwind$??A?$CSimpleArray@GV?$CSimpleArrayEqualHelper@G@ATL@@@ATL@@QEAAAEAGH@Z 0000000180000000     LockBase.obj
 0004:fffd2000       $pdata$??A?$CSimpleArray@GV?$CSimpleArrayEqualHelper@G@ATL@@@ATL@@QEAAAEAGH@Z 0000000180000000     LockBase.obj
 0002:fffde000       $unwind$??1_ATL_WIN_MODULE70@ATL@@QEAA@XZ 0000000180000000     LockBase.obj
 0004:fffd2000       $pdata$??1_ATL_WIN_MODULE70@ATL@@QEAA@XZ 0000000180000000     LockBase.obj
 0002:fffde000       $unwind$?AtlWinModuleInit@ATL@@YAJPEAU_ATL_WIN_MODULE70@1@@Z 0000000180000000     LockBase.obj
 0004:fffd2000       $pdata$?AtlWinModuleInit@ATL@@YAJPEAU_ATL_WIN_MODULE70@1@@Z 0000000180000000     LockBase.obj
 0002:fffde000       $chain$0$?AtlWinModuleInit@ATL@@YAJPEAU_ATL_WIN_MODULE70@1@@Z 0000000180000000     LockBase.obj
 0004:fffd2000       $pdata$0$?AtlWinModuleInit@ATL@@YAJPEAU_ATL_WIN_MODULE70@1@@Z 0000000180000000     LockBase.obj
 0002:fffde000       $chain$2$?AtlWinModuleInit@ATL@@YAJPEAU_ATL_WIN_MODULE70@1@@Z 0000000180000000     LockBase.obj
 0004:fffd2000       $pdata$2$?AtlWinModuleInit@ATL@@YAJPEAU_ATL_WIN_MODULE70@1@@Z 0000000180000000     LockBase.obj
 0002:fffde000       $unwind$?AtlWinModuleTerm@ATL@@YAJPEAU_ATL_WIN_MODULE70@1@PEAUHINSTANCE__@@@Z 0000000180000000     LockBase.obj
 0004:fffd2000       $pdata$?AtlWinModuleTerm@ATL@@YAJPEAU_ATL_WIN_MODULE70@1@PEAUHINSTANCE__@@@Z 0000000180000000     LockBase.obj
 0002:fffde000       $chain$2$?AtlWinModuleTerm@ATL@@YAJPEAU_ATL_WIN_MODULE70@1@PEAUHINSTANCE__@@@Z 0000000180000000     LockBase.obj
 0004:fffd2000       $pdata$2$?AtlWinModuleTerm@ATL@@YAJPEAU_ATL_WIN_MODULE70@1@PEAUHINSTANCE__@@@Z 0000000180000000     LockBase.obj
 0002:fffde000       $chain$3$?AtlWinModuleTerm@ATL@@YAJPEAU_ATL_WIN_MODULE70@1@PEAUHINSTANCE__@@@Z 0000000180000000     LockBase.obj
 0004:fffd2000       $pdata$3$?AtlWinModuleTerm@ATL@@YAJPEAU_ATL_WIN_MODULE70@1@PEAUHINSTANCE__@@@Z 0000000180000000     LockBase.obj
 0002:fffde000       $chain$4$?AtlWinModuleTerm@ATL@@YAJPEAU_ATL_WIN_MODULE70@1@PEAUHINSTANCE__@@@Z 0000000180000000     LockBase.obj
 0004:fffd2000       $pdata$4$?AtlWinModuleTerm@ATL@@YAJPEAU_ATL_WIN_MODULE70@1@PEAUHINSTANCE__@@@Z 0000000180000000     LockBase.obj
 0002:fffde000       $unwind$??0CAtlComModule@ATL@@QEAA@XZ 0000000180000000     LockBase.obj
 0004:fffd2000       $pdata$??0CAtlComModule@ATL@@QEAA@XZ 0000000180000000     LockBase.obj
 0002:fffde000       $unwind$?Term@CAtlComModule@ATL@@QEAAXXZ 0000000180000000     LockBase.obj
 0004:fffd2000       $pdata$?Term@CAtlComModule@ATL@@QEAAXXZ 0000000180000000     LockBase.obj
 0002:fffde000       $chain$1$?Term@CAtlComModule@ATL@@QEAAXXZ 0000000180000000     LockBase.obj
 0004:fffd2000       $pdata$1$?Term@CAtlComModule@ATL@@QEAAXXZ 0000000180000000     LockBase.obj
 0002:fffde000       $chain$2$?Term@CAtlComModule@ATL@@QEAAXXZ 0000000180000000     LockBase.obj
 0004:fffd2000       $pdata$2$?Term@CAtlComModule@ATL@@QEAAXXZ 0000000180000000     LockBase.obj
 0002:fffde000       $chain$3$?Term@CAtlComModule@ATL@@QEAAXXZ 0000000180000000     LockBase.obj
 0004:fffd2000       $pdata$3$?Term@CAtlComModule@ATL@@QEAAXXZ 0000000180000000     LockBase.obj
 0002:fffde000       $chain$4$?Term@CAtlComModule@ATL@@QEAAXXZ 0000000180000000     LockBase.obj
 0004:fffd2000       $pdata$4$?Term@CAtlComModule@ATL@@QEAAXXZ 0000000180000000     LockBase.obj
 0002:fffde000       $unwind$WinbaseIsolationAwarePrivatetRgzlnPgpgk 0000000180000000     mfcs120:dllmodulx.obj
 0004:fffd2000       $pdata$IsolationAwarePrivatenPgViNgRzlnPgpgk 0000000180000000     mfcs120:dllmodulx.obj
 0002:fffde000       $unwind$IsolationAwarePrivatenPgViNgRzlnPgpgk 0000000180000000     mfcs120:dllmodulx.obj
 0001:fffff000       WinbaseIsolationAwarePrivatetRgzlnPgpgk$fin$0 0000000180000000 f   mfcs120:dllmodulx.obj
 0002:fffde000       $unwind$??0CAtlWinModule@ATL@@QEAA@XZ 0000000180000000     LockBase.obj
 0004:fffd2000       $pdata$??0CAtlWinModule@ATL@@QEAA@XZ 0000000180000000     LockBase.obj
 0002:fffde000       $unwind$??1CAtlWinModule@ATL@@QEAA@XZ 0000000180000000     LockBase.obj
 0004:fffd2000       $pdata$??1CAtlWinModule@ATL@@QEAA@XZ 0000000180000000     LockBase.obj
 0001:fffff000       IsolationAwareUnregisterClassA$fin$0 0000000180000000 f   mfcs120:dllmodulx.obj
 0002:fffde000       $ip2state$??$_Uninit_move@PEAV?$basic_string@DU?$char_traits@D@std@@V?$allocator@D@2@@std@@PEAV12@V?$allocator@V?$basic_string@DU?$char_traits@D@std@@V?$allocator@D@2@@std@@@2@V12@@std@@YAPEAV?$basic_string@DU?$char_traits@D@std@@V?$allocator@D@2@@0@PEAV10@00AEAU?$_Wrap_alloc@V?$allocator@V?$basic_string@DU?$char_traits@D@std@@V?$allocator@D@2@@std@@@std@@@0@0U_Nonscalar_ptr_iterator_tag@0@@Z 0000000180000000     Global.obj
 0002:fffde000       $unwind$?catch$0@?0???$_Uninit_move@PEAV?$basic_string@DU?$char_traits@D@std@@V?$allocator@D@2@@std@@PEAV12@V?$allocator@V?$basic_string@DU?$char_traits@D@std@@V?$allocator@D@2@@std@@@2@V12@@std@@YAPEAV?$basic_string@DU?$char_traits@D@std@@V?$allocator@D@2@@0@PEAV10@00AEAU?$_Wrap_alloc@V?$allocator@V?$basic_string@DU?$char_traits@D@std@@V?$allocator@D@2@@std@@@std@@@0@0U_Nonscalar_ptr_iterator_tag@0@@Z@4HA 0000000180000000     Global.obj
 0004:fffd2000       $pdata$?catch$0@?0???$_Uninit_move@PEAV?$basic_string@DU?$char_traits@D@std@@V?$allocator@D@2@@std@@PEAV12@V?$allocator@V?$basic_string@DU?$char_traits@D@std@@V?$allocator@D@2@@std@@@2@V12@@std@@YAPEAV?$basic_string@DU?$char_traits@D@std@@V?$allocator@D@2@@0@PEAV10@00AEAU?$_Wrap_alloc@V?$allocator@V?$basic_string@DU?$char_traits@D@std@@V?$allocator@D@2@@std@@@std@@@0@0U_Nonscalar_ptr_iterator_tag@0@@Z@4HA 0000000180000000     Global.obj
 0002:fffde000       $unwind$?GetInstance@CAtlStringMgr@ATL@@SAPEAUIAtlStringMgr@2@XZ 0000000180000000     LockBase.obj
 0004:fffd2000       $pdata$?GetInstance@CAtlStringMgr@ATL@@SAPEAUIAtlStringMgr@2@XZ 0000000180000000     LockBase.obj
 0002:fffde000       $unwind$?Allocate@CAtlStringMgr@ATL@@UEAAPEAUCStringData@2@HH@Z 0000000180000000     LockBase.obj
 0004:fffd2000       $pdata$?Allocate@CAtlStringMgr@ATL@@UEAAPEAUCStringData@2@HH@Z 0000000180000000     LockBase.obj
 0002:fffde000       $chain$0$?Allocate@CAtlStringMgr@ATL@@UEAAPEAUCStringData@2@HH@Z 0000000180000000     LockBase.obj
 0004:fffd2000       $pdata$0$?Allocate@CAtlStringMgr@ATL@@UEAAPEAUCStringData@2@HH@Z 0000000180000000     LockBase.obj
 0002:fffde000       $chain$2$?Allocate@CAtlStringMgr@ATL@@UEAAPEAUCStringData@2@HH@Z 0000000180000000     LockBase.obj
 0004:fffd2000       $pdata$2$?Allocate@CAtlStringMgr@ATL@@UEAAPEAUCStringData@2@HH@Z 0000000180000000     LockBase.obj
 0002:fffde000       $unwind$?Reallocate@CAtlStringMgr@ATL@@UEAAPEAUCStringData@2@PEAU32@HH@Z 0000000180000000     LockBase.obj
 0004:fffd2000       $pdata$?Reallocate@CAtlStringMgr@ATL@@UEAAPEAUCStringData@2@PEAU32@HH@Z 0000000180000000     LockBase.obj
 0002:fffde000       $chain$0$?Reallocate@CAtlStringMgr@ATL@@UEAAPEAUCStringData@2@PEAU32@HH@Z 0000000180000000     LockBase.obj
 0004:fffd2000       $pdata$0$?Reallocate@CAtlStringMgr@ATL@@UEAAPEAUCStringData@2@PEAU32@HH@Z 0000000180000000     LockBase.obj
 0002:fffde000       $chain$2$?Reallocate@CAtlStringMgr@ATL@@UEAAPEAUCStringData@2@PEAU32@HH@Z 0000000180000000     LockBase.obj
 0004:fffd2000       $pdata$2$?Reallocate@CAtlStringMgr@ATL@@UEAAPEAUCStringData@2@PEAU32@HH@Z 0000000180000000     LockBase.obj
 0002:fffde000       $unwind$?StaticInitialize@CAtlStringMgr@ATL@@CA_NXZ 0000000180000000     LockBase.obj
 0004:fffd2000       $pdata$?StaticInitialize@CAtlStringMgr@ATL@@CA_NXZ 0000000180000000     LockBase.obj
 0002:fffde000       $unwind$??_GCAtlStringMgr@ATL@@UEAAPEAXI@Z 0000000180000000     LockBase.obj
 0004:fffd2000       $pdata$??_GCAtlStringMgr@ATL@@UEAAPEAXI@Z 0000000180000000     LockBase.obj
 0002:fffde000       $unwind$??$destroy@V?$basic_string@DU?$char_traits@D@std@@V?$allocator@D@2@@std@@@?$allocator_traits@V?$allocator@V?$basic_string@DU?$char_traits@D@std@@V?$allocator@D@2@@std@@@std@@@std@@SAXAEAV?$allocator@V?$basic_string@DU?$char_traits@D@std@@V?$allocator@D@2@@std@@@1@PEAV?$basic_string@DU?$char_traits@D@std@@V?$allocator@D@2@@1@@Z 0000000180000000     Global.obj
 0004:fffd2000       $pdata$??$destroy@V?$basic_string@DU?$char_traits@D@std@@V?$allocator@D@2@@std@@@?$allocator_traits@V?$allocator@V?$basic_string@DU?$char_traits@D@std@@V?$allocator@D@2@@std@@@std@@@std@@SAXAEAV?$allocator@V?$basic_string@DU?$char_traits@D@std@@V?$allocator@D@2@@std@@@1@PEAV?$basic_string@DU?$char_traits@D@std@@V?$allocator@D@2@@1@@Z 0000000180000000     Global.obj
 0000:fffcd000       .debug$S                   0000000180000000     mfc120:mfc120.dll
 0000:fffcd000       .debug$S                   0000000180000000     mfc120:mfc120.dll
 0002:fffde000       _AtlComModule$initializer$ 0000000180000000     LockBase.obj
 0002:fffde000       _AtlWinModule$initializer$ 0000000180000000     LockBase.obj
 0002:fffde000       ?isInitialized$initializer$@CAtlStringMgr@ATL@@0P6AXXZEA 0000000180000000     LockBase.obj
 0002:fffde000       $unwind$??$destroy@V?$basic_string@DU?$char_traits@D@std@@V?$allocator@D@2@@std@@@?$allocator@V?$basic_string@DU?$char_traits@D@std@@V?$allocator@D@2@@std@@@std@@QEAAXPEAV?$basic_string@DU?$char_traits@D@std@@V?$allocator@D@2@@1@@Z 0000000180000000     Global.obj
 0004:fffd2000       $pdata$??$destroy@V?$basic_string@DU?$char_traits@D@std@@V?$allocator@D@2@@std@@@?$allocator@V?$basic_string@DU?$char_traits@D@std@@V?$allocator@D@2@@std@@@std@@QEAAXPEAV?$basic_string@DU?$char_traits@D@std@@V?$allocator@D@2@@1@@Z 0000000180000000     Global.obj
 0002:fffde000       ?_Generic_object$initializer$@?$_Error_objects@H@std@@2P6AXXZEA 0000000180000000     Global.obj
 0002:fffde000       ?_Iostream_object$initializer$@?$_Error_objects@H@std@@2P6AXXZEA 0000000180000000     Global.obj
 0002:fffde000       ?_System_object$initializer$@?$_Error_objects@H@std@@2P6AXXZEA 0000000180000000     Global.obj
 0002:fffde000       $unwind$?Init@CComCriticalSection@ATL@@QEAAJXZ 0000000180000000     DoubleListEx.obj
 0004:fffd2000       $pdata$?Init@CComCriticalSection@ATL@@QEAAJXZ 0000000180000000     DoubleListEx.obj
 0002:fffde000       $unwind$?Term@CComCriticalSection@ATL@@QEAAJXZ 0000000180000000     DoubleListEx.obj
 0004:fffd2000       $pdata$?Term@CComCriticalSection@ATL@@QEAAJXZ 0000000180000000     DoubleListEx.obj
 0002:fffde000       $unwind$?Reallocate@CWin32Heap@ATL@@UEAAPEAXPEAX_K@Z 0000000180000000     DoubleListEx.obj
 0004:fffd2000       $pdata$?Reallocate@CWin32Heap@ATL@@UEAAPEAXPEAX_K@Z 0000000180000000     DoubleListEx.obj
 0002:fffde000       $unwind$??_GCWin32Heap@ATL@@UEAAPEAXI@Z 0000000180000000     DoubleListEx.obj
 0004:fffd2000       $pdata$??_GCWin32Heap@ATL@@UEAAPEAXI@Z 0000000180000000     DoubleListEx.obj
 0002:fffde000       $unwind$??1?$CSimpleArray@GV?$CSimpleArrayEqualHelper@G@ATL@@@ATL@@QEAA@XZ 0000000180000000     DoubleListEx.obj
 0004:fffd2000       $pdata$??1?$CSimpleArray@GV?$CSimpleArrayEqualHelper@G@ATL@@@ATL@@QEAA@XZ 0000000180000000     DoubleListEx.obj
 0002:fffde000       $unwind$?RemoveAll@?$CSimpleArray@GV?$CSimpleArrayEqualHelper@G@ATL@@@ATL@@QEAAXXZ 0000000180000000     DoubleListEx.obj
 0004:fffd2000       $pdata$?RemoveAll@?$CSimpleArray@GV?$CSimpleArrayEqualHelper@G@ATL@@@ATL@@QEAAXXZ 0000000180000000     DoubleListEx.obj
 0002:fffde000       $unwind$??A?$CSimpleArray@GV?$CSimpleArrayEqualHelper@G@ATL@@@ATL@@QEAAAEAGH@Z 0000000180000000     DoubleListEx.obj
 0001:fffff000       ?catch$1@?0??_Copy@?$basic_string@DU?$char_traits@D@std@@V?$allocator@D@2@@std@@QEAAX_K0@Z@4HA 0000000180000000 f   IocpServerImpl.obj
 0004:fffd2000       $pdata$??A?$CSimpleArray@GV?$CSimpleArrayEqualHelper@G@ATL@@@ATL@@QEAAAEAGH@Z 0000000180000000     DoubleListEx.obj
 0002:fffde000       $unwind$??1_ATL_WIN_MODULE70@ATL@@QEAA@XZ 0000000180000000     DoubleListEx.obj
 0004:fffd2000       $pdata$??1_ATL_WIN_MODULE70@ATL@@QEAA@XZ 0000000180000000     DoubleListEx.obj
 0002:fffde000       $unwind$?AtlWinModuleInit@ATL@@YAJPEAU_ATL_WIN_MODULE70@1@@Z 0000000180000000     DoubleListEx.obj
 0004:fffd2000       $pdata$?AtlWinModuleInit@ATL@@YAJPEAU_ATL_WIN_MODULE70@1@@Z 0000000180000000     DoubleListEx.obj
 0002:fffde000       $chain$0$?AtlWinModuleInit@ATL@@YAJPEAU_ATL_WIN_MODULE70@1@@Z 0000000180000000     DoubleListEx.obj
 0004:fffd2000       $pdata$0$?AtlWinModuleInit@ATL@@YAJPEAU_ATL_WIN_MODULE70@1@@Z 0000000180000000     DoubleListEx.obj
 0004:fffd2000       $pdata$??__FstrHeap@?1??GetInstance@CAtlStringMgr@ATL@@SAPEAUIAtlStringMgr@2@XZ@YAXXZ 0000000180000000     mfcs120:dllmodul.obj
 0002:fffde000       $chain$2$?AtlWinModuleInit@ATL@@YAJPEAU_ATL_WIN_MODULE70@1@@Z 0000000180000000     DoubleListEx.obj
 0004:fffd2000       $pdata$2$?AtlWinModuleInit@ATL@@YAJPEAU_ATL_WIN_MODULE70@1@@Z 0000000180000000     DoubleListEx.obj
 0002:fffde000       $unwind$?AtlWinModuleTerm@ATL@@YAJPEAU_ATL_WIN_MODULE70@1@PEAUHINSTANCE__@@@Z 0000000180000000     DoubleListEx.obj
 0004:fffd2000       $pdata$?AtlWinModuleTerm@ATL@@YAJPEAU_ATL_WIN_MODULE70@1@PEAUHINSTANCE__@@@Z 0000000180000000     DoubleListEx.obj
 0002:fffde000       $chain$2$?AtlWinModuleTerm@ATL@@YAJPEAU_ATL_WIN_MODULE70@1@PEAUHINSTANCE__@@@Z 0000000180000000     DoubleListEx.obj
 0004:fffd2000       $pdata$2$?AtlWinModuleTerm@ATL@@YAJPEAU_ATL_WIN_MODULE70@1@PEAUHINSTANCE__@@@Z 0000000180000000     DoubleListEx.obj
 0002:fffde000       $chain$3$?AtlWinModuleTerm@ATL@@YAJPEAU_ATL_WIN_MODULE70@1@PEAUHINSTANCE__@@@Z 0000000180000000     DoubleListEx.obj
 0004:fffd2000       $pdata$3$?AtlWinModuleTerm@ATL@@YAJPEAU_ATL_WIN_MODULE70@1@PEAUHINSTANCE__@@@Z 0000000180000000     DoubleListEx.obj
 0002:fffde000       $chain$4$?AtlWinModuleTerm@ATL@@YAJPEAU_ATL_WIN_MODULE70@1@PEAUHINSTANCE__@@@Z 0000000180000000     DoubleListEx.obj
 0004:fffd2000       $pdata$4$?AtlWinModuleTerm@ATL@@YAJPEAU_ATL_WIN_MODULE70@1@PEAUHINSTANCE__@@@Z 0000000180000000     DoubleListEx.obj
 0002:fffde000       $unwind$??0CAtlComModule@ATL@@QEAA@XZ 0000000180000000     DoubleListEx.obj
 0004:fffd2000       $pdata$??0CAtlComModule@ATL@@QEAA@XZ 0000000180000000     DoubleListEx.obj
 0002:fffde000       $unwind$?Term@CAtlComModule@ATL@@QEAAXXZ 0000000180000000     DoubleListEx.obj
 0004:fffd2000       $pdata$?Term@CAtlComModule@ATL@@QEAAXXZ 0000000180000000     DoubleListEx.obj
 0002:fffde000       $chain$1$?Term@CAtlComModule@ATL@@QEAAXXZ 0000000180000000     DoubleListEx.obj
 0004:fffd2000       $pdata$1$?Term@CAtlComModule@ATL@@QEAAXXZ 0000000180000000     DoubleListEx.obj
 0002:fffde000       $chain$2$?Term@CAtlComModule@ATL@@QEAAXXZ 0000000180000000     DoubleListEx.obj
 0004:fffd2000       $pdata$2$?Term@CAtlComModule@ATL@@QEAAXXZ 0000000180000000     DoubleListEx.obj
 0002:fffde000       $chain$3$?Term@CAtlComModule@ATL@@QEAAXXZ 0000000180000000     DoubleListEx.obj
 0004:fffd2000       $pdata$3$?Term@CAtlComModule@ATL@@QEAAXXZ 0000000180000000     DoubleListEx.obj
 0002:fffde000       $chain$4$?Term@CAtlComModule@ATL@@QEAAXXZ 0000000180000000     DoubleListEx.obj
 0004:fffd2000       $pdata$4$?Term@CAtlComModule@ATL@@QEAAXXZ 0000000180000000     DoubleListEx.obj
 0002:fffde000       $unwind$??_GCAtlStringMgr@ATL@@UEAAPEAXI@Z 0000000180000000     mfcs120:dllmodul.obj
 0002:fffde000       $unwind$??0CAtlWinModule@ATL@@QEAA@XZ 0000000180000000     DoubleListEx.obj
 0004:fffd2000       $pdata$??0CAtlWinModule@ATL@@QEAA@XZ 0000000180000000     DoubleListEx.obj
 0002:fffde000       $unwind$??1CAtlWinModule@ATL@@QEAA@XZ 0000000180000000     DoubleListEx.obj
 0004:fffd2000       $pdata$??1CAtlWinModule@ATL@@QEAA@XZ 0000000180000000     DoubleListEx.obj
 0004:fffd2000       $pdata$?StaticInitialize@CAtlStringMgr@ATL@@CA_NXZ 0000000180000000     mfcs120:dllmodul.obj
 0002:fffde000       $unwind$?GetInstance@CAtlStringMgr@ATL@@SAPEAUIAtlStringMgr@2@XZ 0000000180000000     DoubleListEx.obj
 0004:fffd2000       $pdata$?GetInstance@CAtlStringMgr@ATL@@SAPEAUIAtlStringMgr@2@XZ 0000000180000000     DoubleListEx.obj
 0002:fffde000       $unwind$?Allocate@CAtlStringMgr@ATL@@UEAAPEAUCStringData@2@HH@Z 0000000180000000     DoubleListEx.obj
 0004:fffd2000       $pdata$?Allocate@CAtlStringMgr@ATL@@UEAAPEAUCStringData@2@HH@Z 0000000180000000     DoubleListEx.obj
 0002:fffde000       $chain$0$?Allocate@CAtlStringMgr@ATL@@UEAAPEAUCStringData@2@HH@Z 0000000180000000     DoubleListEx.obj
 0004:fffd2000       $pdata$0$?Allocate@CAtlStringMgr@ATL@@UEAAPEAUCStringData@2@HH@Z 0000000180000000     DoubleListEx.obj
 0002:fffde000       $chain$2$?Allocate@CAtlStringMgr@ATL@@UEAAPEAUCStringData@2@HH@Z 0000000180000000     DoubleListEx.obj
 0004:fffd2000       $pdata$2$?Allocate@CAtlStringMgr@ATL@@UEAAPEAUCStringData@2@HH@Z 0000000180000000     DoubleListEx.obj
 0002:fffde000       $unwind$?Reallocate@CAtlStringMgr@ATL@@UEAAPEAUCStringData@2@PEAU32@HH@Z 0000000180000000     DoubleListEx.obj
 0004:fffd2000       $pdata$?Reallocate@CAtlStringMgr@ATL@@UEAAPEAUCStringData@2@PEAU32@HH@Z 0000000180000000     DoubleListEx.obj
 0002:fffde000       $chain$0$?Reallocate@CAtlStringMgr@ATL@@UEAAPEAUCStringData@2@PEAU32@HH@Z 0000000180000000     DoubleListEx.obj
 0004:fffd2000       $pdata$0$?Reallocate@CAtlStringMgr@ATL@@UEAAPEAUCStringData@2@PEAU32@HH@Z 0000000180000000     DoubleListEx.obj
 0002:fffde000       $chain$2$?Reallocate@CAtlStringMgr@ATL@@UEAAPEAUCStringData@2@PEAU32@HH@Z 0000000180000000     DoubleListEx.obj
 0004:fffd2000       $pdata$2$?Reallocate@CAtlStringMgr@ATL@@UEAAPEAUCStringData@2@PEAU32@HH@Z 0000000180000000     DoubleListEx.obj
 0002:fffde000       $unwind$?StaticInitialize@CAtlStringMgr@ATL@@CA_NXZ 0000000180000000     DoubleListEx.obj
 0002:fffde000       $unwind$??_Estringdispid@CComTypeInfoHolder@ATL@@QEAAPEAXI@Z 0000000180000000     mfcs120:dllmodul.obj
 0004:fffd2000       $pdata$?StaticInitialize@CAtlStringMgr@ATL@@CA_NXZ 0000000180000000     DoubleListEx.obj
 0002:fffde000       $unwind$??_GCAtlStringMgr@ATL@@UEAAPEAXI@Z 0000000180000000     DoubleListEx.obj
 0004:fffd2000       $pdata$??_GCAtlStringMgr@ATL@@UEAAPEAXI@Z 0000000180000000     DoubleListEx.obj
 0002:fffde000       _AtlComModule$initializer$ 0000000180000000     DoubleListEx.obj
 0002:fffde000       _AtlWinModule$initializer$ 0000000180000000     DoubleListEx.obj
 0002:fffde000       ?isInitialized$initializer$@CAtlStringMgr@ATL@@0P6AXXZEA 0000000180000000     DoubleListEx.obj
 0004:fffd2000       $pdata$??_Estringdispid@CComTypeInfoHolder@ATL@@QEAAPEAXI@Z 0000000180000000     mfcs120:dllmodul.obj
 0004:fffd2000       $pdata$??_G_System_error_category@std@@UEAAPEAXI@Z 0000000180000000     Global.obj
 0002:fffde000       $unwind$??_G_System_error_category@std@@UEAAPEAXI@Z 0000000180000000     Global.obj
 0004:fffd2000       $pdata$?default_error_condition@_System_error_category@std@@UEBA?AVerror_condition@2@H@Z 0000000180000000     Global.obj
 0002:fffde000       $unwind$?default_error_condition@_System_error_category@std@@UEBA?AVerror_condition@2@H@Z 0000000180000000     Global.obj
 0004:fffd2000       $pdata$?message@_System_error_category@std@@UEBA?AV?$basic_string@DU?$char_traits@D@std@@V?$allocator@D@2@@2@H@Z 0000000180000000     Global.obj
 0002:fffde000       $unwind$?message@_System_error_category@std@@UEBA?AV?$basic_string@DU?$char_traits@D@std@@V?$allocator@D@2@@2@H@Z 0000000180000000     Global.obj
 0004:fffd2000       $pdata$??_G_Iostream_error_category@std@@UEAAPEAXI@Z 0000000180000000     Global.obj
 0002:fffde000       $unwind$??_G_Iostream_error_category@std@@UEAAPEAXI@Z 0000000180000000     Global.obj
 0004:fffd2000       $pdata$?message@_Iostream_error_category@std@@UEBA?AV?$basic_string@DU?$char_traits@D@std@@V?$allocator@D@2@@2@H@Z 0000000180000000     Global.obj
 0002:fffde000       $unwind$?message@_Iostream_error_category@std@@UEBA?AV?$basic_string@DU?$char_traits@D@std@@V?$allocator@D@2@@2@H@Z 0000000180000000     Global.obj
 0004:fffd2000       $pdata$??_G_Generic_error_category@std@@UEAAPEAXI@Z 0000000180000000     Global.obj
 0002:fffde000       $unwind$??_G_Generic_error_category@std@@UEAAPEAXI@Z 0000000180000000     Global.obj
 0004:fffd2000       $pdata$?message@_Generic_error_category@std@@UEBA?AV?$basic_string@DU?$char_traits@D@std@@V?$allocator@D@2@@2@H@Z 0000000180000000     Global.obj
 0002:fffde000       $unwind$?message@_Generic_error_category@std@@UEBA?AV?$basic_string@DU?$char_traits@D@std@@V?$allocator@D@2@@2@H@Z 0000000180000000     Global.obj
 0004:fffd2000       $pdata$??_Gerror_category@std@@UEAAPEAXI@Z 0000000180000000     Global.obj
 0002:fffde000       $unwind$??_Gerror_category@std@@UEAAPEAXI@Z 0000000180000000     Global.obj
 0004:fffd2000       $pdata$?equivalent@error_category@std@@UEBA_NHAEBVerror_condition@2@@Z 0000000180000000     Global.obj
 0002:fffde000       $unwind$?equivalent@error_category@std@@UEBA_NHAEBVerror_condition@2@@Z 0000000180000000     Global.obj
 0004:fffd2000       $pdata$??_G?$basic_string@DU?$char_traits@D@std@@V?$allocator@D@2@@std@@QEAAPEAXI@Z 0000000180000000     Global.obj
 0002:fffde000       $unwind$??_G?$basic_string@DU?$char_traits@D@std@@V?$allocator@D@2@@std@@QEAAPEAXI@Z 0000000180000000     Global.obj
 0002:fffde000       $unwind$?copy@?$char_traits@D@std@@SAPEADPEADPEBD_K@Z 0000000180000000     IocpServerImpl.obj
 0004:fffd2000       $pdata$?copy@?$char_traits@D@std@@SAPEADPEADPEBD_K@Z 0000000180000000     IocpServerImpl.obj
 0002:fffde000       $unwind$?allocate@?$allocator@D@std@@QEAAPEAD_K@Z 0000000180000000     IocpServerImpl.obj
 0004:fffd2000       $pdata$?allocate@?$allocator@D@std@@QEAAPEAD_K@Z 0000000180000000     IocpServerImpl.obj
 0002:fffde000       $unwind$?allocate@?$_Wrap_alloc@V?$allocator@D@std@@@std@@QEAAPEAD_K@Z 0000000180000000     IocpServerImpl.obj
 0004:fffd2000       $pdata$?allocate@?$_Wrap_alloc@V?$allocator@D@std@@@std@@QEAAPEAD_K@Z 0000000180000000     IocpServerImpl.obj
 0002:fffde000       $unwind$??0?$basic_string@DU?$char_traits@D@std@@V?$allocator@D@2@@std@@QEAA@PEBD@Z 0000000180000000     IocpServerImpl.obj
 0004:fffd2000       $pdata$??0?$basic_string@DU?$char_traits@D@std@@V?$allocator@D@2@@std@@QEAA@PEBD@Z 0000000180000000     IocpServerImpl.obj
 0002:fffde000       $unwind$??1?$basic_string@DU?$char_traits@D@std@@V?$allocator@D@2@@std@@QEAA@XZ 0000000180000000     IocpServerImpl.obj
 0004:fffd2000       $pdata$??1?$basic_string@DU?$char_traits@D@std@@V?$allocator@D@2@@std@@QEAA@XZ 0000000180000000     IocpServerImpl.obj
 0002:fffde000       $unwind$?assign@?$basic_string@DU?$char_traits@D@std@@V?$allocator@D@2@@std@@QEAAAEAV12@AEBV12@_K1@Z 0000000180000000     IocpServerImpl.obj
 0004:fffd2000       $pdata$?assign@?$basic_string@DU?$char_traits@D@std@@V?$allocator@D@2@@std@@QEAAAEAV12@AEBV12@_K1@Z 0000000180000000     IocpServerImpl.obj
 0002:fffde000       $unwind$?assign@?$basic_string@DU?$char_traits@D@std@@V?$allocator@D@2@@std@@QEAAAEAV12@PEBD_K@Z 0000000180000000     IocpServerImpl.obj
 0004:fffd2000       $pdata$?assign@?$basic_string@DU?$char_traits@D@std@@V?$allocator@D@2@@std@@QEAAAEAV12@PEBD_K@Z 0000000180000000     IocpServerImpl.obj
 0002:fffde000       $unwind$?erase@?$basic_string@DU?$char_traits@D@std@@V?$allocator@D@2@@std@@QEAAAEAV12@_K@Z 0000000180000000     IocpServerImpl.obj
 0004:fffd2000       $pdata$?erase@?$basic_string@DU?$char_traits@D@std@@V?$allocator@D@2@@std@@QEAAAEAV12@_K@Z 0000000180000000     IocpServerImpl.obj
 0002:fffde000       $unwind$?erase@?$basic_string@DU?$char_traits@D@std@@V?$allocator@D@2@@std@@QEAAAEAV12@_K0@Z 0000000180000000     IocpServerImpl.obj
 0004:fffd2000       $pdata$?erase@?$basic_string@DU?$char_traits@D@std@@V?$allocator@D@2@@std@@QEAAAEAV12@_K0@Z 0000000180000000     IocpServerImpl.obj
 0002:fffde000       $unwind$?compare@?$basic_string@DU?$char_traits@D@std@@V?$allocator@D@2@@std@@QEBAHAEBV12@@Z 0000000180000000     IocpServerImpl.obj
 0004:fffd2000       $pdata$?compare@?$basic_string@DU?$char_traits@D@std@@V?$allocator@D@2@@std@@QEBAHAEBV12@@Z 0000000180000000     IocpServerImpl.obj
 0002:fffde000       $unwind$?compare@?$basic_string@DU?$char_traits@D@std@@V?$allocator@D@2@@std@@QEBAH_K0PEBD0@Z 0000000180000000     IocpServerImpl.obj
 0004:fffd2000       $pdata$?compare@?$basic_string@DU?$char_traits@D@std@@V?$allocator@D@2@@std@@QEBAH_K0PEBD0@Z 0000000180000000     IocpServerImpl.obj
 0002:fffde000       $chain$1$?compare@?$basic_string@DU?$char_traits@D@std@@V?$allocator@D@2@@std@@QEBAH_K0PEBD0@Z 0000000180000000     IocpServerImpl.obj
 0004:fffd2000       $pdata$1$?compare@?$basic_string@DU?$char_traits@D@std@@V?$allocator@D@2@@std@@QEBAH_K0PEBD0@Z 0000000180000000     IocpServerImpl.obj
 0002:fffde000       $chain$3$?compare@?$basic_string@DU?$char_traits@D@std@@V?$allocator@D@2@@std@@QEBAH_K0PEBD0@Z 0000000180000000     IocpServerImpl.obj
 0004:fffd2000       $pdata$3$?compare@?$basic_string@DU?$char_traits@D@std@@V?$allocator@D@2@@std@@QEBAH_K0PEBD0@Z 0000000180000000     IocpServerImpl.obj
 0002:fffde000       $unwind$?_Copy@?$basic_string@DU?$char_traits@D@std@@V?$allocator@D@2@@std@@QEAAX_K0@Z 0000000180000000     IocpServerImpl.obj
 0004:fffd2000       $pdata$?_Copy@?$basic_string@DU?$char_traits@D@std@@V?$allocator@D@2@@std@@QEAAX_K0@Z 0000000180000000     IocpServerImpl.obj
 0002:fffde000       $cppxdata$?_Copy@?$basic_string@DU?$char_traits@D@std@@V?$allocator@D@2@@std@@QEAAX_K0@Z 0000000180000000     IocpServerImpl.obj
 0002:fffde000       $stateUnwindMap$?_Copy@?$basic_string@DU?$char_traits@D@std@@V?$allocator@D@2@@std@@QEAAX_K0@Z 0000000180000000     IocpServerImpl.obj
 0002:fffde000       $tryMap$?_Copy@?$basic_string@DU?$char_traits@D@std@@V?$allocator@D@2@@std@@QEAAX_K0@Z 0000000180000000     IocpServerImpl.obj
 0002:fffde000       $handlerMap$0$?_Copy@?$basic_string@DU?$char_traits@D@std@@V?$allocator@D@2@@std@@QEAAX_K0@Z 0000000180000000     IocpServerImpl.obj
 0002:fffde000       $handlerMap$1$?_Copy@?$basic_string@DU?$char_traits@D@std@@V?$allocator@D@2@@std@@QEAAX_K0@Z 0000000180000000     IocpServerImpl.obj
 0002:fffde000       $ip2state$?_Copy@?$basic_string@DU?$char_traits@D@std@@V?$allocator@D@2@@std@@QEAAX_K0@Z 0000000180000000     IocpServerImpl.obj
 0002:fffde000       $unwind$?catch$1@?0??_Copy@?$basic_string@DU?$char_traits@D@std@@V?$allocator@D@2@@std@@QEAAX_K0@Z@4HA 0000000180000000     IocpServerImpl.obj
 0004:fffd2000       $pdata$?catch$1@?0??_Copy@?$basic_string@DU?$char_traits@D@std@@V?$allocator@D@2@@std@@QEAAX_K0@Z@4HA 0000000180000000     IocpServerImpl.obj
 0002:fffde000       $unwind$?catch$0@?0??_Copy@?$basic_string@DU?$char_traits@D@std@@V?$allocator@D@2@@std@@QEAAX_K0@Z@4HA 0000000180000000     IocpServerImpl.obj
 0004:fffd2000       $pdata$?catch$0@?0??_Copy@?$basic_string@DU?$char_traits@D@std@@V?$allocator@D@2@@std@@QEAAX_K0@Z@4HA 0000000180000000     IocpServerImpl.obj
 0002:fffde000       $unwind$?_Grow@?$basic_string@DU?$char_traits@D@std@@V?$allocator@D@2@@std@@QEAA_N_K_N@Z 0000000180000000     IocpServerImpl.obj
 0004:fffd2000       $pdata$?_Grow@?$basic_string@DU?$char_traits@D@std@@V?$allocator@D@2@@std@@QEAA_N_K_N@Z 0000000180000000     IocpServerImpl.obj
 0002:fffde000       $chain$1$?_Grow@?$basic_string@DU?$char_traits@D@std@@V?$allocator@D@2@@std@@QEAA_N_K_N@Z 0000000180000000     IocpServerImpl.obj
 0004:fffd2000       $pdata$1$?_Grow@?$basic_string@DU?$char_traits@D@std@@V?$allocator@D@2@@std@@QEAA_N_K_N@Z 0000000180000000     IocpServerImpl.obj
 0002:fffde000       $chain$2$?_Grow@?$basic_string@DU?$char_traits@D@std@@V?$allocator@D@2@@std@@QEAA_N_K_N@Z 0000000180000000     IocpServerImpl.obj
 0004:fffd2000       $pdata$2$?_Grow@?$basic_string@DU?$char_traits@D@std@@V?$allocator@D@2@@std@@QEAA_N_K_N@Z 0000000180000000     IocpServerImpl.obj
 0002:fffde000       $chain$3$?_Grow@?$basic_string@DU?$char_traits@D@std@@V?$allocator@D@2@@std@@QEAA_N_K_N@Z 0000000180000000     IocpServerImpl.obj
 0004:fffd2000       $pdata$3$?_Grow@?$basic_string@DU?$char_traits@D@std@@V?$allocator@D@2@@std@@QEAA_N_K_N@Z 0000000180000000     IocpServerImpl.obj
 0002:fffde000       $chain$4$?_Grow@?$basic_string@DU?$char_traits@D@std@@V?$allocator@D@2@@std@@QEAA_N_K_N@Z 0000000180000000     IocpServerImpl.obj
 0004:fffd2000       $pdata$4$?_Grow@?$basic_string@DU?$char_traits@D@std@@V?$allocator@D@2@@std@@QEAA_N_K_N@Z 0000000180000000     IocpServerImpl.obj
 0002:fffde000       $unwind$?_Tidy@?$basic_string@DU?$char_traits@D@std@@V?$allocator@D@2@@std@@QEAAX_N_K@Z 0000000180000000     IocpServerImpl.obj
 0004:fffd2000       $pdata$?_Tidy@?$basic_string@DU?$char_traits@D@std@@V?$allocator@D@2@@std@@QEAAX_N_K@Z 0000000180000000     IocpServerImpl.obj
 0002:fffde000       $chain$0$?_Tidy@?$basic_string@DU?$char_traits@D@std@@V?$allocator@D@2@@std@@QEAAX_N_K@Z 0000000180000000     IocpServerImpl.obj
 0004:fffd2000       $pdata$0$?_Tidy@?$basic_string@DU?$char_traits@D@std@@V?$allocator@D@2@@std@@QEAAX_N_K@Z 0000000180000000     IocpServerImpl.obj
 0002:fffde000       $chain$1$?_Tidy@?$basic_string@DU?$char_traits@D@std@@V?$allocator@D@2@@std@@QEAAX_N_K@Z 0000000180000000     IocpServerImpl.obj
 0004:fffd2000       $pdata$1$?_Tidy@?$basic_string@DU?$char_traits@D@std@@V?$allocator@D@2@@std@@QEAAX_N_K@Z 0000000180000000     IocpServerImpl.obj
 0002:fffde000       $unwind$?_Xlen@?$basic_string@DU?$char_traits@D@std@@V?$allocator@D@2@@std@@QEBAXXZ 0000000180000000     IocpServerImpl.obj
 0004:fffd2000       $pdata$?_Xlen@?$basic_string@DU?$char_traits@D@std@@V?$allocator@D@2@@std@@QEBAXXZ 0000000180000000     IocpServerImpl.obj
 0002:fffde000       $unwind$?_Xran@?$basic_string@DU?$char_traits@D@std@@V?$allocator@D@2@@std@@QEBAXXZ 0000000180000000     IocpServerImpl.obj
 0004:fffd2000       $pdata$?_Xran@?$basic_string@DU?$char_traits@D@std@@V?$allocator@D@2@@std@@QEBAXXZ 0000000180000000     IocpServerImpl.obj
 0002:fffde000       $unwind$?equivalent@error_category@std@@UEBA_NHAEBVerror_condition@2@@Z 0000000180000000     IocpServerImpl.obj
 0004:fffd2000       $pdata$?equivalent@error_category@std@@UEBA_NHAEBVerror_condition@2@@Z 0000000180000000     IocpServerImpl.obj
 0002:fffde000       $unwind$??_Gerror_category@std@@UEAAPEAXI@Z 0000000180000000     IocpServerImpl.obj
 0004:fffd2000       $pdata$??_Gerror_category@std@@UEAAPEAXI@Z 0000000180000000     IocpServerImpl.obj
 0002:fffde000       $unwind$?message@_Generic_error_category@std@@UEBA?AV?$basic_string@DU?$char_traits@D@std@@V?$allocator@D@2@@2@H@Z 0000000180000000     IocpServerImpl.obj
 0004:fffd2000       $pdata$?message@_Generic_error_category@std@@UEBA?AV?$basic_string@DU?$char_traits@D@std@@V?$allocator@D@2@@2@H@Z 0000000180000000     IocpServerImpl.obj
 0002:fffde000       $unwind$??_G_Generic_error_category@std@@UEAAPEAXI@Z 0000000180000000     IocpServerImpl.obj
 0004:fffd2000       $pdata$??_G_Generic_error_category@std@@UEAAPEAXI@Z 0000000180000000     IocpServerImpl.obj
 0002:fffde000       $unwind$?message@_Iostream_error_category@std@@UEBA?AV?$basic_string@DU?$char_traits@D@std@@V?$allocator@D@2@@2@H@Z 0000000180000000     IocpServerImpl.obj
 0004:fffd2000       $pdata$?message@_Iostream_error_category@std@@UEBA?AV?$basic_string@DU?$char_traits@D@std@@V?$allocator@D@2@@2@H@Z 0000000180000000     IocpServerImpl.obj
 0002:fffde000       $unwind$??_G_Iostream_error_category@std@@UEAAPEAXI@Z 0000000180000000     IocpServerImpl.obj
 0004:fffd2000       $pdata$??_G_Iostream_error_category@std@@UEAAPEAXI@Z 0000000180000000     IocpServerImpl.obj
 0002:fffde000       $unwind$?message@_System_error_category@std@@UEBA?AV?$basic_string@DU?$char_traits@D@std@@V?$allocator@D@2@@2@H@Z 0000000180000000     IocpServerImpl.obj
 0004:fffd2000       $pdata$?message@_System_error_category@std@@UEBA?AV?$basic_string@DU?$char_traits@D@std@@V?$allocator@D@2@@2@H@Z 0000000180000000     IocpServerImpl.obj
 0002:fffde000       $unwind$?default_error_condition@_System_error_category@std@@UEBA?AVerror_condition@2@H@Z 0000000180000000     IocpServerImpl.obj
 0004:fffd2000       $pdata$?default_error_condition@_System_error_category@std@@UEBA?AVerror_condition@2@H@Z 0000000180000000     IocpServerImpl.obj
 0002:fffde000       $unwind$??_G_System_error_category@std@@UEAAPEAXI@Z 0000000180000000     IocpServerImpl.obj
 0004:fffd2000       $pdata$??_G_System_error_category@std@@UEAAPEAXI@Z 0000000180000000     IocpServerImpl.obj
 0002:fffde000       $unwind$??0IOCP_RECV_BUF@@QEAA@XZ 0000000180000000     IocpServerImpl.obj
 0004:fffd2000       $pdata$??0IOCP_RECV_BUF@@QEAA@XZ 0000000180000000     IocpServerImpl.obj
 0002:fffde000       $unwind$??0IOCPKEY@@QEAA@XZ 0000000180000000     IocpServerImpl.obj
 0004:fffd2000       $pdata$??0IOCPKEY@@QEAA@XZ 0000000180000000     IocpServerImpl.obj
 0002:fffde000       $unwind$??_GCIocpServer@@UEAAPEAXI@Z 0000000180000000     IocpServerImpl.obj
 0004:fffd2000       $pdata$??_GCIocpServer@@UEAAPEAXI@Z 0000000180000000     IocpServerImpl.obj
 0002:fffde000       $unwind$??_ECIocpServer@@UEAAPEAXI@Z 0000000180000000     IocpServerImpl.obj
 0004:fffd2000       $pdata$??_ECIocpServer@@UEAAPEAXI@Z 0000000180000000     IocpServerImpl.obj
 0002:fffde000       $chain$0$??_ECIocpServer@@UEAAPEAXI@Z 0000000180000000     IocpServerImpl.obj
 0004:fffd2000       $pdata$0$??_ECIocpServer@@UEAAPEAXI@Z 0000000180000000     IocpServerImpl.obj
 0002:fffde000       $chain$1$??_ECIocpServer@@UEAAPEAXI@Z 0000000180000000     IocpServerImpl.obj
 0004:fffd2000       $pdata$1$??_ECIocpServer@@UEAAPEAXI@Z 0000000180000000     IocpServerImpl.obj
 0002:fffde000       $unwind$??_GCIocpServerFactory@@UEAAPEAXI@Z 0000000180000000     IocpServerImpl.obj
 0004:fffd2000       $pdata$??_GCIocpServerFactory@@UEAAPEAXI@Z 0000000180000000     IocpServerImpl.obj
 0002:fffde000       $unwind$??_ECIocpServerFactory@@UEAAPEAXI@Z 0000000180000000     IocpServerImpl.obj
 0004:fffd2000       $pdata$??_ECIocpServerFactory@@UEAAPEAXI@Z 0000000180000000     IocpServerImpl.obj
 0002:fffde000       $chain$0$??_ECIocpServerFactory@@UEAAPEAXI@Z 0000000180000000     IocpServerImpl.obj
 0004:fffd2000       $pdata$0$??_ECIocpServerFactory@@UEAAPEAXI@Z 0000000180000000     IocpServerImpl.obj
 0002:fffde000       $chain$1$??_ECIocpServerFactory@@UEAAPEAXI@Z 0000000180000000     IocpServerImpl.obj
 0004:fffd2000       $pdata$1$??_ECIocpServerFactory@@UEAAPEAXI@Z 0000000180000000     IocpServerImpl.obj
 0000:fffcd000       .debug$S                   0000000180000000     mfc120:mfc120.dll
 0000:fffcd000       .debug$S                   0000000180000000     mfc120:mfc120.dll
 0004:fffd2000       $pdata$?_Xran@?$basic_string@DU?$char_traits@D@std@@V?$allocator@D@2@@std@@QEBAXXZ 0000000180000000     Global.obj
 0000:fffcd000       .debug$S                   0000000180000000     mfc120:mfc120.dll
 0000:fffcd000       .debug$S                   0000000180000000     mfc120:mfc120.dll
 0000:fffcd000       .debug$S                   0000000180000000     mfc120:mfc120.dll
 0000:fffcd000       .debug$S                   0000000180000000     mfc120:mfc120.dll
 0002:fffde000       $unwind$?_Xran@?$basic_string@DU?$char_traits@D@std@@V?$allocator@D@2@@std@@QEBAXXZ 0000000180000000     Global.obj
 0000:fffcd000       .debug$S                   0000000180000000     mfc120:mfc120.dll
 0000:fffcd000       .debug$S                   0000000180000000     mfc120:mfc120.dll
 0000:fffcd000       .debug$S                   0000000180000000     mfc120:mfc120.dll
 0000:fffcd000       .debug$S                   0000000180000000     mfc120:mfc120.dll
 0000:fffcd000       .debug$S                   0000000180000000     mfc120:mfc120.dll
 0000:fffcd000       .debug$S                   0000000180000000     mfc120:mfc120.dll
 0004:fffd2000       $pdata$?_Xlen@?$basic_string@DU?$char_traits@D@std@@V?$allocator@D@2@@std@@QEBAXXZ 0000000180000000     Global.obj
 0000:fffcd000       .debug$S                   0000000180000000     mfc120:mfc120.dll
 0000:fffcd000       .debug$S                   0000000180000000     mfc120:mfc120.dll
 0000:fffcd000       .debug$S                   0000000180000000     mfc120:mfc120.dll
 0000:fffcd000       .debug$S                   0000000180000000     mfc120:mfc120.dll
 0000:fffcd000       .debug$S                   0000000180000000     mfc120:mfc120.dll
 0004:fffd2000       $pdata$?Term@CComCriticalSection@ATL@@QEAAJXZ 0000000180000000     atls:atlbase.obj
 0000:fffcd000       .debug$S                   0000000180000000     mfc120:mfc120.dll
 0002:fffde000       $unwind$?Term@CComCriticalSection@ATL@@QEAAJXZ 0000000180000000     atls:atlbase.obj
 0000:fffcd000       .debug$S                   0000000180000000     mfc120:mfc120.dll
 0004:fffd2000       $pdata$?Init@CComCriticalSection@ATL@@QEAAJXZ 0000000180000000     atls:atlbase.obj
 0000:fffcd000       .debug$S                   0000000180000000     mfc120:mfc120.dll
 0002:fffde000       $unwind$?Init@CComCriticalSection@ATL@@QEAAJXZ 0000000180000000     atls:atlbase.obj
 0000:fffcd000       .debug$S                   0000000180000000     mfc120:mfc120.dll
 0000:fffcd000       .debug$S                   0000000180000000     mfc120:mfc120.dll
 0000:fffcd000       .debug$S                   0000000180000000     mfc120:mfc120.dll
 0000:fffcd000       .debug$S                   0000000180000000     mfc120:mfc120.dll
 0000:fffcd000       .debug$S                   0000000180000000     mfc120:mfc120.dll
 0004:fffd2000       $pdata$??0CComCriticalSection@ATL@@QEAA@XZ 0000000180000000     atls:atlbase.obj
 0002:fffde000       $unwind$?_Xlen@?$basic_string@DU?$char_traits@D@std@@V?$allocator@D@2@@std@@QEBAXXZ 0000000180000000     Global.obj
 0000:fffcd000       .debug$S                   0000000180000000     mfc120:mfc120.dll
 0000:fffcd000       .debug$S                   0000000180000000     mfc120:mfc120.dll
 0000:fffcd000       .debug$S                   0000000180000000     mfc120:mfc120.dll
 0002:fffde000       $unwind$??0CComCriticalSection@ATL@@QEAA@XZ 0000000180000000     atls:atlbase.obj
 0004:fffd2000       $pdata$1$?_Tidy@?$basic_string@DU?$char_traits@D@std@@V?$allocator@D@2@@std@@QEAAX_N_K@Z 0000000180000000     Global.obj
 0000:fffcd000       .debug$S                   0000000180000000     mfc120:mfc120.dll
 0000:fffcd000       .debug$S                   0000000180000000     mfc120:mfc120.dll
 0000:fffcd000       .debug$S                   0000000180000000     mfc120:mfc120.dll
 0000:fffcd000       .debug$S                   0000000180000000     mfc120:mfc120.dll
 0002:fffde000       $chain$1$?_Tidy@?$basic_string@DU?$char_traits@D@std@@V?$allocator@D@2@@std@@QEAAX_N_K@Z 0000000180000000     Global.obj
 0000:fffcd000       .debug$S                   0000000180000000     mfc120:mfc120.dll
 0000:fffcd000       .debug$S                   0000000180000000     mfc120:mfc120.dll
 0000:fffcd000       .debug$S                   0000000180000000     mfc120:mfc120.dll
 0000:fffcd000       .debug$S                   0000000180000000     mfc120:mfc120.dll
 0004:fffd2000       $pdata$0$?_Tidy@?$basic_string@DU?$char_traits@D@std@@V?$allocator@D@2@@std@@QEAAX_N_K@Z 0000000180000000     Global.obj
 0000:fffcd000       .debug$S                   0000000180000000     mfc120:mfc120.dll
 0000:fffcd000       .debug$S                   0000000180000000     mfc120:mfc120.dll
 0000:fffcd000       .debug$S                   0000000180000000     mfc120:mfc120.dll
 0004:fffd2000       $pdata$?AtlThrowImpl@ATL@@YAXJ@Z 0000000180000000     atls:atlbase.obj
 0002:fffde000       $chain$0$?_Tidy@?$basic_string@DU?$char_traits@D@std@@V?$allocator@D@2@@std@@QEAAX_N_K@Z 0000000180000000     Global.obj
 0000:fffcd000       .debug$S                   0000000180000000     winmm:WINMM.dll
 0004:fffd2000       $pdata$?_Tidy@?$basic_string@DU?$char_traits@D@std@@V?$allocator@D@2@@std@@QEAAX_N_K@Z 0000000180000000     Global.obj
 0002:fffde000       $unwind$?_Tidy@?$basic_string@DU?$char_traits@D@std@@V?$allocator@D@2@@std@@QEAAX_N_K@Z 0000000180000000     Global.obj
 0004:fffd2000       $pdata$4$?_Grow@?$basic_string@DU?$char_traits@D@std@@V?$allocator@D@2@@std@@QEAA_N_K_N@Z 0000000180000000     Global.obj
 0002:fffde000       $chain$4$?_Grow@?$basic_string@DU?$char_traits@D@std@@V?$allocator@D@2@@std@@QEAA_N_K_N@Z 0000000180000000     Global.obj
 0002:fffde000       $unwind$?AtlThrowImpl@ATL@@YAXJ@Z 0000000180000000     atls:atlbase.obj
 0004:fffd2000       $pdata$3$?_Grow@?$basic_string@DU?$char_traits@D@std@@V?$allocator@D@2@@std@@QEAA_N_K_N@Z 0000000180000000     Global.obj
 0002:fffde000       $chain$3$?_Grow@?$basic_string@DU?$char_traits@D@std@@V?$allocator@D@2@@std@@QEAA_N_K_N@Z 0000000180000000     Global.obj
 0004:fffd2000       $pdata$2$?_Grow@?$basic_string@DU?$char_traits@D@std@@V?$allocator@D@2@@std@@QEAA_N_K_N@Z 0000000180000000     Global.obj
 0002:fffde000       $chain$2$?_Grow@?$basic_string@DU?$char_traits@D@std@@V?$allocator@D@2@@std@@QEAA_N_K_N@Z 0000000180000000     Global.obj
 0004:fffd2000       $pdata$1$?_Grow@?$basic_string@DU?$char_traits@D@std@@V?$allocator@D@2@@std@@QEAA_N_K_N@Z 0000000180000000     Global.obj
 0002:fffde000       $chain$1$?_Grow@?$basic_string@DU?$char_traits@D@std@@V?$allocator@D@2@@std@@QEAA_N_K_N@Z 0000000180000000     Global.obj
 0004:fffd2000       $pdata$?_Grow@?$basic_string@DU?$char_traits@D@std@@V?$allocator@D@2@@std@@QEAA_N_K_N@Z 0000000180000000     Global.obj
 0002:fffde000       $unwind$?_Grow@?$basic_string@DU?$char_traits@D@std@@V?$allocator@D@2@@std@@QEAA_N_K_N@Z 0000000180000000     Global.obj
 0004:fffd2000       $pdata$?catch$0@?0??_Copy@?$basic_string@DU?$char_traits@D@std@@V?$allocator@D@2@@std@@QEAAX_K0@Z@4HA 0000000180000000     Global.obj
 0002:fffde000       $unwind$?catch$0@?0??_Copy@?$basic_string@DU?$char_traits@D@std@@V?$allocator@D@2@@std@@QEAAX_K0@Z@4HA 0000000180000000     Global.obj
 0004:fffd2000       $pdata$?catch$1@?0??_Copy@?$basic_string@DU?$char_traits@D@std@@V?$allocator@D@2@@std@@QEAAX_K0@Z@4HA 0000000180000000     Global.obj
 0002:fffde000       $unwind$?catch$1@?0??_Copy@?$basic_string@DU?$char_traits@D@std@@V?$allocator@D@2@@std@@QEAAX_K0@Z@4HA 0000000180000000     Global.obj
 0002:fffde000       $ip2state$?_Copy@?$basic_string@DU?$char_traits@D@std@@V?$allocator@D@2@@std@@QEAAX_K0@Z 0000000180000000     Global.obj
 0002:fffde000       $handlerMap$1$?_Copy@?$basic_string@DU?$char_traits@D@std@@V?$allocator@D@2@@std@@QEAAX_K0@Z 0000000180000000     Global.obj
 0002:fffde000       $handlerMap$0$?_Copy@?$basic_string@DU?$char_traits@D@std@@V?$allocator@D@2@@std@@QEAAX_K0@Z 0000000180000000     Global.obj
 0002:fffde000       $tryMap$?_Copy@?$basic_string@DU?$char_traits@D@std@@V?$allocator@D@2@@std@@QEAAX_K0@Z 0000000180000000     Global.obj
 0000:fffcd000       .debug$S                   0000000180000000     shlwapi:SHLWAPI.dll
 0002:fffde000       $stateUnwindMap$?_Copy@?$basic_string@DU?$char_traits@D@std@@V?$allocator@D@2@@std@@QEAAX_K0@Z 0000000180000000     Global.obj
 0002:fffde000       $cppxdata$?_Copy@?$basic_string@DU?$char_traits@D@std@@V?$allocator@D@2@@std@@QEAAX_K0@Z 0000000180000000     Global.obj
 0004:fffd2000       $pdata$?_Copy@?$basic_string@DU?$char_traits@D@std@@V?$allocator@D@2@@std@@QEAAX_K0@Z 0000000180000000     Global.obj
 0002:fffde000       $unwind$?_Copy@?$basic_string@DU?$char_traits@D@std@@V?$allocator@D@2@@std@@QEAAX_K0@Z 0000000180000000     Global.obj
 0000:fffcd000       .debug$S                   0000000180000000     shlwapi:SHLWAPI.dll
 0002:fffde000       $unwind$?Init@CComCriticalSection@ATL@@QEAAJXZ 0000000180000000     DerivedLock.obj
 0004:fffd2000       $pdata$?Init@CComCriticalSection@ATL@@QEAAJXZ 0000000180000000     DerivedLock.obj
 0002:fffde000       $unwind$?Term@CComCriticalSection@ATL@@QEAAJXZ 0000000180000000     DerivedLock.obj
 0004:fffd2000       $pdata$?Term@CComCriticalSection@ATL@@QEAAJXZ 0000000180000000     DerivedLock.obj
 0002:fffde000       $unwind$?Reallocate@CWin32Heap@ATL@@UEAAPEAXPEAX_K@Z 0000000180000000     DerivedLock.obj
 0004:fffd2000       $pdata$?Reallocate@CWin32Heap@ATL@@UEAAPEAXPEAX_K@Z 0000000180000000     DerivedLock.obj
 0004:fffd2000       $pdata$?erase@?$basic_string@DU?$char_traits@D@std@@V?$allocator@D@2@@std@@QEAAAEAV12@_K0@Z 0000000180000000     Global.obj
 0002:fffde000       $unwind$?erase@?$basic_string@DU?$char_traits@D@std@@V?$allocator@D@2@@std@@QEAAAEAV12@_K0@Z 0000000180000000     Global.obj
 0004:fffd2000       $pdata$?erase@?$basic_string@DU?$char_traits@D@std@@V?$allocator@D@2@@std@@QEAAAEAV12@_K@Z 0000000180000000     Global.obj
 0000:fffcd000       .debug$S                   0000000180000000     shell32:SHELL32.dll
 0002:fffde000       $unwind$?erase@?$basic_string@DU?$char_traits@D@std@@V?$allocator@D@2@@std@@QEAAAEAV12@_K@Z 0000000180000000     Global.obj
 0002:fffde000       $unwind$??_GCWin32Heap@ATL@@UEAAPEAXI@Z 0000000180000000     DerivedLock.obj
 0004:fffd2000       $pdata$??_GCWin32Heap@ATL@@UEAAPEAXI@Z 0000000180000000     DerivedLock.obj
 0004:fffd2000       $pdata$?assign@?$basic_string@DU?$char_traits@D@std@@V?$allocator@D@2@@std@@QEAAAEAV12@PEBD_K@Z 0000000180000000     Global.obj
 0002:fffde000       $unwind$?assign@?$basic_string@DU?$char_traits@D@std@@V?$allocator@D@2@@std@@QEAAAEAV12@PEBD_K@Z 0000000180000000     Global.obj
 0004:fffd2000       $pdata$?assign@?$basic_string@DU?$char_traits@D@std@@V?$allocator@D@2@@std@@QEAAAEAV12@AEBV12@_K1@Z 0000000180000000     Global.obj
 0002:fffde000       $unwind$?assign@?$basic_string@DU?$char_traits@D@std@@V?$allocator@D@2@@std@@QEAAAEAV12@AEBV12@_K1@Z 0000000180000000     Global.obj
 0004:fffd2000       $pdata$??1?$basic_string@DU?$char_traits@D@std@@V?$allocator@D@2@@std@@QEAA@XZ 0000000180000000     Global.obj
 0002:fffde000       $unwind$??1?$basic_string@DU?$char_traits@D@std@@V?$allocator@D@2@@std@@QEAA@XZ 0000000180000000     Global.obj
 0000:fffcd000       .debug$S                   0000000180000000     user32:USER32.dll
 0004:fffd2000       $pdata$?_Assign_rv@?$basic_string@DU?$char_traits@D@std@@V?$allocator@D@2@@std@@QEAAX$$QEAV12@@Z 0000000180000000     Global.obj
 0002:fffde000       $unwind$?_Assign_rv@?$basic_string@DU?$char_traits@D@std@@V?$allocator@D@2@@std@@QEAAX$$QEAV12@@Z 0000000180000000     Global.obj
 0002:fffde000       $unwind$??0CAtlWinModule@ATL@@QEAA@XZ 0000000180000000     mfcs120:dllmodul.obj
 0004:fffd2000       $pdata$??0?$basic_string@DU?$char_traits@D@std@@V?$allocator@D@2@@std@@QEAA@$$QEAV01@@Z 0000000180000000     Global.obj
 0002:fffde000       $unwind$??0?$basic_string@DU?$char_traits@D@std@@V?$allocator@D@2@@std@@QEAA@$$QEAV01@@Z 0000000180000000     Global.obj
 0004:fffd2000       $pdata$??0?$basic_string@DU?$char_traits@D@std@@V?$allocator@D@2@@std@@QEAA@PEBD@Z 0000000180000000     Global.obj
 0000:fffcd000       .debug$S                   0000000180000000     kernel32:KERNEL32.dll
 0002:fffde000       $unwind$??0?$basic_string@DU?$char_traits@D@std@@V?$allocator@D@2@@std@@QEAA@PEBD@Z 0000000180000000     Global.obj
 0000:fffcd000       .debug$S                   0000000180000000     kernel32:KERNEL32.dll
 0004:fffd2000       $pdata$?allocate@?$_Wrap_alloc@V?$allocator@D@std@@@std@@QEAAPEAD_K@Z 0000000180000000     Global.obj
 0000:fffcd000       .debug$S                   0000000180000000     kernel32:KERNEL32.dll
 0002:fffde000       $unwind$?allocate@?$_Wrap_alloc@V?$allocator@D@std@@@std@@QEAAPEAD_K@Z 0000000180000000     Global.obj
 0004:fffd2000       $pdata$?allocate@?$allocator@D@std@@QEAAPEAD_K@Z 0000000180000000     Global.obj
 0002:fffde000       $unwind$?allocate@?$allocator@D@std@@QEAAPEAD_K@Z 0000000180000000     Global.obj
 0002:fffde000       $unwind$??1?$CSimpleArray@GV?$CSimpleArrayEqualHelper@G@ATL@@@ATL@@QEAA@XZ 0000000180000000     DerivedLock.obj
 0004:fffd2000       $pdata$?copy@?$char_traits@D@std@@SAPEADPEADPEBD_K@Z 0000000180000000     Global.obj
 0002:fffde000       $unwind$?copy@?$char_traits@D@std@@SAPEADPEADPEBD_K@Z 0000000180000000     Global.obj
 0000:fffcd000       .debug$S                   0000000180000000     kernel32:KERNEL32.dll
 0004:fffd2000       $pdata$??1?$CSimpleArray@GV?$CSimpleArrayEqualHelper@G@ATL@@@ATL@@QEAA@XZ 0000000180000000     DerivedLock.obj
 0000:fffcd000       .debug$S                   0000000180000000     kernel32:KERNEL32.dll
 0002:fffde000       $unwind$?RemoveAll@?$CSimpleArray@GV?$CSimpleArrayEqualHelper@G@ATL@@@ATL@@QEAAXXZ 0000000180000000     DerivedLock.obj
 0004:fffd2000       $pdata$?RemoveAll@?$CSimpleArray@GV?$CSimpleArrayEqualHelper@G@ATL@@@ATL@@QEAAXXZ 0000000180000000     DerivedLock.obj
 0002:fffde000       $unwind$??A?$CSimpleArray@GV?$CSimpleArrayEqualHelper@G@ATL@@@ATL@@QEAAAEAGH@Z 0000000180000000     DerivedLock.obj
 0001:fffff000       ?catch$1@?0??_Copy@?$basic_string@DU?$char_traits@D@std@@V?$allocator@D@2@@std@@QEAAX_K0@Z@4HA 0000000180000000 f   Global.obj
 0001:fffff000       ?catch$0@?0??_Reallocate@?$vector@V?$basic_string@DU?$char_traits@D@std@@V?$allocator@D@2@@std@@V?$allocator@V?$basic_string@DU?$char_traits@D@std@@V?$allocator@D@2@@std@@@2@@std@@IEAAX_K@Z@4HA 0000000180000000 f   Global.obj
 0001:fffff000       ?catch$0@?0???$_Uninit_move@PEAV?$basic_string@DU?$char_traits@D@std@@V?$allocator@D@2@@std@@PEAV12@V?$allocator@V?$basic_string@DU?$char_traits@D@std@@V?$allocator@D@2@@std@@@2@V12@@std@@YAPEAV?$basic_string@DU?$char_traits@D@std@@V?$allocator@D@2@@0@PEAV10@00AEAU?$_Wrap_alloc@V?$allocator@V?$basic_string@DU?$char_traits@D@std@@V?$allocator@D@2@@std@@@std@@@0@0U_Nonscalar_ptr_iterator_tag@0@@Z@4HA 0000000180000000 f   Global.obj
 0000:fffcd000       .debug$S                   0000000180000000     kernel32:KERNEL32.dll
 0002:fffde000       ?_System_object$initializer$@?$_Error_objects@H@std@@2P6AXXZEA 0000000180000000     IocpKeyIoMgr.obj
 0000:fffcd000       .debug$S                   0000000180000000     kernel32:KERNEL32.dll
 0002:fffde000       ?_Iostream_object$initializer$@?$_Error_objects@H@std@@2P6AXXZEA 0000000180000000     IocpKeyIoMgr.obj
 0002:fffde000       ?_Generic_object$initializer$@?$_Error_objects@H@std@@2P6AXXZEA 0000000180000000     IocpKeyIoMgr.obj
 0004:fffd2000       $pdata$??A?$CSimpleArray@GV?$CSimpleArrayEqualHelper@G@ATL@@@ATL@@QEAAAEAGH@Z 0000000180000000     DerivedLock.obj
 0002:fffde000       $unwind$??1_ATL_WIN_MODULE70@ATL@@QEAA@XZ 0000000180000000     DerivedLock.obj
 0000:fffcd000       .debug$S                   0000000180000000     kernel32:KERNEL32.dll
 0004:fffd2000       $pdata$??1_ATL_WIN_MODULE70@ATL@@QEAA@XZ 0000000180000000     DerivedLock.obj
 0002:fffde000       $unwind$?AtlWinModuleInit@ATL@@YAJPEAU_ATL_WIN_MODULE70@1@@Z 0000000180000000     DerivedLock.obj
 0004:fffd2000       $pdata$?AtlWinModuleInit@ATL@@YAJPEAU_ATL_WIN_MODULE70@1@@Z 0000000180000000     DerivedLock.obj
 0002:fffde000       $chain$0$?AtlWinModuleInit@ATL@@YAJPEAU_ATL_WIN_MODULE70@1@@Z 0000000180000000     DerivedLock.obj
 0004:fffd2000       $pdata$0$?AtlWinModuleInit@ATL@@YAJPEAU_ATL_WIN_MODULE70@1@@Z 0000000180000000     DerivedLock.obj
 0002:fffde000       $chain$2$?AtlWinModuleInit@ATL@@YAJPEAU_ATL_WIN_MODULE70@1@@Z 0000000180000000     DerivedLock.obj
 0000:fffcd000       .debug$S                   0000000180000000     kernel32:KERNEL32.dll
 0004:fffd2000       $pdata$2$?AtlWinModuleInit@ATL@@YAJPEAU_ATL_WIN_MODULE70@1@@Z 0000000180000000     DerivedLock.obj
 0000:fffcd000       .debug$S                   0000000180000000     kernel32:KERNEL32.dll
 0002:fffde000       $unwind$?AtlWinModuleTerm@ATL@@YAJPEAU_ATL_WIN_MODULE70@1@PEAUHINSTANCE__@@@Z 0000000180000000     DerivedLock.obj
 0004:fffd2000       $pdata$?AtlWinModuleTerm@ATL@@YAJPEAU_ATL_WIN_MODULE70@1@PEAUHINSTANCE__@@@Z 0000000180000000     DerivedLock.obj
 0002:fffde000       $chain$2$?AtlWinModuleTerm@ATL@@YAJPEAU_ATL_WIN_MODULE70@1@PEAUHINSTANCE__@@@Z 0000000180000000     DerivedLock.obj
 0004:fffd2000       $pdata$2$?AtlWinModuleTerm@ATL@@YAJPEAU_ATL_WIN_MODULE70@1@PEAUHINSTANCE__@@@Z 0000000180000000     DerivedLock.obj
 0000:fffcd000       .debug$S                   0000000180000000     kernel32:KERNEL32.dll
 0002:fffde000       $chain$3$?AtlWinModuleTerm@ATL@@YAJPEAU_ATL_WIN_MODULE70@1@PEAUHINSTANCE__@@@Z 0000000180000000     DerivedLock.obj
 0000:fffcd000       .debug$S                   0000000180000000     kernel32:KERNEL32.dll
 0004:fffd2000       $pdata$3$?AtlWinModuleTerm@ATL@@YAJPEAU_ATL_WIN_MODULE70@1@PEAUHINSTANCE__@@@Z 0000000180000000     DerivedLock.obj
 0000:fffcd000       .debug$S                   0000000180000000     kernel32:KERNEL32.dll
 0002:fffde000       $chain$4$?AtlWinModuleTerm@ATL@@YAJPEAU_ATL_WIN_MODULE70@1@PEAUHINSTANCE__@@@Z 0000000180000000     DerivedLock.obj
 0004:fffd2000       $pdata$4$?AtlWinModuleTerm@ATL@@YAJPEAU_ATL_WIN_MODULE70@1@PEAUHINSTANCE__@@@Z 0000000180000000     DerivedLock.obj
 0002:fffde000       $unwind$??0CAtlComModule@ATL@@QEAA@XZ 0000000180000000     DerivedLock.obj
 0004:fffd2000       $pdata$??0CAtlComModule@ATL@@QEAA@XZ 0000000180000000     DerivedLock.obj
 0000:fffcd000       .debug$S                   0000000180000000     kernel32:KERNEL32.dll
 0002:fffde000       $unwind$?Term@CAtlComModule@ATL@@QEAAXXZ 0000000180000000     DerivedLock.obj
 0000:fffcd000       .debug$S                   0000000180000000     kernel32:KERNEL32.dll
 0004:fffd2000       $pdata$?Term@CAtlComModule@ATL@@QEAAXXZ 0000000180000000     DerivedLock.obj
 0000:fffcd000       .debug$S                   0000000180000000     kernel32:KERNEL32.dll
 0002:fffde000       $chain$1$?Term@CAtlComModule@ATL@@QEAAXXZ 0000000180000000     DerivedLock.obj
 0004:fffd2000       $pdata$1$?Term@CAtlComModule@ATL@@QEAAXXZ 0000000180000000     DerivedLock.obj
 0002:fffde000       $chain$2$?Term@CAtlComModule@ATL@@QEAAXXZ 0000000180000000     DerivedLock.obj
 0004:fffd2000       $pdata$2$?Term@CAtlComModule@ATL@@QEAAXXZ 0000000180000000     DerivedLock.obj
 0000:fffcd000       .debug$S                   0000000180000000     kernel32:KERNEL32.dll
 0002:fffde000       $chain$3$?Term@CAtlComModule@ATL@@QEAAXXZ 0000000180000000     DerivedLock.obj
 0004:fffd2000       $pdata$??0CAtlWinModule@ATL@@QEAA@XZ 0000000180000000     mfcs120:dllmodul.obj
 0004:fffd2000       $pdata$3$?Term@CAtlComModule@ATL@@QEAAXXZ 0000000180000000     DerivedLock.obj
 0002:fffde000       $chain$4$?Term@CAtlComModule@ATL@@QEAAXXZ 0000000180000000     DerivedLock.obj
 0000:fffcd000       .debug$S                   0000000180000000     kernel32:KERNEL32.dll
 0004:fffd2000       $pdata$4$?Term@CAtlComModule@ATL@@QEAAXXZ 0000000180000000     DerivedLock.obj
 0002:fffde000       $unwind$?StaticInitialize@CAtlStringMgr@ATL@@CA_NXZ 0000000180000000     mfcs120:dllmodul.obj
 0002:fffde000       $unwind$??0CAtlWinModule@ATL@@QEAA@XZ 0000000180000000     DerivedLock.obj
 0004:fffd2000       $pdata$??0CAtlWinModule@ATL@@QEAA@XZ 0000000180000000     DerivedLock.obj
 0000:fffcd000       .debug$S                   0000000180000000     kernel32:KERNEL32.dll
 0002:fffde000       $unwind$??1CAtlWinModule@ATL@@QEAA@XZ 0000000180000000     DerivedLock.obj
 0004:fffd2000       $pdata$??1CAtlWinModule@ATL@@QEAA@XZ 0000000180000000     DerivedLock.obj
 0004:fffd2000       $pdata$?Reallocate@CAtlStringMgr@ATL@@UEAAPEAUCStringData@2@PEAU32@HH@Z 0000000180000000     mfcs120:dllmodul.obj
 0002:fffde000       $unwind$?GetInstance@CAtlStringMgr@ATL@@SAPEAUIAtlStringMgr@2@XZ 0000000180000000     DerivedLock.obj
 0000:fffcd000       .debug$S                   0000000180000000     kernel32:KERNEL32.dll
 0004:fffd2000       $pdata$?GetInstance@CAtlStringMgr@ATL@@SAPEAUIAtlStringMgr@2@XZ 0000000180000000     DerivedLock.obj
 0002:fffde000       $unwind$?Allocate@CAtlStringMgr@ATL@@UEAAPEAUCStringData@2@HH@Z 0000000180000000     DerivedLock.obj
 0004:fffd2000       $pdata$?Allocate@CAtlStringMgr@ATL@@UEAAPEAUCStringData@2@HH@Z 0000000180000000     DerivedLock.obj
 0002:fffde000       $chain$0$?Allocate@CAtlStringMgr@ATL@@UEAAPEAUCStringData@2@HH@Z 0000000180000000     DerivedLock.obj
 0000:fffcd000       .debug$S                   0000000180000000     kernel32:KERNEL32.dll
 0004:fffd2000       $pdata$0$?Allocate@CAtlStringMgr@ATL@@UEAAPEAUCStringData@2@HH@Z 0000000180000000     DerivedLock.obj
 0002:fffde000       $chain$2$?Allocate@CAtlStringMgr@ATL@@UEAAPEAUCStringData@2@HH@Z 0000000180000000     DerivedLock.obj
 0004:fffd2000       $pdata$2$?Allocate@CAtlStringMgr@ATL@@UEAAPEAUCStringData@2@HH@Z 0000000180000000     DerivedLock.obj
 0002:fffde000       $unwind$?Reallocate@CAtlStringMgr@ATL@@UEAAPEAUCStringData@2@PEAU32@HH@Z 0000000180000000     DerivedLock.obj
 0000:fffcd000       .debug$S                   0000000180000000     kernel32:KERNEL32.dll
 0004:fffd2000       $pdata$?Reallocate@CAtlStringMgr@ATL@@UEAAPEAUCStringData@2@PEAU32@HH@Z 0000000180000000     DerivedLock.obj
 0002:fffde000       $chain$0$?Reallocate@CAtlStringMgr@ATL@@UEAAPEAUCStringData@2@PEAU32@HH@Z 0000000180000000     DerivedLock.obj
 0004:fffd2000       $pdata$0$?Reallocate@CAtlStringMgr@ATL@@UEAAPEAUCStringData@2@PEAU32@HH@Z 0000000180000000     DerivedLock.obj
 0002:fffde000       $chain$2$?Reallocate@CAtlStringMgr@ATL@@UEAAPEAUCStringData@2@PEAU32@HH@Z 0000000180000000     DerivedLock.obj
 0000:fffcd000       .debug$S                   0000000180000000     kernel32:KERNEL32.dll
 0004:fffd2000       $pdata$2$?Reallocate@CAtlStringMgr@ATL@@UEAAPEAUCStringData@2@PEAU32@HH@Z 0000000180000000     DerivedLock.obj
 0002:fffde000       $unwind$?StaticInitialize@CAtlStringMgr@ATL@@CA_NXZ 0000000180000000     DerivedLock.obj
 0004:fffd2000       $pdata$?StaticInitialize@CAtlStringMgr@ATL@@CA_NXZ 0000000180000000     DerivedLock.obj
 0002:fffde000       $unwind$??_GCAtlStringMgr@ATL@@UEAAPEAXI@Z 0000000180000000     DerivedLock.obj
 0000:fffcd000       .debug$S                   0000000180000000     kernel32:KERNEL32.dll
